
coroutine_test:     file format elf64-x86-64


Disassembly of section .init:

0000000000002000 <_init>:
    2000:	f3 0f 1e fa          	endbr64 
    2004:	48 83 ec 08          	sub    $0x8,%rsp
    2008:	48 8b 05 d1 df 00 00 	mov    0xdfd1(%rip),%rax        # ffe0 <__gmon_start__>
    200f:	48 85 c0             	test   %rax,%rax
    2012:	74 02                	je     2016 <_init+0x16>
    2014:	ff d0                	callq  *%rax
    2016:	48 83 c4 08          	add    $0x8,%rsp
    201a:	c3                   	retq   

Disassembly of section .plt:

0000000000002020 <.plt>:
    2020:	ff 35 12 de 00 00    	pushq  0xde12(%rip)        # fe38 <_GLOBAL_OFFSET_TABLE_+0x8>
    2026:	f2 ff 25 13 de 00 00 	bnd jmpq *0xde13(%rip)        # fe40 <_GLOBAL_OFFSET_TABLE_+0x10>
    202d:	0f 1f 00             	nopl   (%rax)
    2030:	f3 0f 1e fa          	endbr64 
    2034:	68 00 00 00 00       	pushq  $0x0
    2039:	f2 e9 e1 ff ff ff    	bnd jmpq 2020 <.plt>
    203f:	90                   	nop
    2040:	f3 0f 1e fa          	endbr64 
    2044:	68 01 00 00 00       	pushq  $0x1
    2049:	f2 e9 d1 ff ff ff    	bnd jmpq 2020 <.plt>
    204f:	90                   	nop
    2050:	f3 0f 1e fa          	endbr64 
    2054:	68 02 00 00 00       	pushq  $0x2
    2059:	f2 e9 c1 ff ff ff    	bnd jmpq 2020 <.plt>
    205f:	90                   	nop
    2060:	f3 0f 1e fa          	endbr64 
    2064:	68 03 00 00 00       	pushq  $0x3
    2069:	f2 e9 b1 ff ff ff    	bnd jmpq 2020 <.plt>
    206f:	90                   	nop
    2070:	f3 0f 1e fa          	endbr64 
    2074:	68 04 00 00 00       	pushq  $0x4
    2079:	f2 e9 a1 ff ff ff    	bnd jmpq 2020 <.plt>
    207f:	90                   	nop
    2080:	f3 0f 1e fa          	endbr64 
    2084:	68 05 00 00 00       	pushq  $0x5
    2089:	f2 e9 91 ff ff ff    	bnd jmpq 2020 <.plt>
    208f:	90                   	nop
    2090:	f3 0f 1e fa          	endbr64 
    2094:	68 06 00 00 00       	pushq  $0x6
    2099:	f2 e9 81 ff ff ff    	bnd jmpq 2020 <.plt>
    209f:	90                   	nop
    20a0:	f3 0f 1e fa          	endbr64 
    20a4:	68 07 00 00 00       	pushq  $0x7
    20a9:	f2 e9 71 ff ff ff    	bnd jmpq 2020 <.plt>
    20af:	90                   	nop
    20b0:	f3 0f 1e fa          	endbr64 
    20b4:	68 08 00 00 00       	pushq  $0x8
    20b9:	f2 e9 61 ff ff ff    	bnd jmpq 2020 <.plt>
    20bf:	90                   	nop
    20c0:	f3 0f 1e fa          	endbr64 
    20c4:	68 09 00 00 00       	pushq  $0x9
    20c9:	f2 e9 51 ff ff ff    	bnd jmpq 2020 <.plt>
    20cf:	90                   	nop
    20d0:	f3 0f 1e fa          	endbr64 
    20d4:	68 0a 00 00 00       	pushq  $0xa
    20d9:	f2 e9 41 ff ff ff    	bnd jmpq 2020 <.plt>
    20df:	90                   	nop
    20e0:	f3 0f 1e fa          	endbr64 
    20e4:	68 0b 00 00 00       	pushq  $0xb
    20e9:	f2 e9 31 ff ff ff    	bnd jmpq 2020 <.plt>
    20ef:	90                   	nop
    20f0:	f3 0f 1e fa          	endbr64 
    20f4:	68 0c 00 00 00       	pushq  $0xc
    20f9:	f2 e9 21 ff ff ff    	bnd jmpq 2020 <.plt>
    20ff:	90                   	nop
    2100:	f3 0f 1e fa          	endbr64 
    2104:	68 0d 00 00 00       	pushq  $0xd
    2109:	f2 e9 11 ff ff ff    	bnd jmpq 2020 <.plt>
    210f:	90                   	nop
    2110:	f3 0f 1e fa          	endbr64 
    2114:	68 0e 00 00 00       	pushq  $0xe
    2119:	f2 e9 01 ff ff ff    	bnd jmpq 2020 <.plt>
    211f:	90                   	nop
    2120:	f3 0f 1e fa          	endbr64 
    2124:	68 0f 00 00 00       	pushq  $0xf
    2129:	f2 e9 f1 fe ff ff    	bnd jmpq 2020 <.plt>
    212f:	90                   	nop
    2130:	f3 0f 1e fa          	endbr64 
    2134:	68 10 00 00 00       	pushq  $0x10
    2139:	f2 e9 e1 fe ff ff    	bnd jmpq 2020 <.plt>
    213f:	90                   	nop
    2140:	f3 0f 1e fa          	endbr64 
    2144:	68 11 00 00 00       	pushq  $0x11
    2149:	f2 e9 d1 fe ff ff    	bnd jmpq 2020 <.plt>
    214f:	90                   	nop
    2150:	f3 0f 1e fa          	endbr64 
    2154:	68 12 00 00 00       	pushq  $0x12
    2159:	f2 e9 c1 fe ff ff    	bnd jmpq 2020 <.plt>
    215f:	90                   	nop
    2160:	f3 0f 1e fa          	endbr64 
    2164:	68 13 00 00 00       	pushq  $0x13
    2169:	f2 e9 b1 fe ff ff    	bnd jmpq 2020 <.plt>
    216f:	90                   	nop
    2170:	f3 0f 1e fa          	endbr64 
    2174:	68 14 00 00 00       	pushq  $0x14
    2179:	f2 e9 a1 fe ff ff    	bnd jmpq 2020 <.plt>
    217f:	90                   	nop
    2180:	f3 0f 1e fa          	endbr64 
    2184:	68 15 00 00 00       	pushq  $0x15
    2189:	f2 e9 91 fe ff ff    	bnd jmpq 2020 <.plt>
    218f:	90                   	nop
    2190:	f3 0f 1e fa          	endbr64 
    2194:	68 16 00 00 00       	pushq  $0x16
    2199:	f2 e9 81 fe ff ff    	bnd jmpq 2020 <.plt>
    219f:	90                   	nop
    21a0:	f3 0f 1e fa          	endbr64 
    21a4:	68 17 00 00 00       	pushq  $0x17
    21a9:	f2 e9 71 fe ff ff    	bnd jmpq 2020 <.plt>
    21af:	90                   	nop
    21b0:	f3 0f 1e fa          	endbr64 
    21b4:	68 18 00 00 00       	pushq  $0x18
    21b9:	f2 e9 61 fe ff ff    	bnd jmpq 2020 <.plt>
    21bf:	90                   	nop
    21c0:	f3 0f 1e fa          	endbr64 
    21c4:	68 19 00 00 00       	pushq  $0x19
    21c9:	f2 e9 51 fe ff ff    	bnd jmpq 2020 <.plt>
    21cf:	90                   	nop
    21d0:	f3 0f 1e fa          	endbr64 
    21d4:	68 1a 00 00 00       	pushq  $0x1a
    21d9:	f2 e9 41 fe ff ff    	bnd jmpq 2020 <.plt>
    21df:	90                   	nop
    21e0:	f3 0f 1e fa          	endbr64 
    21e4:	68 1b 00 00 00       	pushq  $0x1b
    21e9:	f2 e9 31 fe ff ff    	bnd jmpq 2020 <.plt>
    21ef:	90                   	nop
    21f0:	f3 0f 1e fa          	endbr64 
    21f4:	68 1c 00 00 00       	pushq  $0x1c
    21f9:	f2 e9 21 fe ff ff    	bnd jmpq 2020 <.plt>
    21ff:	90                   	nop
    2200:	f3 0f 1e fa          	endbr64 
    2204:	68 1d 00 00 00       	pushq  $0x1d
    2209:	f2 e9 11 fe ff ff    	bnd jmpq 2020 <.plt>
    220f:	90                   	nop
    2210:	f3 0f 1e fa          	endbr64 
    2214:	68 1e 00 00 00       	pushq  $0x1e
    2219:	f2 e9 01 fe ff ff    	bnd jmpq 2020 <.plt>
    221f:	90                   	nop
    2220:	f3 0f 1e fa          	endbr64 
    2224:	68 1f 00 00 00       	pushq  $0x1f
    2229:	f2 e9 f1 fd ff ff    	bnd jmpq 2020 <.plt>
    222f:	90                   	nop
    2230:	f3 0f 1e fa          	endbr64 
    2234:	68 20 00 00 00       	pushq  $0x20
    2239:	f2 e9 e1 fd ff ff    	bnd jmpq 2020 <.plt>
    223f:	90                   	nop
    2240:	f3 0f 1e fa          	endbr64 
    2244:	68 21 00 00 00       	pushq  $0x21
    2249:	f2 e9 d1 fd ff ff    	bnd jmpq 2020 <.plt>
    224f:	90                   	nop
    2250:	f3 0f 1e fa          	endbr64 
    2254:	68 22 00 00 00       	pushq  $0x22
    2259:	f2 e9 c1 fd ff ff    	bnd jmpq 2020 <.plt>
    225f:	90                   	nop
    2260:	f3 0f 1e fa          	endbr64 
    2264:	68 23 00 00 00       	pushq  $0x23
    2269:	f2 e9 b1 fd ff ff    	bnd jmpq 2020 <.plt>
    226f:	90                   	nop
    2270:	f3 0f 1e fa          	endbr64 
    2274:	68 24 00 00 00       	pushq  $0x24
    2279:	f2 e9 a1 fd ff ff    	bnd jmpq 2020 <.plt>
    227f:	90                   	nop
    2280:	f3 0f 1e fa          	endbr64 
    2284:	68 25 00 00 00       	pushq  $0x25
    2289:	f2 e9 91 fd ff ff    	bnd jmpq 2020 <.plt>
    228f:	90                   	nop
    2290:	f3 0f 1e fa          	endbr64 
    2294:	68 26 00 00 00       	pushq  $0x26
    2299:	f2 e9 81 fd ff ff    	bnd jmpq 2020 <.plt>
    229f:	90                   	nop
    22a0:	f3 0f 1e fa          	endbr64 
    22a4:	68 27 00 00 00       	pushq  $0x27
    22a9:	f2 e9 71 fd ff ff    	bnd jmpq 2020 <.plt>
    22af:	90                   	nop
    22b0:	f3 0f 1e fa          	endbr64 
    22b4:	68 28 00 00 00       	pushq  $0x28
    22b9:	f2 e9 61 fd ff ff    	bnd jmpq 2020 <.plt>
    22bf:	90                   	nop
    22c0:	f3 0f 1e fa          	endbr64 
    22c4:	68 29 00 00 00       	pushq  $0x29
    22c9:	f2 e9 51 fd ff ff    	bnd jmpq 2020 <.plt>
    22cf:	90                   	nop
    22d0:	f3 0f 1e fa          	endbr64 
    22d4:	68 2a 00 00 00       	pushq  $0x2a
    22d9:	f2 e9 41 fd ff ff    	bnd jmpq 2020 <.plt>
    22df:	90                   	nop
    22e0:	f3 0f 1e fa          	endbr64 
    22e4:	68 2b 00 00 00       	pushq  $0x2b
    22e9:	f2 e9 31 fd ff ff    	bnd jmpq 2020 <.plt>
    22ef:	90                   	nop
    22f0:	f3 0f 1e fa          	endbr64 
    22f4:	68 2c 00 00 00       	pushq  $0x2c
    22f9:	f2 e9 21 fd ff ff    	bnd jmpq 2020 <.plt>
    22ff:	90                   	nop

Disassembly of section .plt.got:

0000000000002300 <__cxa_finalize@plt>:
    2300:	f3 0f 1e fa          	endbr64 
    2304:	f2 ff 25 a5 dc 00 00 	bnd jmpq *0xdca5(%rip)        # ffb0 <__cxa_finalize@GLIBC_2.2.5>
    230b:	0f 1f 44 00 00       	nopl   0x0(%rax,%rax,1)

Disassembly of section .plt.sec:

0000000000002310 <_Znam@plt>:
    2310:	f3 0f 1e fa          	endbr64 
    2314:	f2 ff 25 2d db 00 00 	bnd jmpq *0xdb2d(%rip)        # fe48 <_Znam@GLIBCXX_3.4>
    231b:	0f 1f 44 00 00       	nopl   0x0(%rax,%rax,1)

0000000000002320 <printf@plt>:
    2320:	f3 0f 1e fa          	endbr64 
    2324:	f2 ff 25 25 db 00 00 	bnd jmpq *0xdb25(%rip)        # fe50 <printf@GLIBC_2.2.5>
    232b:	0f 1f 44 00 00       	nopl   0x0(%rax,%rax,1)

0000000000002330 <_ZNSaIcED2Ev@plt>:
    2330:	f3 0f 1e fa          	endbr64 
    2334:	f2 ff 25 1d db 00 00 	bnd jmpq *0xdb1d(%rip)        # fe58 <_ZNSaIcED2Ev@GLIBCXX_3.4>
    233b:	0f 1f 44 00 00       	nopl   0x0(%rax,%rax,1)

0000000000002340 <swapcontext@plt>:
    2340:	f3 0f 1e fa          	endbr64 
    2344:	f2 ff 25 15 db 00 00 	bnd jmpq *0xdb15(%rip)        # fe60 <swapcontext@GLIBC_2.2.5>
    234b:	0f 1f 44 00 00       	nopl   0x0(%rax,%rax,1)

0000000000002350 <_ZNSt7__cxx1112basic_stringIcSt11char_traitsIcESaIcEE13_S_copy_charsEPcS5_S5_@plt>:
    2350:	f3 0f 1e fa          	endbr64 
    2354:	f2 ff 25 0d db 00 00 	bnd jmpq *0xdb0d(%rip)        # fe68 <_ZNSt7__cxx1112basic_stringIcSt11char_traitsIcESaIcEE13_S_copy_charsEPcS5_S5_@GLIBCXX_3.4.21>
    235b:	0f 1f 44 00 00       	nopl   0x0(%rax,%rax,1)

0000000000002360 <makecontext@plt>:
    2360:	f3 0f 1e fa          	endbr64 
    2364:	f2 ff 25 05 db 00 00 	bnd jmpq *0xdb05(%rip)        # fe70 <makecontext@GLIBC_2.2.5>
    236b:	0f 1f 44 00 00       	nopl   0x0(%rax,%rax,1)

0000000000002370 <_ZSt17__throw_bad_allocv@plt>:
    2370:	f3 0f 1e fa          	endbr64 
    2374:	f2 ff 25 fd da 00 00 	bnd jmpq *0xdafd(%rip)        # fe78 <_ZSt17__throw_bad_allocv@GLIBCXX_3.4>
    237b:	0f 1f 44 00 00       	nopl   0x0(%rax,%rax,1)

0000000000002380 <_ZSt25__throw_bad_function_callv@plt>:
    2380:	f3 0f 1e fa          	endbr64 
    2384:	f2 ff 25 f5 da 00 00 	bnd jmpq *0xdaf5(%rip)        # fe80 <_ZSt25__throw_bad_function_callv@GLIBCXX_3.4.14>
    238b:	0f 1f 44 00 00       	nopl   0x0(%rax,%rax,1)

0000000000002390 <__cxa_begin_catch@plt>:
    2390:	f3 0f 1e fa          	endbr64 
    2394:	f2 ff 25 ed da 00 00 	bnd jmpq *0xdaed(%rip)        # fe88 <__cxa_begin_catch@CXXABI_1.3>
    239b:	0f 1f 44 00 00       	nopl   0x0(%rax,%rax,1)

00000000000023a0 <_ZNKSt7__cxx1112basic_stringIcSt11char_traitsIcESaIcEE5c_strEv@plt>:
    23a0:	f3 0f 1e fa          	endbr64 
    23a4:	f2 ff 25 e5 da 00 00 	bnd jmpq *0xdae5(%rip)        # fe90 <_ZNKSt7__cxx1112basic_stringIcSt11char_traitsIcESaIcEE5c_strEv@GLIBCXX_3.4.21>
    23ab:	0f 1f 44 00 00       	nopl   0x0(%rax,%rax,1)

00000000000023b0 <__cxa_allocate_exception@plt>:
    23b0:	f3 0f 1e fa          	endbr64 
    23b4:	f2 ff 25 dd da 00 00 	bnd jmpq *0xdadd(%rip)        # fe98 <__cxa_allocate_exception@CXXABI_1.3>
    23bb:	0f 1f 44 00 00       	nopl   0x0(%rax,%rax,1)

00000000000023c0 <_ZSt20__throw_length_errorPKc@plt>:
    23c0:	f3 0f 1e fa          	endbr64 
    23c4:	f2 ff 25 d5 da 00 00 	bnd jmpq *0xdad5(%rip)        # fea0 <_ZSt20__throw_length_errorPKc@GLIBCXX_3.4>
    23cb:	0f 1f 44 00 00       	nopl   0x0(%rax,%rax,1)

00000000000023d0 <memset@plt>:
    23d0:	f3 0f 1e fa          	endbr64 
    23d4:	f2 ff 25 cd da 00 00 	bnd jmpq *0xdacd(%rip)        # fea8 <memset@GLIBC_2.2.5>
    23db:	0f 1f 44 00 00       	nopl   0x0(%rax,%rax,1)

00000000000023e0 <_ZNSt7__cxx1112basic_stringIcSt11char_traitsIcESaIcEED1Ev@plt>:
    23e0:	f3 0f 1e fa          	endbr64 
    23e4:	f2 ff 25 c5 da 00 00 	bnd jmpq *0xdac5(%rip)        # feb0 <_ZNSt7__cxx1112basic_stringIcSt11char_traitsIcESaIcEED1Ev@GLIBCXX_3.4.21>
    23eb:	0f 1f 44 00 00       	nopl   0x0(%rax,%rax,1)

00000000000023f0 <__assert_fail@plt>:
    23f0:	f3 0f 1e fa          	endbr64 
    23f4:	f2 ff 25 bd da 00 00 	bnd jmpq *0xdabd(%rip)        # feb8 <__assert_fail@GLIBC_2.2.5>
    23fb:	0f 1f 44 00 00       	nopl   0x0(%rax,%rax,1)

0000000000002400 <getcontext@plt>:
    2400:	f3 0f 1e fa          	endbr64 
    2404:	f2 ff 25 b5 da 00 00 	bnd jmpq *0xdab5(%rip)        # fec0 <getcontext@GLIBC_2.2.5>
    240b:	0f 1f 44 00 00       	nopl   0x0(%rax,%rax,1)

0000000000002410 <_ZNSt7__cxx1112basic_stringIcSt11char_traitsIcESaIcEE13_M_set_lengthEm@plt>:
    2410:	f3 0f 1e fa          	endbr64 
    2414:	f2 ff 25 ad da 00 00 	bnd jmpq *0xdaad(%rip)        # fec8 <_ZNSt7__cxx1112basic_stringIcSt11char_traitsIcESaIcEE13_M_set_lengthEm@GLIBCXX_3.4.21>
    241b:	0f 1f 44 00 00       	nopl   0x0(%rax,%rax,1)

0000000000002420 <_ZSt19__throw_logic_errorPKc@plt>:
    2420:	f3 0f 1e fa          	endbr64 
    2424:	f2 ff 25 a5 da 00 00 	bnd jmpq *0xdaa5(%rip)        # fed0 <_ZSt19__throw_logic_errorPKc@GLIBCXX_3.4>
    242b:	0f 1f 44 00 00       	nopl   0x0(%rax,%rax,1)

0000000000002430 <_ZNSt7__cxx1112basic_stringIcSt11char_traitsIcESaIcEE13_M_local_dataEv@plt>:
    2430:	f3 0f 1e fa          	endbr64 
    2434:	f2 ff 25 9d da 00 00 	bnd jmpq *0xda9d(%rip)        # fed8 <_ZNSt7__cxx1112basic_stringIcSt11char_traitsIcESaIcEE13_M_local_dataEv@GLIBCXX_3.4.21>
    243b:	0f 1f 44 00 00       	nopl   0x0(%rax,%rax,1)

0000000000002440 <memcpy@plt>:
    2440:	f3 0f 1e fa          	endbr64 
    2444:	f2 ff 25 95 da 00 00 	bnd jmpq *0xda95(%rip)        # fee0 <memcpy@GLIBC_2.14>
    244b:	0f 1f 44 00 00       	nopl   0x0(%rax,%rax,1)

0000000000002450 <_ZNSt7__cxx1112basic_stringIcSt11char_traitsIcESaIcEE7_M_dataEPc@plt>:
    2450:	f3 0f 1e fa          	endbr64 
    2454:	f2 ff 25 8d da 00 00 	bnd jmpq *0xda8d(%rip)        # fee8 <_ZNSt7__cxx1112basic_stringIcSt11char_traitsIcESaIcEE7_M_dataEPc@GLIBCXX_3.4.21>
    245b:	0f 1f 44 00 00       	nopl   0x0(%rax,%rax,1)

0000000000002460 <__cxa_atexit@plt>:
    2460:	f3 0f 1e fa          	endbr64 
    2464:	f2 ff 25 85 da 00 00 	bnd jmpq *0xda85(%rip)        # fef0 <__cxa_atexit@GLIBC_2.2.5>
    246b:	0f 1f 44 00 00       	nopl   0x0(%rax,%rax,1)

0000000000002470 <_ZdlPv@plt>:
    2470:	f3 0f 1e fa          	endbr64 
    2474:	f2 ff 25 7d da 00 00 	bnd jmpq *0xda7d(%rip)        # fef8 <_ZdlPv@GLIBCXX_3.4>
    247b:	0f 1f 44 00 00       	nopl   0x0(%rax,%rax,1)

0000000000002480 <_ZStlsISt11char_traitsIcEERSt13basic_ostreamIcT_ES5_PKc@plt>:
    2480:	f3 0f 1e fa          	endbr64 
    2484:	f2 ff 25 75 da 00 00 	bnd jmpq *0xda75(%rip)        # ff00 <_ZStlsISt11char_traitsIcEERSt13basic_ostreamIcT_ES5_PKc@GLIBCXX_3.4>
    248b:	0f 1f 44 00 00       	nopl   0x0(%rax,%rax,1)

0000000000002490 <_Znwm@plt>:
    2490:	f3 0f 1e fa          	endbr64 
    2494:	f2 ff 25 6d da 00 00 	bnd jmpq *0xda6d(%rip)        # ff08 <_Znwm@GLIBCXX_3.4>
    249b:	0f 1f 44 00 00       	nopl   0x0(%rax,%rax,1)

00000000000024a0 <_ZdlPvm@plt>:
    24a0:	f3 0f 1e fa          	endbr64 
    24a4:	f2 ff 25 65 da 00 00 	bnd jmpq *0xda65(%rip)        # ff10 <_ZdlPvm@CXXABI_1.3.9>
    24ab:	0f 1f 44 00 00       	nopl   0x0(%rax,%rax,1)

00000000000024b0 <_ZNSolsEPFRSoS_E@plt>:
    24b0:	f3 0f 1e fa          	endbr64 
    24b4:	f2 ff 25 5d da 00 00 	bnd jmpq *0xda5d(%rip)        # ff18 <_ZNSolsEPFRSoS_E@GLIBCXX_3.4>
    24bb:	0f 1f 44 00 00       	nopl   0x0(%rax,%rax,1)

00000000000024c0 <_ZNSt7__cxx1112basic_stringIcSt11char_traitsIcESaIcEE12_Alloc_hiderC1EPcRKS3_@plt>:
    24c0:	f3 0f 1e fa          	endbr64 
    24c4:	f2 ff 25 55 da 00 00 	bnd jmpq *0xda55(%rip)        # ff20 <_ZNSt7__cxx1112basic_stringIcSt11char_traitsIcESaIcEE12_Alloc_hiderC1EPcRKS3_@GLIBCXX_3.4.21>
    24cb:	0f 1f 44 00 00       	nopl   0x0(%rax,%rax,1)

00000000000024d0 <_ZNSaIcED1Ev@plt>:
    24d0:	f3 0f 1e fa          	endbr64 
    24d4:	f2 ff 25 4d da 00 00 	bnd jmpq *0xda4d(%rip)        # ff28 <_ZNSaIcED1Ev@GLIBCXX_3.4>
    24db:	0f 1f 44 00 00       	nopl   0x0(%rax,%rax,1)

00000000000024e0 <_ZNKSt7__cxx1112basic_stringIcSt11char_traitsIcESaIcEE7_M_dataEv@plt>:
    24e0:	f3 0f 1e fa          	endbr64 
    24e4:	f2 ff 25 45 da 00 00 	bnd jmpq *0xda45(%rip)        # ff30 <_ZNKSt7__cxx1112basic_stringIcSt11char_traitsIcESaIcEE7_M_dataEv@GLIBCXX_3.4.21>
    24eb:	0f 1f 44 00 00       	nopl   0x0(%rax,%rax,1)

00000000000024f0 <__stack_chk_fail@plt>:
    24f0:	f3 0f 1e fa          	endbr64 
    24f4:	f2 ff 25 3d da 00 00 	bnd jmpq *0xda3d(%rip)        # ff38 <__stack_chk_fail@GLIBC_2.4>
    24fb:	0f 1f 44 00 00       	nopl   0x0(%rax,%rax,1)

0000000000002500 <_ZNSt7__cxx1112basic_stringIcSt11char_traitsIcESaIcEE10_M_disposeEv@plt>:
    2500:	f3 0f 1e fa          	endbr64 
    2504:	f2 ff 25 35 da 00 00 	bnd jmpq *0xda35(%rip)        # ff40 <_ZNSt7__cxx1112basic_stringIcSt11char_traitsIcESaIcEE10_M_disposeEv@GLIBCXX_3.4.21>
    250b:	0f 1f 44 00 00       	nopl   0x0(%rax,%rax,1)

0000000000002510 <_ZNKSt8__detail20_Prime_rehash_policy14_M_need_rehashEmmm@plt>:
    2510:	f3 0f 1e fa          	endbr64 
    2514:	f2 ff 25 2d da 00 00 	bnd jmpq *0xda2d(%rip)        # ff48 <_ZNKSt8__detail20_Prime_rehash_policy14_M_need_rehashEmmm@GLIBCXX_3.4.18>
    251b:	0f 1f 44 00 00       	nopl   0x0(%rax,%rax,1)

0000000000002520 <strcmp@plt>:
    2520:	f3 0f 1e fa          	endbr64 
    2524:	f2 ff 25 25 da 00 00 	bnd jmpq *0xda25(%rip)        # ff50 <strcmp@GLIBC_2.2.5>
    252b:	0f 1f 44 00 00       	nopl   0x0(%rax,%rax,1)

0000000000002530 <__cxa_rethrow@plt>:
    2530:	f3 0f 1e fa          	endbr64 
    2534:	f2 ff 25 1d da 00 00 	bnd jmpq *0xda1d(%rip)        # ff58 <__cxa_rethrow@CXXABI_1.3>
    253b:	0f 1f 44 00 00       	nopl   0x0(%rax,%rax,1)

0000000000002540 <_ZNSt8ios_base4InitC1Ev@plt>:
    2540:	f3 0f 1e fa          	endbr64 
    2544:	f2 ff 25 15 da 00 00 	bnd jmpq *0xda15(%rip)        # ff60 <_ZNSt8ios_base4InitC1Ev@GLIBCXX_3.4>
    254b:	0f 1f 44 00 00       	nopl   0x0(%rax,%rax,1)

0000000000002550 <puts@plt>:
    2550:	f3 0f 1e fa          	endbr64 
    2554:	f2 ff 25 0d da 00 00 	bnd jmpq *0xda0d(%rip)        # ff68 <puts@GLIBC_2.2.5>
    255b:	0f 1f 44 00 00       	nopl   0x0(%rax,%rax,1)

0000000000002560 <_ZNSt8bad_castD2Ev@plt>:
    2560:	f3 0f 1e fa          	endbr64 
    2564:	f2 ff 25 05 da 00 00 	bnd jmpq *0xda05(%rip)        # ff70 <_ZNSt8bad_castD2Ev@GLIBCXX_3.4>
    256b:	0f 1f 44 00 00       	nopl   0x0(%rax,%rax,1)

0000000000002570 <memmove@plt>:
    2570:	f3 0f 1e fa          	endbr64 
    2574:	f2 ff 25 fd d9 00 00 	bnd jmpq *0xd9fd(%rip)        # ff78 <memmove@GLIBC_2.2.5>
    257b:	0f 1f 44 00 00       	nopl   0x0(%rax,%rax,1)

0000000000002580 <__cxa_end_catch@plt>:
    2580:	f3 0f 1e fa          	endbr64 
    2584:	f2 ff 25 f5 d9 00 00 	bnd jmpq *0xd9f5(%rip)        # ff80 <__cxa_end_catch@CXXABI_1.3>
    258b:	0f 1f 44 00 00       	nopl   0x0(%rax,%rax,1)

0000000000002590 <__cxa_throw@plt>:
    2590:	f3 0f 1e fa          	endbr64 
    2594:	f2 ff 25 ed d9 00 00 	bnd jmpq *0xd9ed(%rip)        # ff88 <__cxa_throw@CXXABI_1.3>
    259b:	0f 1f 44 00 00       	nopl   0x0(%rax,%rax,1)

00000000000025a0 <_Unwind_Resume@plt>:
    25a0:	f3 0f 1e fa          	endbr64 
    25a4:	f2 ff 25 e5 d9 00 00 	bnd jmpq *0xd9e5(%rip)        # ff90 <_Unwind_Resume@GCC_3.0>
    25ab:	0f 1f 44 00 00       	nopl   0x0(%rax,%rax,1)

00000000000025b0 <_ZNSaIcEC1Ev@plt>:
    25b0:	f3 0f 1e fa          	endbr64 
    25b4:	f2 ff 25 dd d9 00 00 	bnd jmpq *0xd9dd(%rip)        # ff98 <_ZNSaIcEC1Ev@GLIBCXX_3.4>
    25bb:	0f 1f 44 00 00       	nopl   0x0(%rax,%rax,1)

00000000000025c0 <_ZNSt7__cxx1112basic_stringIcSt11char_traitsIcESaIcEE9_M_createERmm@plt>:
    25c0:	f3 0f 1e fa          	endbr64 
    25c4:	f2 ff 25 d5 d9 00 00 	bnd jmpq *0xd9d5(%rip)        # ffa0 <_ZNSt7__cxx1112basic_stringIcSt11char_traitsIcESaIcEE9_M_createERmm@GLIBCXX_3.4.21>
    25cb:	0f 1f 44 00 00       	nopl   0x0(%rax,%rax,1)

00000000000025d0 <_ZNSt7__cxx1112basic_stringIcSt11char_traitsIcESaIcEE11_M_capacityEm@plt>:
    25d0:	f3 0f 1e fa          	endbr64 
    25d4:	f2 ff 25 cd d9 00 00 	bnd jmpq *0xd9cd(%rip)        # ffa8 <_ZNSt7__cxx1112basic_stringIcSt11char_traitsIcESaIcEE11_M_capacityEm@GLIBCXX_3.4.21>
    25db:	0f 1f 44 00 00       	nopl   0x0(%rax,%rax,1)

Disassembly of section .text:

00000000000025e0 <_start>:
    25e0:	f3 0f 1e fa          	endbr64 
    25e4:	31 ed                	xor    %ebp,%ebp
    25e6:	49 89 d1             	mov    %rdx,%r9
    25e9:	5e                   	pop    %rsi
    25ea:	48 89 e2             	mov    %rsp,%rdx
    25ed:	48 83 e4 f0          	and    $0xfffffffffffffff0,%rsp
    25f1:	50                   	push   %rax
    25f2:	54                   	push   %rsp
    25f3:	4c 8d 05 66 76 00 00 	lea    0x7666(%rip),%r8        # 9c60 <__libc_csu_fini>
    25fa:	48 8d 0d ef 75 00 00 	lea    0x75ef(%rip),%rcx        # 9bf0 <__libc_csu_init>
    2601:	48 8d 3d 5d 54 00 00 	lea    0x545d(%rip),%rdi        # 7a65 <main>
    2608:	ff 15 ca d9 00 00    	callq  *0xd9ca(%rip)        # ffd8 <__libc_start_main@GLIBC_2.2.5>
    260e:	f4                   	hlt    
    260f:	90                   	nop

0000000000002610 <deregister_tm_clones>:
    2610:	48 8d 3d 01 da 00 00 	lea    0xda01(%rip),%rdi        # 10018 <__TMC_END__>
    2617:	48 8d 05 fa d9 00 00 	lea    0xd9fa(%rip),%rax        # 10018 <__TMC_END__>
    261e:	48 39 f8             	cmp    %rdi,%rax
    2621:	74 15                	je     2638 <deregister_tm_clones+0x28>
    2623:	48 8b 05 a6 d9 00 00 	mov    0xd9a6(%rip),%rax        # ffd0 <_ITM_deregisterTMCloneTable>
    262a:	48 85 c0             	test   %rax,%rax
    262d:	74 09                	je     2638 <deregister_tm_clones+0x28>
    262f:	ff e0                	jmpq   *%rax
    2631:	0f 1f 80 00 00 00 00 	nopl   0x0(%rax)
    2638:	c3                   	retq   
    2639:	0f 1f 80 00 00 00 00 	nopl   0x0(%rax)

0000000000002640 <register_tm_clones>:
    2640:	48 8d 3d d1 d9 00 00 	lea    0xd9d1(%rip),%rdi        # 10018 <__TMC_END__>
    2647:	48 8d 35 ca d9 00 00 	lea    0xd9ca(%rip),%rsi        # 10018 <__TMC_END__>
    264e:	48 29 fe             	sub    %rdi,%rsi
    2651:	48 89 f0             	mov    %rsi,%rax
    2654:	48 c1 ee 3f          	shr    $0x3f,%rsi
    2658:	48 c1 f8 03          	sar    $0x3,%rax
    265c:	48 01 c6             	add    %rax,%rsi
    265f:	48 d1 fe             	sar    %rsi
    2662:	74 14                	je     2678 <register_tm_clones+0x38>
    2664:	48 8b 05 7d d9 00 00 	mov    0xd97d(%rip),%rax        # ffe8 <_ITM_registerTMCloneTable>
    266b:	48 85 c0             	test   %rax,%rax
    266e:	74 08                	je     2678 <register_tm_clones+0x38>
    2670:	ff e0                	jmpq   *%rax
    2672:	66 0f 1f 44 00 00    	nopw   0x0(%rax,%rax,1)
    2678:	c3                   	retq   
    2679:	0f 1f 80 00 00 00 00 	nopl   0x0(%rax)

0000000000002680 <__do_global_dtors_aux>:
    2680:	f3 0f 1e fa          	endbr64 
    2684:	80 3d c5 da 00 00 00 	cmpb   $0x0,0xdac5(%rip)        # 10150 <completed.8061>
    268b:	75 2b                	jne    26b8 <__do_global_dtors_aux+0x38>
    268d:	55                   	push   %rbp
    268e:	48 83 3d 1a d9 00 00 	cmpq   $0x0,0xd91a(%rip)        # ffb0 <__cxa_finalize@GLIBC_2.2.5>
    2695:	00 
    2696:	48 89 e5             	mov    %rsp,%rbp
    2699:	74 0c                	je     26a7 <__do_global_dtors_aux+0x27>
    269b:	48 8b 3d 66 d9 00 00 	mov    0xd966(%rip),%rdi        # 10008 <__dso_handle>
    26a2:	e8 59 fc ff ff       	callq  2300 <__cxa_finalize@plt>
    26a7:	e8 64 ff ff ff       	callq  2610 <deregister_tm_clones>
    26ac:	c6 05 9d da 00 00 01 	movb   $0x1,0xda9d(%rip)        # 10150 <completed.8061>
    26b3:	5d                   	pop    %rbp
    26b4:	c3                   	retq   
    26b5:	0f 1f 00             	nopl   (%rax)
    26b8:	c3                   	retq   
    26b9:	0f 1f 80 00 00 00 00 	nopl   0x0(%rax)

00000000000026c0 <frame_dummy>:
    26c0:	f3 0f 1e fa          	endbr64 
    26c4:	e9 77 ff ff ff       	jmpq   2640 <register_tm_clones>
    26c9:	90                   	nop

00000000000026ca <_ZL18__gthread_active_pv>:
    26ca:	55                   	push   %rbp
    26cb:	48 89 e5             	mov    %rsp,%rbp
    26ce:	ba 01 00 00 00       	mov    $0x1,%edx
    26d3:	48 8b 05 ee d8 00 00 	mov    0xd8ee(%rip),%rax        # ffc8 <__pthread_key_create>
    26da:	48 85 c0             	test   %rax,%rax
    26dd:	75 05                	jne    26e4 <_ZL18__gthread_active_pv+0x1a>
    26df:	ba 00 00 00 00       	mov    $0x0,%edx
    26e4:	0f b6 c2             	movzbl %dl,%eax
    26e7:	5d                   	pop    %rbp
    26e8:	c3                   	retq   
    26e9:	90                   	nop

00000000000026ea <_ZN15coroutine_mimic9CoroutineC1EPNS_9SchedulerESt8functionIFvS2_St3anyEES4_>:
    26ea:	f3 0f 1e fa          	endbr64 
    26ee:	55                   	push   %rbp
    26ef:	48 89 e5             	mov    %rsp,%rbp
    26f2:	53                   	push   %rbx
    26f3:	48 83 ec 38          	sub    $0x38,%rsp
    26f7:	48 89 7d d8          	mov    %rdi,-0x28(%rbp)
    26fb:	48 89 75 d0          	mov    %rsi,-0x30(%rbp)
    26ff:	48 89 55 c8          	mov    %rdx,-0x38(%rbp)
    2703:	48 89 4d c0          	mov    %rcx,-0x40(%rbp)
    2707:	64 48 8b 04 25 28 00 	mov    %fs:0x28,%rax
    270e:	00 00 
    2710:	48 89 45 e8          	mov    %rax,-0x18(%rbp)
    2714:	31 c0                	xor    %eax,%eax
    2716:	48 8b 45 d8          	mov    -0x28(%rbp),%rax
    271a:	48 8b 55 d0          	mov    -0x30(%rbp),%rdx
    271e:	48 89 10             	mov    %rdx,(%rax)
    2721:	48 8b 45 d8          	mov    -0x28(%rbp),%rax
    2725:	48 8d 50 08          	lea    0x8(%rax),%rdx
    2729:	b8 00 00 00 00       	mov    $0x0,%eax
    272e:	b9 79 00 00 00       	mov    $0x79,%ecx
    2733:	48 89 d7             	mov    %rdx,%rdi
    2736:	f3 48 ab             	rep stos %rax,%es:(%rdi)
    2739:	48 8b 45 d8          	mov    -0x28(%rbp),%rax
    273d:	48 c7 80 d0 03 00 00 	movq   $0x0,0x3d0(%rax)
    2744:	00 00 00 00 
    2748:	48 8b 45 d8          	mov    -0x28(%rbp),%rax
    274c:	48 c7 80 d8 03 00 00 	movq   $0x0,0x3d8(%rax)
    2753:	00 00 00 00 
    2757:	48 8b 45 d8          	mov    -0x28(%rbp),%rax
    275b:	48 05 e0 03 00 00    	add    $0x3e0,%rax
    2761:	be 00 00 00 00       	mov    $0x0,%esi
    2766:	48 89 c7             	mov    %rax,%rdi
    2769:	e8 4e 16 00 00       	callq  3dbc <_ZNSt10unique_ptrIhSt14default_deleteIhEEC1IS1_vEEDn>
    276e:	48 8b 45 d8          	mov    -0x28(%rbp),%rax
    2772:	c7 80 e8 03 00 00 01 	movl   $0x1,0x3e8(%rax)
    2779:	00 00 00 
    277c:	48 8b 45 d8          	mov    -0x28(%rbp),%rax
    2780:	48 8d 90 f0 03 00 00 	lea    0x3f0(%rax),%rdx
    2787:	48 8b 45 c8          	mov    -0x38(%rbp),%rax
    278b:	48 89 c6             	mov    %rax,%rsi
    278e:	48 89 d7             	mov    %rdx,%rdi
    2791:	e8 be 16 00 00       	callq  3e54 <_ZNSt8functionIFvPN15coroutine_mimic9SchedulerESt3anyEEC1ERKS5_>
    2796:	48 8b 45 d8          	mov    -0x28(%rbp),%rax
    279a:	48 8d 90 10 04 00 00 	lea    0x410(%rax),%rdx
    27a1:	48 8b 45 c0          	mov    -0x40(%rbp),%rax
    27a5:	48 89 c6             	mov    %rax,%rsi
    27a8:	48 89 d7             	mov    %rdx,%rdi
    27ab:	e8 0c 10 00 00       	callq  37bc <_ZNSt3anyC1ERKS_>
    27b0:	8b 05 9e d9 00 00    	mov    0xd99e(%rip),%eax        # 10154 <_ZN15coroutine_mimic9Coroutine3_idE>
    27b6:	48 8b 55 d8          	mov    -0x28(%rbp),%rdx
    27ba:	48 81 c2 20 04 00 00 	add    $0x420,%rdx
    27c1:	89 c6                	mov    %eax,%esi
    27c3:	48 89 d7             	mov    %rdx,%rdi
    27c6:	e8 45 0e 00 00       	callq  3610 <_ZNSt7__cxx119to_stringEi>
    27cb:	8b 05 83 d9 00 00    	mov    0xd983(%rip),%eax        # 10154 <_ZN15coroutine_mimic9Coroutine3_idE>
    27d1:	83 c0 01             	add    $0x1,%eax
    27d4:	89 05 7a d9 00 00    	mov    %eax,0xd97a(%rip)        # 10154 <_ZN15coroutine_mimic9Coroutine3_idE>
    27da:	90                   	nop
    27db:	48 8b 45 e8          	mov    -0x18(%rbp),%rax
    27df:	64 48 33 04 25 28 00 	xor    %fs:0x28,%rax
    27e6:	00 00 
    27e8:	74 61                	je     284b <_ZN15coroutine_mimic9CoroutineC1EPNS_9SchedulerESt8functionIFvS2_St3anyEES4_+0x161>
    27ea:	eb 5a                	jmp    2846 <_ZN15coroutine_mimic9CoroutineC1EPNS_9SchedulerESt8functionIFvS2_St3anyEES4_+0x15c>
    27ec:	f3 0f 1e fa          	endbr64 
    27f0:	48 89 c3             	mov    %rax,%rbx
    27f3:	48 8b 45 d8          	mov    -0x28(%rbp),%rax
    27f7:	48 05 10 04 00 00    	add    $0x410,%rax
    27fd:	48 89 c7             	mov    %rax,%rdi
    2800:	e8 43 10 00 00       	callq  3848 <_ZNSt3anyD1Ev>
    2805:	eb 07                	jmp    280e <_ZN15coroutine_mimic9CoroutineC1EPNS_9SchedulerESt8functionIFvS2_St3anyEES4_+0x124>
    2807:	f3 0f 1e fa          	endbr64 
    280b:	48 89 c3             	mov    %rax,%rbx
    280e:	48 8b 45 d8          	mov    -0x28(%rbp),%rax
    2812:	48 05 f0 03 00 00    	add    $0x3f0,%rax
    2818:	48 89 c7             	mov    %rax,%rdi
    281b:	e8 c4 10 00 00       	callq  38e4 <_ZNSt8functionIFvPN15coroutine_mimic9SchedulerESt3anyEED1Ev>
    2820:	eb 07                	jmp    2829 <_ZN15coroutine_mimic9CoroutineC1EPNS_9SchedulerESt8functionIFvS2_St3anyEES4_+0x13f>
    2822:	f3 0f 1e fa          	endbr64 
    2826:	48 89 c3             	mov    %rax,%rbx
    2829:	48 8b 45 d8          	mov    -0x28(%rbp),%rax
    282d:	48 05 e0 03 00 00    	add    $0x3e0,%rax
    2833:	48 89 c7             	mov    %rax,%rdi
    2836:	e8 af 15 00 00       	callq  3dea <_ZNSt10unique_ptrIhSt14default_deleteIhEED1Ev>
    283b:	48 89 d8             	mov    %rbx,%rax
    283e:	48 89 c7             	mov    %rax,%rdi
    2841:	e8 5a fd ff ff       	callq  25a0 <_Unwind_Resume@plt>
    2846:	e8 a5 fc ff ff       	callq  24f0 <__stack_chk_fail@plt>
    284b:	48 83 c4 38          	add    $0x38,%rsp
    284f:	5b                   	pop    %rbx
    2850:	5d                   	pop    %rbp
    2851:	c3                   	retq   

0000000000002852 <_ZN15coroutine_mimic9CoroutineD1Ev>:
    2852:	f3 0f 1e fa          	endbr64 
    2856:	55                   	push   %rbp
    2857:	48 89 e5             	mov    %rsp,%rbp
    285a:	48 83 ec 10          	sub    $0x10,%rsp
    285e:	48 89 7d f8          	mov    %rdi,-0x8(%rbp)
    2862:	48 8b 45 f8          	mov    -0x8(%rbp),%rax
    2866:	48 05 20 04 00 00    	add    $0x420,%rax
    286c:	48 89 c7             	mov    %rax,%rdi
    286f:	e8 6c fb ff ff       	callq  23e0 <_ZNSt7__cxx1112basic_stringIcSt11char_traitsIcESaIcEED1Ev@plt>
    2874:	48 8b 45 f8          	mov    -0x8(%rbp),%rax
    2878:	48 05 10 04 00 00    	add    $0x410,%rax
    287e:	48 89 c7             	mov    %rax,%rdi
    2881:	e8 c2 0f 00 00       	callq  3848 <_ZNSt3anyD1Ev>
    2886:	48 8b 45 f8          	mov    -0x8(%rbp),%rax
    288a:	48 05 f0 03 00 00    	add    $0x3f0,%rax
    2890:	48 89 c7             	mov    %rax,%rdi
    2893:	e8 4c 10 00 00       	callq  38e4 <_ZNSt8functionIFvPN15coroutine_mimic9SchedulerESt3anyEED1Ev>
    2898:	48 8b 45 f8          	mov    -0x8(%rbp),%rax
    289c:	48 05 e0 03 00 00    	add    $0x3e0,%rax
    28a2:	48 89 c7             	mov    %rax,%rdi
    28a5:	e8 40 15 00 00       	callq  3dea <_ZNSt10unique_ptrIhSt14default_deleteIhEED1Ev>
    28aa:	90                   	nop
    28ab:	c9                   	leaveq 
    28ac:	c3                   	retq   
    28ad:	90                   	nop

00000000000028ae <_ZN15coroutine_mimic9SchedulerC1Ev>:
    28ae:	f3 0f 1e fa          	endbr64 
    28b2:	55                   	push   %rbp
    28b3:	48 89 e5             	mov    %rsp,%rbp
    28b6:	53                   	push   %rbx
    28b7:	48 83 ec 28          	sub    $0x28,%rsp
    28bb:	48 89 7d d8          	mov    %rdi,-0x28(%rbp)
    28bf:	64 48 8b 04 25 28 00 	mov    %fs:0x28,%rax
    28c6:	00 00 
    28c8:	48 89 45 e8          	mov    %rax,-0x18(%rbp)
    28cc:	31 c0                	xor    %eax,%eax
    28ce:	48 8b 45 d8          	mov    -0x28(%rbp),%rax
    28d2:	48 c7 00 00 00 00 00 	movq   $0x0,(%rax)
    28d9:	48 c7 40 08 00 00 00 	movq   $0x0,0x8(%rax)
    28e0:	00 
    28e1:	48 c7 40 10 00 00 00 	movq   $0x0,0x10(%rax)
    28e8:	00 
    28e9:	48 c7 40 18 00 00 00 	movq   $0x0,0x18(%rax)
    28f0:	00 
    28f1:	48 c7 40 20 00 00 00 	movq   $0x0,0x20(%rax)
    28f8:	00 
    28f9:	48 c7 40 28 00 00 00 	movq   $0x0,0x28(%rax)
    2900:	00 
    2901:	48 c7 40 30 00 00 00 	movq   $0x0,0x30(%rax)
    2908:	00 
    2909:	48 8b 45 d8          	mov    -0x28(%rbp),%rax
    290d:	48 89 c7             	mov    %rax,%rdi
    2910:	e8 e9 10 00 00       	callq  39fe <_ZNSt13unordered_mapImSt10shared_ptrIN15coroutine_mimic9CoroutineEESt4hashImESt8equal_toImESaISt4pairIKmS3_EEEC1Ev>
    2915:	48 8b 45 d8          	mov    -0x28(%rbp),%rax
    2919:	48 8d 58 38          	lea    0x38(%rax),%rbx
    291d:	bf 00 00 20 00       	mov    $0x200000,%edi
    2922:	e8 e9 f9 ff ff       	callq  2310 <_Znam@plt>
    2927:	48 89 c6             	mov    %rax,%rsi
    292a:	48 89 df             	mov    %rbx,%rdi
    292d:	e8 6e 16 00 00       	callq  3fa0 <_ZNSt10unique_ptrIhSt14default_deleteIhEEC1IS1_vEEPh>
    2932:	48 8b 45 d8          	mov    -0x28(%rbp),%rax
    2936:	48 8d 58 40          	lea    0x40(%rax),%rbx
    293a:	48 8b 45 d8          	mov    -0x28(%rbp),%rax
    293e:	48 89 c7             	mov    %rax,%rdi
    2941:	e8 a6 15 00 00       	callq  3eec <_ZNSt13unordered_mapImSt10shared_ptrIN15coroutine_mimic9CoroutineEESt4hashImESt8equal_toImESaISt4pairIKmS3_EEE3endEv>
    2946:	48 89 45 e0          	mov    %rax,-0x20(%rbp)
    294a:	48 8d 45 e0          	lea    -0x20(%rbp),%rax
    294e:	48 89 c6             	mov    %rax,%rsi
    2951:	48 89 df             	mov    %rbx,%rdi
    2954:	e8 71 16 00 00       	callq  3fca <_ZNSt8__detail20_Node_const_iteratorISt4pairIKmSt10shared_ptrIN15coroutine_mimic9CoroutineEEELb0ELb0EEC1ERKNS_14_Node_iteratorIS7_Lb0ELb0EEE>
    2959:	48 8b 45 d8          	mov    -0x28(%rbp),%rax
    295d:	48 8d 50 48          	lea    0x48(%rax),%rdx
    2961:	b8 00 00 00 00       	mov    $0x0,%eax
    2966:	b9 79 00 00 00       	mov    $0x79,%ecx
    296b:	48 89 d7             	mov    %rdx,%rdi
    296e:	f3 48 ab             	rep stos %rax,%es:(%rdi)
    2971:	48 8b 45 d8          	mov    -0x28(%rbp),%rax
    2975:	48 c7 80 10 04 00 00 	movq   $0x0,0x410(%rax)
    297c:	00 00 00 00 
    2980:	48 8b 45 d8          	mov    -0x28(%rbp),%rax
    2984:	48 83 c0 38          	add    $0x38,%rax
    2988:	48 89 c7             	mov    %rax,%rdi
    298b:	e8 7a 15 00 00       	callq  3f0a <_ZNKSt10unique_ptrIhSt14default_deleteIhEE3getEv>
    2990:	48 05 00 00 20 00    	add    $0x200000,%rax
    2996:	48 89 c2             	mov    %rax,%rdx
    2999:	48 8b 45 d8          	mov    -0x28(%rbp),%rax
    299d:	48 89 90 18 04 00 00 	mov    %rdx,0x418(%rax)
    29a4:	90                   	nop
    29a5:	48 8b 45 e8          	mov    -0x18(%rbp),%rax
    29a9:	64 48 33 04 25 28 00 	xor    %fs:0x28,%rax
    29b0:	00 00 
    29b2:	74 25                	je     29d9 <_ZN15coroutine_mimic9SchedulerC1Ev+0x12b>
    29b4:	eb 1e                	jmp    29d4 <_ZN15coroutine_mimic9SchedulerC1Ev+0x126>
    29b6:	f3 0f 1e fa          	endbr64 
    29ba:	48 89 c3             	mov    %rax,%rbx
    29bd:	48 8b 45 d8          	mov    -0x28(%rbp),%rax
    29c1:	48 89 c7             	mov    %rax,%rdi
    29c4:	e8 55 10 00 00       	callq  3a1e <_ZNSt13unordered_mapImSt10shared_ptrIN15coroutine_mimic9CoroutineEESt4hashImESt8equal_toImESaISt4pairIKmS3_EEED1Ev>
    29c9:	48 89 d8             	mov    %rbx,%rax
    29cc:	48 89 c7             	mov    %rax,%rdi
    29cf:	e8 cc fb ff ff       	callq  25a0 <_Unwind_Resume@plt>
    29d4:	e8 17 fb ff ff       	callq  24f0 <__stack_chk_fail@plt>
    29d9:	48 83 c4 28          	add    $0x28,%rsp
    29dd:	5b                   	pop    %rbx
    29de:	5d                   	pop    %rbp
    29df:	c3                   	retq   

00000000000029e0 <_ZN15coroutine_mimic9SchedulerD1Ev>:
    29e0:	f3 0f 1e fa          	endbr64 
    29e4:	55                   	push   %rbp
    29e5:	48 89 e5             	mov    %rsp,%rbp
    29e8:	48 83 ec 10          	sub    $0x10,%rsp
    29ec:	48 89 7d f8          	mov    %rdi,-0x8(%rbp)
    29f0:	48 8b 45 f8          	mov    -0x8(%rbp),%rax
    29f4:	48 89 c7             	mov    %rax,%rdi
    29f7:	e8 fc 15 00 00       	callq  3ff8 <_ZNSt13unordered_mapImSt10shared_ptrIN15coroutine_mimic9CoroutineEESt4hashImESt8equal_toImESaISt4pairIKmS3_EEE5clearEv>
    29fc:	48 8b 45 f8          	mov    -0x8(%rbp),%rax
    2a00:	48 83 c0 38          	add    $0x38,%rax
    2a04:	48 89 c7             	mov    %rax,%rdi
    2a07:	e8 de 13 00 00       	callq  3dea <_ZNSt10unique_ptrIhSt14default_deleteIhEED1Ev>
    2a0c:	48 8b 45 f8          	mov    -0x8(%rbp),%rax
    2a10:	48 89 c7             	mov    %rax,%rdi
    2a13:	e8 06 10 00 00       	callq  3a1e <_ZNSt13unordered_mapImSt10shared_ptrIN15coroutine_mimic9CoroutineEESt4hashImESt8equal_toImESaISt4pairIKmS3_EEED1Ev>
    2a18:	90                   	nop
    2a19:	c9                   	leaveq 
    2a1a:	c3                   	retq   
    2a1b:	90                   	nop

0000000000002a1c <_ZN15coroutine_mimic9Scheduler15CoroutineCreateESt8functionIFvPS0_St3anyEES3_>:
    2a1c:	f3 0f 1e fa          	endbr64 
    2a20:	55                   	push   %rbp
    2a21:	48 89 e5             	mov    %rsp,%rbp
    2a24:	53                   	push   %rbx
    2a25:	48 83 ec 58          	sub    $0x58,%rsp
    2a29:	48 89 7d b8          	mov    %rdi,-0x48(%rbp)
    2a2d:	48 89 75 b0          	mov    %rsi,-0x50(%rbp)
    2a31:	48 89 55 a8          	mov    %rdx,-0x58(%rbp)
    2a35:	64 48 8b 04 25 28 00 	mov    %fs:0x28,%rax
    2a3c:	00 00 
    2a3e:	48 89 45 e8          	mov    %rax,-0x18(%rbp)
    2a42:	31 c0                	xor    %eax,%eax
    2a44:	48 8b 45 b8          	mov    -0x48(%rbp),%rax
    2a48:	48 8b 80 10 04 00 00 	mov    0x410(%rax),%rax
    2a4f:	48 8d 48 01          	lea    0x1(%rax),%rcx
    2a53:	48 8b 55 b8          	mov    -0x48(%rbp),%rdx
    2a57:	48 89 8a 10 04 00 00 	mov    %rcx,0x410(%rdx)
    2a5e:	48 89 45 c0          	mov    %rax,-0x40(%rbp)
    2a62:	48 8b 45 b8          	mov    -0x48(%rbp),%rax
    2a66:	48 89 45 c8          	mov    %rax,-0x38(%rbp)
    2a6a:	48 8d 45 d0          	lea    -0x30(%rbp),%rax
    2a6e:	48 8b 4d a8          	mov    -0x58(%rbp),%rcx
    2a72:	48 8b 55 b0          	mov    -0x50(%rbp),%rdx
    2a76:	48 8d 75 c8          	lea    -0x38(%rbp),%rsi
    2a7a:	48 89 c7             	mov    %rax,%rdi
    2a7d:	e8 95 15 00 00       	callq  4017 <_ZSt11make_sharedIN15coroutine_mimic9CoroutineEJPNS0_9SchedulerERSt8functionIFvS3_St3anyEERS5_EESt10shared_ptrIT_EDpOT0_>
    2a82:	48 8b 45 b8          	mov    -0x48(%rbp),%rax
    2a86:	48 8d 55 c0          	lea    -0x40(%rbp),%rdx
    2a8a:	48 89 d6             	mov    %rdx,%rsi
    2a8d:	48 89 c7             	mov    %rax,%rdi
    2a90:	e8 81 16 00 00       	callq  4116 <_ZNSt13unordered_mapImSt10shared_ptrIN15coroutine_mimic9CoroutineEESt4hashImESt8equal_toImESaISt4pairIKmS3_EEEixERS9_>
    2a95:	48 89 c2             	mov    %rax,%rdx
    2a98:	48 8d 45 d0          	lea    -0x30(%rbp),%rax
    2a9c:	48 89 c6             	mov    %rax,%rsi
    2a9f:	48 89 d7             	mov    %rdx,%rdi
    2aa2:	e8 1f 10 00 00       	callq  3ac6 <_ZNSt10shared_ptrIN15coroutine_mimic9CoroutineEEaSERKS2_>
    2aa7:	48 8b 5d c0          	mov    -0x40(%rbp),%rbx
    2aab:	48 8d 45 d0          	lea    -0x30(%rbp),%rax
    2aaf:	48 89 c7             	mov    %rax,%rdi
    2ab2:	e8 ab 0f 00 00       	callq  3a62 <_ZNSt10shared_ptrIN15coroutine_mimic9CoroutineEED1Ev>
    2ab7:	48 89 d8             	mov    %rbx,%rax
    2aba:	48 8b 5d e8          	mov    -0x18(%rbp),%rbx
    2abe:	64 48 33 1c 25 28 00 	xor    %fs:0x28,%rbx
    2ac5:	00 00 
    2ac7:	74 25                	je     2aee <_ZN15coroutine_mimic9Scheduler15CoroutineCreateESt8functionIFvPS0_St3anyEES3_+0xd2>
    2ac9:	eb 1e                	jmp    2ae9 <_ZN15coroutine_mimic9Scheduler15CoroutineCreateESt8functionIFvPS0_St3anyEES3_+0xcd>
    2acb:	f3 0f 1e fa          	endbr64 
    2acf:	48 89 c3             	mov    %rax,%rbx
    2ad2:	48 8d 45 d0          	lea    -0x30(%rbp),%rax
    2ad6:	48 89 c7             	mov    %rax,%rdi
    2ad9:	e8 84 0f 00 00       	callq  3a62 <_ZNSt10shared_ptrIN15coroutine_mimic9CoroutineEED1Ev>
    2ade:	48 89 d8             	mov    %rbx,%rax
    2ae1:	48 89 c7             	mov    %rax,%rdi
    2ae4:	e8 b7 fa ff ff       	callq  25a0 <_Unwind_Resume@plt>
    2ae9:	e8 02 fa ff ff       	callq  24f0 <__stack_chk_fail@plt>
    2aee:	48 83 c4 58          	add    $0x58,%rsp
    2af2:	5b                   	pop    %rbx
    2af3:	5d                   	pop    %rbp
    2af4:	c3                   	retq   
    2af5:	90                   	nop

0000000000002af6 <_ZN15coroutine_mimic9Scheduler15CoroutineResumeEm>:
    2af6:	f3 0f 1e fa          	endbr64 
    2afa:	55                   	push   %rbp
    2afb:	48 89 e5             	mov    %rsp,%rbp
    2afe:	41 55                	push   %r13
    2b00:	41 54                	push   %r12
    2b02:	53                   	push   %rbx
    2b03:	48 83 ec 78          	sub    $0x78,%rsp
    2b07:	48 89 bd 78 ff ff ff 	mov    %rdi,-0x88(%rbp)
    2b0e:	48 89 b5 70 ff ff ff 	mov    %rsi,-0x90(%rbp)
    2b15:	64 48 8b 04 25 28 00 	mov    %fs:0x28,%rax
    2b1c:	00 00 
    2b1e:	48 89 45 d8          	mov    %rax,-0x28(%rbp)
    2b22:	31 c0                	xor    %eax,%eax
    2b24:	48 8b 85 78 ff ff ff 	mov    -0x88(%rbp),%rax
    2b2b:	48 89 c7             	mov    %rax,%rdi
    2b2e:	e8 b9 13 00 00       	callq  3eec <_ZNSt13unordered_mapImSt10shared_ptrIN15coroutine_mimic9CoroutineEESt4hashImESt8equal_toImESaISt4pairIKmS3_EEE3endEv>
    2b33:	48 89 45 98          	mov    %rax,-0x68(%rbp)
    2b37:	48 8b 85 78 ff ff ff 	mov    -0x88(%rbp),%rax
    2b3e:	48 8d 95 70 ff ff ff 	lea    -0x90(%rbp),%rdx
    2b45:	48 89 d6             	mov    %rdx,%rsi
    2b48:	48 89 c7             	mov    %rax,%rdi
    2b4b:	e8 5c 16 00 00       	callq  41ac <_ZNSt13unordered_mapImSt10shared_ptrIN15coroutine_mimic9CoroutineEESt4hashImESt8equal_toImESaISt4pairIKmS3_EEE4findERS9_>
    2b50:	48 89 45 90          	mov    %rax,-0x70(%rbp)
    2b54:	48 8d 55 98          	lea    -0x68(%rbp),%rdx
    2b58:	48 8d 45 90          	lea    -0x70(%rbp),%rax
    2b5c:	48 89 d6             	mov    %rdx,%rsi
    2b5f:	48 89 c7             	mov    %rax,%rdi
    2b62:	e8 6e 16 00 00       	callq  41d5 <_ZNSt8__detailneISt4pairIKmSt10shared_ptrIN15coroutine_mimic9CoroutineEEELb0EEEbRKNS_19_Node_iterator_baseIT_XT0_EEESC_>
    2b67:	84 c0                	test   %al,%al
    2b69:	75 1f                	jne    2b8a <_ZN15coroutine_mimic9Scheduler15CoroutineResumeEm+0x94>
    2b6b:	48 8d 0d a6 74 00 00 	lea    0x74a6(%rip),%rcx        # a018 <_ZN6__pstl9execution2v1L5unseqE+0x6>
    2b72:	ba 3d 00 00 00       	mov    $0x3d,%edx
    2b77:	48 8d 35 e9 74 00 00 	lea    0x74e9(%rip),%rsi        # a067 <_ZN6__pstl9execution2v1L5unseqE+0x55>
    2b7e:	48 8d 3d f0 74 00 00 	lea    0x74f0(%rip),%rdi        # a075 <_ZN6__pstl9execution2v1L5unseqE+0x63>
    2b85:	e8 66 f8 ff ff       	callq  23f0 <__assert_fail@plt>
    2b8a:	48 8b 85 78 ff ff ff 	mov    -0x88(%rbp),%rax
    2b91:	48 8d 95 70 ff ff ff 	lea    -0x90(%rbp),%rdx
    2b98:	48 89 d6             	mov    %rdx,%rsi
    2b9b:	48 89 c7             	mov    %rax,%rdi
    2b9e:	e8 73 15 00 00       	callq  4116 <_ZNSt13unordered_mapImSt10shared_ptrIN15coroutine_mimic9CoroutineEESt4hashImESt8equal_toImESaISt4pairIKmS3_EEEixERS9_>
    2ba3:	48 89 c2             	mov    %rax,%rdx
    2ba6:	48 8d 45 c0          	lea    -0x40(%rbp),%rax
    2baa:	48 89 d6             	mov    %rdx,%rsi
    2bad:	48 89 c7             	mov    %rax,%rdi
    2bb0:	e8 7f 0f 00 00       	callq  3b34 <_ZNSt10shared_ptrIN15coroutine_mimic9CoroutineEEC1ERKS2_>
    2bb5:	48 8d 45 c0          	lea    -0x40(%rbp),%rax
    2bb9:	48 89 c7             	mov    %rax,%rdi
    2bbc:	e8 7b 16 00 00       	callq  423c <_ZNKSt19__shared_ptr_accessIN15coroutine_mimic9CoroutineELN9__gnu_cxx12_Lock_policyE2ELb0ELb0EEptEv>
    2bc1:	48 89 c7             	mov    %rax,%rdi
    2bc4:	e8 03 0d 00 00       	callq  38cc <_ZN15coroutine_mimic9Coroutine8getStateEv>
    2bc9:	89 45 84             	mov    %eax,-0x7c(%rbp)
    2bcc:	8b 45 84             	mov    -0x7c(%rbp),%eax
    2bcf:	83 f8 01             	cmp    $0x1,%eax
    2bd2:	74 0e                	je     2be2 <_ZN15coroutine_mimic9Scheduler15CoroutineResumeEm+0xec>
    2bd4:	83 f8 03             	cmp    $0x3,%eax
    2bd7:	0f 84 43 01 00 00    	je     2d20 <_ZN15coroutine_mimic9Scheduler15CoroutineResumeEm+0x22a>
    2bdd:	e9 35 02 00 00       	jmpq   2e17 <_ZN15coroutine_mimic9Scheduler15CoroutineResumeEm+0x321>
    2be2:	48 8d 45 c0          	lea    -0x40(%rbp),%rax
    2be6:	48 89 c7             	mov    %rax,%rdi
    2be9:	e8 4e 16 00 00       	callq  423c <_ZNKSt19__shared_ptr_accessIN15coroutine_mimic9CoroutineELN9__gnu_cxx12_Lock_policyE2ELb0ELb0EEptEv>
    2bee:	48 83 c0 08          	add    $0x8,%rax
    2bf2:	48 89 c7             	mov    %rax,%rdi
    2bf5:	e8 06 f8 ff ff       	callq  2400 <getcontext@plt>
    2bfa:	f3 0f 1e fa          	endbr64 
    2bfe:	48 8b 85 78 ff ff ff 	mov    -0x88(%rbp),%rax
    2c05:	48 83 c0 38          	add    $0x38,%rax
    2c09:	48 89 c7             	mov    %rax,%rdi
    2c0c:	e8 f9 12 00 00       	callq  3f0a <_ZNKSt10unique_ptrIhSt14default_deleteIhEE3getEv>
    2c11:	48 89 c3             	mov    %rax,%rbx
    2c14:	48 8d 45 c0          	lea    -0x40(%rbp),%rax
    2c18:	48 89 c7             	mov    %rax,%rdi
    2c1b:	e8 1c 16 00 00       	callq  423c <_ZNKSt19__shared_ptr_accessIN15coroutine_mimic9CoroutineELN9__gnu_cxx12_Lock_policyE2ELb0ELb0EEptEv>
    2c20:	48 89 58 18          	mov    %rbx,0x18(%rax)
    2c24:	48 8d 45 c0          	lea    -0x40(%rbp),%rax
    2c28:	48 89 c7             	mov    %rax,%rdi
    2c2b:	e8 0c 16 00 00       	callq  423c <_ZNKSt19__shared_ptr_accessIN15coroutine_mimic9CoroutineELN9__gnu_cxx12_Lock_policyE2ELb0ELb0EEptEv>
    2c30:	48 c7 40 28 00 00 20 	movq   $0x200000,0x28(%rax)
    2c37:	00 
    2c38:	48 8b 85 78 ff ff ff 	mov    -0x88(%rbp),%rax
    2c3f:	48 8d 58 48          	lea    0x48(%rax),%rbx
    2c43:	48 8d 45 c0          	lea    -0x40(%rbp),%rax
    2c47:	48 89 c7             	mov    %rax,%rdi
    2c4a:	e8 ed 15 00 00       	callq  423c <_ZNKSt19__shared_ptr_accessIN15coroutine_mimic9CoroutineELN9__gnu_cxx12_Lock_policyE2ELb0ELb0EEptEv>
    2c4f:	48 89 58 10          	mov    %rbx,0x10(%rax)
    2c53:	48 8d 45 c0          	lea    -0x40(%rbp),%rax
    2c57:	48 89 c7             	mov    %rax,%rdi
    2c5a:	e8 dd 15 00 00       	callq  423c <_ZNKSt19__shared_ptr_accessIN15coroutine_mimic9CoroutineELN9__gnu_cxx12_Lock_policyE2ELb0ELb0EEptEv>
    2c5f:	c7 80 e8 03 00 00 02 	movl   $0x2,0x3e8(%rax)
    2c66:	00 00 00 
    2c69:	48 8b 85 78 ff ff ff 	mov    -0x88(%rbp),%rax
    2c70:	48 8d 95 70 ff ff ff 	lea    -0x90(%rbp),%rdx
    2c77:	48 89 d6             	mov    %rdx,%rsi
    2c7a:	48 89 c7             	mov    %rax,%rdi
    2c7d:	e8 2a 15 00 00       	callq  41ac <_ZNSt13unordered_mapImSt10shared_ptrIN15coroutine_mimic9CoroutineEESt4hashImESt8equal_toImESaISt4pairIKmS3_EEE4findERS9_>
    2c82:	48 89 45 a0          	mov    %rax,-0x60(%rbp)
    2c86:	48 8d 55 a0          	lea    -0x60(%rbp),%rdx
    2c8a:	48 8d 45 a8          	lea    -0x58(%rbp),%rax
    2c8e:	48 89 d6             	mov    %rdx,%rsi
    2c91:	48 89 c7             	mov    %rax,%rdi
    2c94:	e8 31 13 00 00       	callq  3fca <_ZNSt8__detail20_Node_const_iteratorISt4pairIKmSt10shared_ptrIN15coroutine_mimic9CoroutineEEELb0ELb0EEC1ERKNS_14_Node_iteratorIS7_Lb0ELb0EEE>
    2c99:	48 8b 85 78 ff ff ff 	mov    -0x88(%rbp),%rax
    2ca0:	48 8b 55 a8          	mov    -0x58(%rbp),%rdx
    2ca4:	48 89 50 40          	mov    %rdx,0x40(%rax)
    2ca8:	48 8b 85 78 ff ff ff 	mov    -0x88(%rbp),%rax
    2caf:	89 45 88             	mov    %eax,-0x78(%rbp)
    2cb2:	48 8b 85 78 ff ff ff 	mov    -0x88(%rbp),%rax
    2cb9:	48 c1 e8 20          	shr    $0x20,%rax
    2cbd:	89 45 8c             	mov    %eax,-0x74(%rbp)
    2cc0:	48 8d 45 c0          	lea    -0x40(%rbp),%rax
    2cc4:	48 89 c7             	mov    %rax,%rdi
    2cc7:	e8 70 15 00 00       	callq  423c <_ZNKSt19__shared_ptr_accessIN15coroutine_mimic9CoroutineELN9__gnu_cxx12_Lock_policyE2ELb0ELb0EEptEv>
    2ccc:	48 8d 78 08          	lea    0x8(%rax),%rdi
    2cd0:	8b 55 8c             	mov    -0x74(%rbp),%edx
    2cd3:	8b 45 88             	mov    -0x78(%rbp),%eax
    2cd6:	41 89 d0             	mov    %edx,%r8d
    2cd9:	89 c1                	mov    %eax,%ecx
    2cdb:	ba 02 00 00 00       	mov    $0x2,%edx
    2ce0:	48 8d 35 27 05 00 00 	lea    0x527(%rip),%rsi        # 320e <_ZN15coroutine_mimic9Scheduler8ScheduleEjj>
    2ce7:	b8 00 00 00 00       	mov    $0x0,%eax
    2cec:	e8 6f f6 ff ff       	callq  2360 <makecontext@plt>
    2cf1:	48 8d 45 c0          	lea    -0x40(%rbp),%rax
    2cf5:	48 89 c7             	mov    %rax,%rdi
    2cf8:	e8 3f 15 00 00       	callq  423c <_ZNKSt19__shared_ptr_accessIN15coroutine_mimic9CoroutineELN9__gnu_cxx12_Lock_policyE2ELb0ELb0EEptEv>
    2cfd:	48 8d 50 08          	lea    0x8(%rax),%rdx
    2d01:	48 8b 85 78 ff ff ff 	mov    -0x88(%rbp),%rax
    2d08:	48 83 c0 48          	add    $0x48,%rax
    2d0c:	48 89 d6             	mov    %rdx,%rsi
    2d0f:	48 89 c7             	mov    %rax,%rdi
    2d12:	e8 29 f6 ff ff       	callq  2340 <swapcontext@plt>
    2d17:	f3 0f 1e fa          	endbr64 
    2d1b:	e9 f8 00 00 00       	jmpq   2e18 <_ZN15coroutine_mimic9Scheduler15CoroutineResumeEm+0x322>
    2d20:	48 8d 45 c0          	lea    -0x40(%rbp),%rax
    2d24:	48 89 c7             	mov    %rax,%rdi
    2d27:	e8 10 15 00 00       	callq  423c <_ZNKSt19__shared_ptr_accessIN15coroutine_mimic9CoroutineELN9__gnu_cxx12_Lock_policyE2ELb0ELb0EEptEv>
    2d2c:	48 8b 80 d0 03 00 00 	mov    0x3d0(%rax),%rax
    2d33:	49 89 c5             	mov    %rax,%r13
    2d36:	48 8d 45 c0          	lea    -0x40(%rbp),%rax
    2d3a:	48 89 c7             	mov    %rax,%rdi
    2d3d:	e8 fa 14 00 00       	callq  423c <_ZNKSt19__shared_ptr_accessIN15coroutine_mimic9CoroutineELN9__gnu_cxx12_Lock_policyE2ELb0ELb0EEptEv>
    2d42:	48 05 e0 03 00 00    	add    $0x3e0,%rax
    2d48:	48 89 c7             	mov    %rax,%rdi
    2d4b:	e8 ba 11 00 00       	callq  3f0a <_ZNKSt10unique_ptrIhSt14default_deleteIhEE3getEv>
    2d50:	49 89 c4             	mov    %rax,%r12
    2d53:	48 8b 85 78 ff ff ff 	mov    -0x88(%rbp),%rax
    2d5a:	48 83 c0 38          	add    $0x38,%rax
    2d5e:	48 89 c7             	mov    %rax,%rdi
    2d61:	e8 a4 11 00 00       	callq  3f0a <_ZNKSt10unique_ptrIhSt14default_deleteIhEE3getEv>
    2d66:	48 89 c3             	mov    %rax,%rbx
    2d69:	48 8d 45 c0          	lea    -0x40(%rbp),%rax
    2d6d:	48 89 c7             	mov    %rax,%rdi
    2d70:	e8 c7 14 00 00       	callq  423c <_ZNKSt19__shared_ptr_accessIN15coroutine_mimic9CoroutineELN9__gnu_cxx12_Lock_policyE2ELb0ELb0EEptEv>
    2d75:	48 8b 80 d0 03 00 00 	mov    0x3d0(%rax),%rax
    2d7c:	ba 00 00 20 00       	mov    $0x200000,%edx
    2d81:	48 29 c2             	sub    %rax,%rdx
    2d84:	48 89 d0             	mov    %rdx,%rax
    2d87:	48 01 d8             	add    %rbx,%rax
    2d8a:	4c 89 ea             	mov    %r13,%rdx
    2d8d:	4c 89 e6             	mov    %r12,%rsi
    2d90:	48 89 c7             	mov    %rax,%rdi
    2d93:	e8 a8 f6 ff ff       	callq  2440 <memcpy@plt>
    2d98:	48 8b 85 78 ff ff ff 	mov    -0x88(%rbp),%rax
    2d9f:	48 8d 95 70 ff ff ff 	lea    -0x90(%rbp),%rdx
    2da6:	48 89 d6             	mov    %rdx,%rsi
    2da9:	48 89 c7             	mov    %rax,%rdi
    2dac:	e8 fb 13 00 00       	callq  41ac <_ZNSt13unordered_mapImSt10shared_ptrIN15coroutine_mimic9CoroutineEESt4hashImESt8equal_toImESaISt4pairIKmS3_EEE4findERS9_>
    2db1:	48 89 45 b0          	mov    %rax,-0x50(%rbp)
    2db5:	48 8d 55 b0          	lea    -0x50(%rbp),%rdx
    2db9:	48 8d 45 b8          	lea    -0x48(%rbp),%rax
    2dbd:	48 89 d6             	mov    %rdx,%rsi
    2dc0:	48 89 c7             	mov    %rax,%rdi
    2dc3:	e8 02 12 00 00       	callq  3fca <_ZNSt8__detail20_Node_const_iteratorISt4pairIKmSt10shared_ptrIN15coroutine_mimic9CoroutineEEELb0ELb0EEC1ERKNS_14_Node_iteratorIS7_Lb0ELb0EEE>
    2dc8:	48 8b 85 78 ff ff ff 	mov    -0x88(%rbp),%rax
    2dcf:	48 8b 55 b8          	mov    -0x48(%rbp),%rdx
    2dd3:	48 89 50 40          	mov    %rdx,0x40(%rax)
    2dd7:	48 8d 45 c0          	lea    -0x40(%rbp),%rax
    2ddb:	48 89 c7             	mov    %rax,%rdi
    2dde:	e8 59 14 00 00       	callq  423c <_ZNKSt19__shared_ptr_accessIN15coroutine_mimic9CoroutineELN9__gnu_cxx12_Lock_policyE2ELb0ELb0EEptEv>
    2de3:	c7 80 e8 03 00 00 02 	movl   $0x2,0x3e8(%rax)
    2dea:	00 00 00 
    2ded:	48 8d 45 c0          	lea    -0x40(%rbp),%rax
    2df1:	48 89 c7             	mov    %rax,%rdi
    2df4:	e8 43 14 00 00       	callq  423c <_ZNKSt19__shared_ptr_accessIN15coroutine_mimic9CoroutineELN9__gnu_cxx12_Lock_policyE2ELb0ELb0EEptEv>
    2df9:	48 8d 50 08          	lea    0x8(%rax),%rdx
    2dfd:	48 8b 85 78 ff ff ff 	mov    -0x88(%rbp),%rax
    2e04:	48 83 c0 48          	add    $0x48,%rax
    2e08:	48 89 d6             	mov    %rdx,%rsi
    2e0b:	48 89 c7             	mov    %rax,%rdi
    2e0e:	e8 2d f5 ff ff       	callq  2340 <swapcontext@plt>
    2e13:	f3 0f 1e fa          	endbr64 
    2e17:	90                   	nop
    2e18:	48 8d 45 c0          	lea    -0x40(%rbp),%rax
    2e1c:	48 89 c7             	mov    %rax,%rdi
    2e1f:	e8 3e 0c 00 00       	callq  3a62 <_ZNSt10shared_ptrIN15coroutine_mimic9CoroutineEED1Ev>
    2e24:	90                   	nop
    2e25:	48 8b 45 d8          	mov    -0x28(%rbp),%rax
    2e29:	64 48 33 04 25 28 00 	xor    %fs:0x28,%rax
    2e30:	00 00 
    2e32:	74 25                	je     2e59 <_ZN15coroutine_mimic9Scheduler15CoroutineResumeEm+0x363>
    2e34:	eb 1e                	jmp    2e54 <_ZN15coroutine_mimic9Scheduler15CoroutineResumeEm+0x35e>
    2e36:	f3 0f 1e fa          	endbr64 
    2e3a:	48 89 c3             	mov    %rax,%rbx
    2e3d:	48 8d 45 c0          	lea    -0x40(%rbp),%rax
    2e41:	48 89 c7             	mov    %rax,%rdi
    2e44:	e8 19 0c 00 00       	callq  3a62 <_ZNSt10shared_ptrIN15coroutine_mimic9CoroutineEED1Ev>
    2e49:	48 89 d8             	mov    %rbx,%rax
    2e4c:	48 89 c7             	mov    %rax,%rdi
    2e4f:	e8 4c f7 ff ff       	callq  25a0 <_Unwind_Resume@plt>
    2e54:	e8 97 f6 ff ff       	callq  24f0 <__stack_chk_fail@plt>
    2e59:	48 83 c4 78          	add    $0x78,%rsp
    2e5d:	5b                   	pop    %rbx
    2e5e:	41 5c                	pop    %r12
    2e60:	41 5d                	pop    %r13
    2e62:	5d                   	pop    %rbp
    2e63:	c3                   	retq   

0000000000002e64 <_ZN15coroutine_mimic9Scheduler14CoroutineYieldEv>:
    2e64:	f3 0f 1e fa          	endbr64 
    2e68:	55                   	push   %rbp
    2e69:	48 89 e5             	mov    %rsp,%rbp
    2e6c:	53                   	push   %rbx
    2e6d:	48 83 ec 58          	sub    $0x58,%rsp
    2e71:	48 89 7d a8          	mov    %rdi,-0x58(%rbp)
    2e75:	64 48 8b 04 25 28 00 	mov    %fs:0x28,%rax
    2e7c:	00 00 
    2e7e:	48 89 45 e8          	mov    %rax,-0x18(%rbp)
    2e82:	31 c0                	xor    %eax,%eax
    2e84:	48 8b 45 a8          	mov    -0x58(%rbp),%rax
    2e88:	48 89 c7             	mov    %rax,%rdi
    2e8b:	e8 5c 10 00 00       	callq  3eec <_ZNSt13unordered_mapImSt10shared_ptrIN15coroutine_mimic9CoroutineEESt4hashImESt8equal_toImESaISt4pairIKmS3_EEE3endEv>
    2e90:	48 89 45 d0          	mov    %rax,-0x30(%rbp)
    2e94:	48 8b 45 a8          	mov    -0x58(%rbp),%rax
    2e98:	48 8d 50 40          	lea    0x40(%rax),%rdx
    2e9c:	48 8d 45 d0          	lea    -0x30(%rbp),%rax
    2ea0:	48 89 c6             	mov    %rax,%rsi
    2ea3:	48 89 d7             	mov    %rdx,%rdi
    2ea6:	e8 2a 13 00 00       	callq  41d5 <_ZNSt8__detailneISt4pairIKmSt10shared_ptrIN15coroutine_mimic9CoroutineEEELb0EEEbRKNS_19_Node_iterator_baseIT_XT0_EEESC_>
    2eab:	84 c0                	test   %al,%al
    2ead:	75 1f                	jne    2ece <_ZN15coroutine_mimic9Scheduler14CoroutineYieldEv+0x6a>
    2eaf:	48 8d 0d da 71 00 00 	lea    0x71da(%rip),%rcx        # a090 <_ZN6__pstl9execution2v1L5unseqE+0x7e>
    2eb6:	ba 74 00 00 00       	mov    $0x74,%edx
    2ebb:	48 8d 35 a5 71 00 00 	lea    0x71a5(%rip),%rsi        # a067 <_ZN6__pstl9execution2v1L5unseqE+0x55>
    2ec2:	48 8d 3d ff 71 00 00 	lea    0x71ff(%rip),%rdi        # a0c8 <_ZN6__pstl9execution2v1L5unseqE+0xb6>
    2ec9:	e8 22 f5 ff ff       	callq  23f0 <__assert_fail@plt>
    2ece:	48 8b 45 a8          	mov    -0x58(%rbp),%rax
    2ed2:	48 83 c0 40          	add    $0x40,%rax
    2ed6:	48 89 c7             	mov    %rax,%rdi
    2ed9:	e8 7c 13 00 00       	callq  425a <_ZNKSt8__detail20_Node_const_iteratorISt4pairIKmSt10shared_ptrIN15coroutine_mimic9CoroutineEEELb0ELb0EEptEv>
    2ede:	48 8d 50 08          	lea    0x8(%rax),%rdx
    2ee2:	48 8d 45 c0          	lea    -0x40(%rbp),%rax
    2ee6:	48 89 d6             	mov    %rdx,%rsi
    2ee9:	48 89 c7             	mov    %rax,%rdi
    2eec:	e8 43 0c 00 00       	callq  3b34 <_ZNSt10shared_ptrIN15coroutine_mimic9CoroutineEEC1ERKS2_>
    2ef1:	48 8d 55 c0          	lea    -0x40(%rbp),%rdx
    2ef5:	48 8d 45 d0          	lea    -0x30(%rbp),%rax
    2ef9:	48 89 d6             	mov    %rdx,%rsi
    2efc:	48 89 c7             	mov    %rax,%rdi
    2eff:	e8 30 0c 00 00       	callq  3b34 <_ZNSt10shared_ptrIN15coroutine_mimic9CoroutineEEC1ERKS2_>
    2f04:	48 8d 55 d0          	lea    -0x30(%rbp),%rdx
    2f08:	48 8b 45 a8          	mov    -0x58(%rbp),%rax
    2f0c:	48 89 d6             	mov    %rdx,%rsi
    2f0f:	48 89 c7             	mov    %rax,%rdi
    2f12:	e8 cd 00 00 00       	callq  2fe4 <_ZN15coroutine_mimic9Scheduler16SaveCurrentStackESt10shared_ptrINS_9CoroutineEE>
    2f17:	48 8d 45 d0          	lea    -0x30(%rbp),%rax
    2f1b:	48 89 c7             	mov    %rax,%rdi
    2f1e:	e8 3f 0b 00 00       	callq  3a62 <_ZNSt10shared_ptrIN15coroutine_mimic9CoroutineEED1Ev>
    2f23:	48 8d 45 c0          	lea    -0x40(%rbp),%rax
    2f27:	48 89 c7             	mov    %rax,%rdi
    2f2a:	e8 0d 13 00 00       	callq  423c <_ZNKSt19__shared_ptr_accessIN15coroutine_mimic9CoroutineELN9__gnu_cxx12_Lock_policyE2ELb0ELb0EEptEv>
    2f2f:	c7 80 e8 03 00 00 03 	movl   $0x3,0x3e8(%rax)
    2f36:	00 00 00 
    2f39:	48 8b 45 a8          	mov    -0x58(%rbp),%rax
    2f3d:	48 89 c7             	mov    %rax,%rdi
    2f40:	e8 a7 0f 00 00       	callq  3eec <_ZNSt13unordered_mapImSt10shared_ptrIN15coroutine_mimic9CoroutineEESt4hashImESt8equal_toImESaISt4pairIKmS3_EEE3endEv>
    2f45:	48 89 45 b8          	mov    %rax,-0x48(%rbp)
    2f49:	48 8d 55 b8          	lea    -0x48(%rbp),%rdx
    2f4d:	48 8d 45 d0          	lea    -0x30(%rbp),%rax
    2f51:	48 89 d6             	mov    %rdx,%rsi
    2f54:	48 89 c7             	mov    %rax,%rdi
    2f57:	e8 6e 10 00 00       	callq  3fca <_ZNSt8__detail20_Node_const_iteratorISt4pairIKmSt10shared_ptrIN15coroutine_mimic9CoroutineEEELb0ELb0EEC1ERKNS_14_Node_iteratorIS7_Lb0ELb0EEE>
    2f5c:	48 8b 45 a8          	mov    -0x58(%rbp),%rax
    2f60:	48 8b 55 d0          	mov    -0x30(%rbp),%rdx
    2f64:	48 89 50 40          	mov    %rdx,0x40(%rax)
    2f68:	48 8b 45 a8          	mov    -0x58(%rbp),%rax
    2f6c:	48 8d 58 48          	lea    0x48(%rax),%rbx
    2f70:	48 8d 45 c0          	lea    -0x40(%rbp),%rax
    2f74:	48 89 c7             	mov    %rax,%rdi
    2f77:	e8 c0 12 00 00       	callq  423c <_ZNKSt19__shared_ptr_accessIN15coroutine_mimic9CoroutineELN9__gnu_cxx12_Lock_policyE2ELb0ELb0EEptEv>
    2f7c:	48 83 c0 08          	add    $0x8,%rax
    2f80:	48 89 de             	mov    %rbx,%rsi
    2f83:	48 89 c7             	mov    %rax,%rdi
    2f86:	e8 b5 f3 ff ff       	callq  2340 <swapcontext@plt>
    2f8b:	f3 0f 1e fa          	endbr64 
    2f8f:	48 8d 45 c0          	lea    -0x40(%rbp),%rax
    2f93:	48 89 c7             	mov    %rax,%rdi
    2f96:	e8 c7 0a 00 00       	callq  3a62 <_ZNSt10shared_ptrIN15coroutine_mimic9CoroutineEED1Ev>
    2f9b:	90                   	nop
    2f9c:	48 8b 45 e8          	mov    -0x18(%rbp),%rax
    2fa0:	64 48 33 04 25 28 00 	xor    %fs:0x28,%rax
    2fa7:	00 00 
    2fa9:	74 31                	je     2fdc <_ZN15coroutine_mimic9Scheduler14CoroutineYieldEv+0x178>
    2fab:	eb 2a                	jmp    2fd7 <_ZN15coroutine_mimic9Scheduler14CoroutineYieldEv+0x173>
    2fad:	f3 0f 1e fa          	endbr64 
    2fb1:	48 89 c3             	mov    %rax,%rbx
    2fb4:	48 8d 45 d0          	lea    -0x30(%rbp),%rax
    2fb8:	48 89 c7             	mov    %rax,%rdi
    2fbb:	e8 a2 0a 00 00       	callq  3a62 <_ZNSt10shared_ptrIN15coroutine_mimic9CoroutineEED1Ev>
    2fc0:	48 8d 45 c0          	lea    -0x40(%rbp),%rax
    2fc4:	48 89 c7             	mov    %rax,%rdi
    2fc7:	e8 96 0a 00 00       	callq  3a62 <_ZNSt10shared_ptrIN15coroutine_mimic9CoroutineEED1Ev>
    2fcc:	48 89 d8             	mov    %rbx,%rax
    2fcf:	48 89 c7             	mov    %rax,%rdi
    2fd2:	e8 c9 f5 ff ff       	callq  25a0 <_Unwind_Resume@plt>
    2fd7:	e8 14 f5 ff ff       	callq  24f0 <__stack_chk_fail@plt>
    2fdc:	48 83 c4 58          	add    $0x58,%rsp
    2fe0:	5b                   	pop    %rbx
    2fe1:	5d                   	pop    %rbp
    2fe2:	c3                   	retq   
    2fe3:	90                   	nop

0000000000002fe4 <_ZN15coroutine_mimic9Scheduler16SaveCurrentStackESt10shared_ptrINS_9CoroutineEE>:
    2fe4:	f3 0f 1e fa          	endbr64 
    2fe8:	55                   	push   %rbp
    2fe9:	48 89 e5             	mov    %rsp,%rbp
    2fec:	41 54                	push   %r12
    2fee:	53                   	push   %rbx
    2fef:	48 83 ec 20          	sub    $0x20,%rsp
    2ff3:	48 89 7d d8          	mov    %rdi,-0x28(%rbp)
    2ff7:	48 89 75 d0          	mov    %rsi,-0x30(%rbp)
    2ffb:	64 48 8b 04 25 28 00 	mov    %fs:0x28,%rax
    3002:	00 00 
    3004:	48 89 45 e8          	mov    %rax,-0x18(%rbp)
    3008:	31 c0                	xor    %eax,%eax
    300a:	c6 45 e7 00          	movb   $0x0,-0x19(%rbp)
    300e:	48 8b 45 d0          	mov    -0x30(%rbp),%rax
    3012:	48 89 c7             	mov    %rax,%rdi
    3015:	e8 22 12 00 00       	callq  423c <_ZNKSt19__shared_ptr_accessIN15coroutine_mimic9CoroutineELN9__gnu_cxx12_Lock_policyE2ELb0ELb0EEptEv>
    301a:	4c 8b a0 d0 03 00 00 	mov    0x3d0(%rax),%r12
    3021:	48 8b 45 d0          	mov    -0x30(%rbp),%rax
    3025:	48 89 c7             	mov    %rax,%rdi
    3028:	e8 0f 12 00 00       	callq  423c <_ZNKSt19__shared_ptr_accessIN15coroutine_mimic9CoroutineELN9__gnu_cxx12_Lock_policyE2ELb0ELb0EEptEv>
    302d:	48 05 e0 03 00 00    	add    $0x3e0,%rax
    3033:	48 89 c7             	mov    %rax,%rdi
    3036:	e8 cf 0e 00 00       	callq  3f0a <_ZNKSt10unique_ptrIhSt14default_deleteIhEE3getEv>
    303b:	48 89 c3             	mov    %rax,%rbx
    303e:	48 8b 45 d0          	mov    -0x30(%rbp),%rax
    3042:	48 89 c7             	mov    %rax,%rdi
    3045:	e8 f2 11 00 00       	callq  423c <_ZNKSt19__shared_ptr_accessIN15coroutine_mimic9CoroutineELN9__gnu_cxx12_Lock_policyE2ELb0ELb0EEptEv>
    304a:	48 05 20 04 00 00    	add    $0x420,%rax
    3050:	48 89 c7             	mov    %rax,%rdi
    3053:	e8 48 f3 ff ff       	callq  23a0 <_ZNKSt7__cxx1112basic_stringIcSt11char_traitsIcESaIcEE5c_strEv@plt>
    3058:	48 89 c6             	mov    %rax,%rsi
    305b:	48 8d 45 e7          	lea    -0x19(%rbp),%rax
    305f:	4d 89 e0             	mov    %r12,%r8
    3062:	48 89 c1             	mov    %rax,%rcx
    3065:	48 89 da             	mov    %rbx,%rdx
    3068:	48 8d 3d 81 70 00 00 	lea    0x7081(%rip),%rdi        # a0f0 <_ZN6__pstl9execution2v1L5unseqE+0xde>
    306f:	b8 00 00 00 00       	mov    $0x0,%eax
    3074:	e8 a7 f2 ff ff       	callq  2320 <printf@plt>
    3079:	48 8b 45 d0          	mov    -0x30(%rbp),%rax
    307d:	48 89 c7             	mov    %rax,%rdi
    3080:	e8 b7 11 00 00       	callq  423c <_ZNKSt19__shared_ptr_accessIN15coroutine_mimic9CoroutineELN9__gnu_cxx12_Lock_policyE2ELb0ELb0EEptEv>
    3085:	48 8b 90 d8 03 00 00 	mov    0x3d8(%rax),%rdx
    308c:	48 8b 45 d8          	mov    -0x28(%rbp),%rax
    3090:	48 8b 88 18 04 00 00 	mov    0x418(%rax),%rcx
    3097:	48 8d 45 e7          	lea    -0x19(%rbp),%rax
    309b:	48 29 c1             	sub    %rax,%rcx
    309e:	48 89 c8             	mov    %rcx,%rax
    30a1:	48 39 c2             	cmp    %rax,%rdx
    30a4:	0f 9c c0             	setl   %al
    30a7:	84 c0                	test   %al,%al
    30a9:	74 6d                	je     3118 <_ZN15coroutine_mimic9Scheduler16SaveCurrentStackESt10shared_ptrINS_9CoroutineEE+0x134>
    30ab:	48 8d 3d 62 70 00 00 	lea    0x7062(%rip),%rdi        # a114 <_ZN6__pstl9execution2v1L5unseqE+0x102>
    30b2:	e8 99 f4 ff ff       	callq  2550 <puts@plt>
    30b7:	48 8b 45 d8          	mov    -0x28(%rbp),%rax
    30bb:	48 8b 90 18 04 00 00 	mov    0x418(%rax),%rdx
    30c2:	48 8d 45 e7          	lea    -0x19(%rbp),%rax
    30c6:	48 29 c2             	sub    %rax,%rdx
    30c9:	48 89 d3             	mov    %rdx,%rbx
    30cc:	48 8b 45 d0          	mov    -0x30(%rbp),%rax
    30d0:	48 89 c7             	mov    %rax,%rdi
    30d3:	e8 64 11 00 00       	callq  423c <_ZNKSt19__shared_ptr_accessIN15coroutine_mimic9CoroutineELN9__gnu_cxx12_Lock_policyE2ELb0ELb0EEptEv>
    30d8:	48 89 98 d8 03 00 00 	mov    %rbx,0x3d8(%rax)
    30df:	48 8b 45 d0          	mov    -0x30(%rbp),%rax
    30e3:	48 89 c7             	mov    %rax,%rdi
    30e6:	e8 51 11 00 00       	callq  423c <_ZNKSt19__shared_ptr_accessIN15coroutine_mimic9CoroutineELN9__gnu_cxx12_Lock_policyE2ELb0ELb0EEptEv>
    30eb:	48 8d 98 e0 03 00 00 	lea    0x3e0(%rax),%rbx
    30f2:	48 8b 45 d0          	mov    -0x30(%rbp),%rax
    30f6:	48 89 c7             	mov    %rax,%rdi
    30f9:	e8 3e 11 00 00       	callq  423c <_ZNKSt19__shared_ptr_accessIN15coroutine_mimic9CoroutineELN9__gnu_cxx12_Lock_policyE2ELb0ELb0EEptEv>
    30fe:	48 8b 80 d8 03 00 00 	mov    0x3d8(%rax),%rax
    3105:	48 89 c7             	mov    %rax,%rdi
    3108:	e8 03 f2 ff ff       	callq  2310 <_Znam@plt>
    310d:	48 89 c6             	mov    %rax,%rsi
    3110:	48 89 df             	mov    %rbx,%rdi
    3113:	e8 64 11 00 00       	callq  427c <_ZNSt10unique_ptrIhSt14default_deleteIhEE5resetEPh>
    3118:	48 8b 45 d8          	mov    -0x28(%rbp),%rax
    311c:	48 8b 90 18 04 00 00 	mov    0x418(%rax),%rdx
    3123:	48 8d 45 e7          	lea    -0x19(%rbp),%rax
    3127:	48 29 c2             	sub    %rax,%rdx
    312a:	48 89 d3             	mov    %rdx,%rbx
    312d:	48 8b 45 d0          	mov    -0x30(%rbp),%rax
    3131:	48 89 c7             	mov    %rax,%rdi
    3134:	e8 03 11 00 00       	callq  423c <_ZNKSt19__shared_ptr_accessIN15coroutine_mimic9CoroutineELN9__gnu_cxx12_Lock_policyE2ELb0ELb0EEptEv>
    3139:	48 89 98 d0 03 00 00 	mov    %rbx,0x3d0(%rax)
    3140:	48 8b 45 d0          	mov    -0x30(%rbp),%rax
    3144:	48 89 c7             	mov    %rax,%rdi
    3147:	e8 f0 10 00 00       	callq  423c <_ZNKSt19__shared_ptr_accessIN15coroutine_mimic9CoroutineELN9__gnu_cxx12_Lock_policyE2ELb0ELb0EEptEv>
    314c:	4c 8b a0 d0 03 00 00 	mov    0x3d0(%rax),%r12
    3153:	48 8b 45 d0          	mov    -0x30(%rbp),%rax
    3157:	48 89 c7             	mov    %rax,%rdi
    315a:	e8 dd 10 00 00       	callq  423c <_ZNKSt19__shared_ptr_accessIN15coroutine_mimic9CoroutineELN9__gnu_cxx12_Lock_policyE2ELb0ELb0EEptEv>
    315f:	48 05 e0 03 00 00    	add    $0x3e0,%rax
    3165:	48 89 c7             	mov    %rax,%rdi
    3168:	e8 9d 0d 00 00       	callq  3f0a <_ZNKSt10unique_ptrIhSt14default_deleteIhEE3getEv>
    316d:	48 89 c3             	mov    %rax,%rbx
    3170:	48 8b 45 d0          	mov    -0x30(%rbp),%rax
    3174:	48 89 c7             	mov    %rax,%rdi
    3177:	e8 c0 10 00 00       	callq  423c <_ZNKSt19__shared_ptr_accessIN15coroutine_mimic9CoroutineELN9__gnu_cxx12_Lock_policyE2ELb0ELb0EEptEv>
    317c:	48 05 20 04 00 00    	add    $0x420,%rax
    3182:	48 89 c7             	mov    %rax,%rdi
    3185:	e8 16 f2 ff ff       	callq  23a0 <_ZNKSt7__cxx1112basic_stringIcSt11char_traitsIcESaIcEE5c_strEv@plt>
    318a:	48 89 c6             	mov    %rax,%rsi
    318d:	48 8d 45 e7          	lea    -0x19(%rbp),%rax
    3191:	4d 89 e0             	mov    %r12,%r8
    3194:	48 89 c1             	mov    %rax,%rcx
    3197:	48 89 da             	mov    %rbx,%rdx
    319a:	48 8d 3d 8f 6f 00 00 	lea    0x6f8f(%rip),%rdi        # a130 <_ZN6__pstl9execution2v1L5unseqE+0x11e>
    31a1:	b8 00 00 00 00       	mov    $0x0,%eax
    31a6:	e8 75 f1 ff ff       	callq  2320 <printf@plt>
    31ab:	48 8b 45 d0          	mov    -0x30(%rbp),%rax
    31af:	48 89 c7             	mov    %rax,%rdi
    31b2:	e8 85 10 00 00       	callq  423c <_ZNKSt19__shared_ptr_accessIN15coroutine_mimic9CoroutineELN9__gnu_cxx12_Lock_policyE2ELb0ELb0EEptEv>
    31b7:	48 8b 80 d0 03 00 00 	mov    0x3d0(%rax),%rax
    31be:	48 89 c3             	mov    %rax,%rbx
    31c1:	48 8b 45 d0          	mov    -0x30(%rbp),%rax
    31c5:	48 89 c7             	mov    %rax,%rdi
    31c8:	e8 6f 10 00 00       	callq  423c <_ZNKSt19__shared_ptr_accessIN15coroutine_mimic9CoroutineELN9__gnu_cxx12_Lock_policyE2ELb0ELb0EEptEv>
    31cd:	48 05 e0 03 00 00    	add    $0x3e0,%rax
    31d3:	48 89 c7             	mov    %rax,%rdi
    31d6:	e8 2f 0d 00 00       	callq  3f0a <_ZNKSt10unique_ptrIhSt14default_deleteIhEE3getEv>
    31db:	48 89 c1             	mov    %rax,%rcx
    31de:	48 8d 45 e7          	lea    -0x19(%rbp),%rax
    31e2:	48 89 da             	mov    %rbx,%rdx
    31e5:	48 89 c6             	mov    %rax,%rsi
    31e8:	48 89 cf             	mov    %rcx,%rdi
    31eb:	e8 50 f2 ff ff       	callq  2440 <memcpy@plt>
    31f0:	90                   	nop
    31f1:	48 8b 45 e8          	mov    -0x18(%rbp),%rax
    31f5:	64 48 33 04 25 28 00 	xor    %fs:0x28,%rax
    31fc:	00 00 
    31fe:	74 05                	je     3205 <_ZN15coroutine_mimic9Scheduler16SaveCurrentStackESt10shared_ptrINS_9CoroutineEE+0x221>
    3200:	e8 eb f2 ff ff       	callq  24f0 <__stack_chk_fail@plt>
    3205:	48 83 c4 20          	add    $0x20,%rsp
    3209:	5b                   	pop    %rbx
    320a:	41 5c                	pop    %r12
    320c:	5d                   	pop    %rbp
    320d:	c3                   	retq   

000000000000320e <_ZN15coroutine_mimic9Scheduler8ScheduleEjj>:
    320e:	f3 0f 1e fa          	endbr64 
    3212:	55                   	push   %rbp
    3213:	48 89 e5             	mov    %rsp,%rbp
    3216:	53                   	push   %rbx
    3217:	48 83 ec 68          	sub    $0x68,%rsp
    321b:	89 7d 9c             	mov    %edi,-0x64(%rbp)
    321e:	89 75 98             	mov    %esi,-0x68(%rbp)
    3221:	64 48 8b 04 25 28 00 	mov    %fs:0x28,%rax
    3228:	00 00 
    322a:	48 89 45 e8          	mov    %rax,-0x18(%rbp)
    322e:	31 c0                	xor    %eax,%eax
    3230:	8b 45 9c             	mov    -0x64(%rbp),%eax
    3233:	8b 55 98             	mov    -0x68(%rbp),%edx
    3236:	48 c1 e2 20          	shl    $0x20,%rdx
    323a:	48 09 d0             	or     %rdx,%rax
    323d:	48 89 45 b8          	mov    %rax,-0x48(%rbp)
    3241:	48 8b 45 b8          	mov    -0x48(%rbp),%rax
    3245:	48 8b 40 40          	mov    0x40(%rax),%rax
    3249:	48 89 45 a0          	mov    %rax,-0x60(%rbp)
    324d:	48 8d 45 a0          	lea    -0x60(%rbp),%rax
    3251:	48 89 c7             	mov    %rax,%rdi
    3254:	e8 01 10 00 00       	callq  425a <_ZNKSt8__detail20_Node_const_iteratorISt4pairIKmSt10shared_ptrIN15coroutine_mimic9CoroutineEEELb0ELb0EEptEv>
    3259:	48 8d 50 08          	lea    0x8(%rax),%rdx
    325d:	48 8d 45 c0          	lea    -0x40(%rbp),%rax
    3261:	48 89 d6             	mov    %rdx,%rsi
    3264:	48 89 c7             	mov    %rax,%rdi
    3267:	e8 c8 08 00 00       	callq  3b34 <_ZNSt10shared_ptrIN15coroutine_mimic9CoroutineEEC1ERKS2_>
    326c:	48 8d 45 c0          	lea    -0x40(%rbp),%rax
    3270:	48 89 c7             	mov    %rax,%rdi
    3273:	e8 c4 0f 00 00       	callq  423c <_ZNKSt19__shared_ptr_accessIN15coroutine_mimic9CoroutineELN9__gnu_cxx12_Lock_policyE2ELb0ELb0EEptEv>
    3278:	48 8d 98 f0 03 00 00 	lea    0x3f0(%rax),%rbx
    327f:	48 8d 45 c0          	lea    -0x40(%rbp),%rax
    3283:	48 89 c7             	mov    %rax,%rdi
    3286:	e8 b1 0f 00 00       	callq  423c <_ZNKSt19__shared_ptr_accessIN15coroutine_mimic9CoroutineELN9__gnu_cxx12_Lock_policyE2ELb0ELb0EEptEv>
    328b:	48 8d 90 10 04 00 00 	lea    0x410(%rax),%rdx
    3292:	48 8d 45 d0          	lea    -0x30(%rbp),%rax
    3296:	48 89 d6             	mov    %rdx,%rsi
    3299:	48 89 c7             	mov    %rax,%rdi
    329c:	e8 1b 05 00 00       	callq  37bc <_ZNSt3anyC1ERKS_>
    32a1:	48 8d 55 d0          	lea    -0x30(%rbp),%rdx
    32a5:	48 8b 45 b8          	mov    -0x48(%rbp),%rax
    32a9:	48 89 c6             	mov    %rax,%rsi
    32ac:	48 89 df             	mov    %rbx,%rdi
    32af:	e8 36 10 00 00       	callq  42ea <_ZNKSt8functionIFvPN15coroutine_mimic9SchedulerESt3anyEEclES2_S3_>
    32b4:	48 8d 45 d0          	lea    -0x30(%rbp),%rax
    32b8:	48 89 c7             	mov    %rax,%rdi
    32bb:	e8 88 05 00 00       	callq  3848 <_ZNSt3anyD1Ev>
    32c0:	48 8b 45 b8          	mov    -0x48(%rbp),%rax
    32c4:	48 8b 55 a0          	mov    -0x60(%rbp),%rdx
    32c8:	48 89 d6             	mov    %rdx,%rsi
    32cb:	48 89 c7             	mov    %rax,%rdi
    32ce:	e8 87 10 00 00       	callq  435a <_ZNSt13unordered_mapImSt10shared_ptrIN15coroutine_mimic9CoroutineEESt4hashImESt8equal_toImESaISt4pairIKmS3_EEE5eraseENSt8__detail20_Node_const_iteratorISA_Lb0ELb0EEE>
    32d3:	48 8b 45 b8          	mov    -0x48(%rbp),%rax
    32d7:	48 89 c7             	mov    %rax,%rdi
    32da:	e8 0d 0c 00 00       	callq  3eec <_ZNSt13unordered_mapImSt10shared_ptrIN15coroutine_mimic9CoroutineEESt4hashImESt8equal_toImESaISt4pairIKmS3_EEE3endEv>
    32df:	48 89 45 a8          	mov    %rax,-0x58(%rbp)
    32e3:	48 8d 55 a8          	lea    -0x58(%rbp),%rdx
    32e7:	48 8d 45 b0          	lea    -0x50(%rbp),%rax
    32eb:	48 89 d6             	mov    %rdx,%rsi
    32ee:	48 89 c7             	mov    %rax,%rdi
    32f1:	e8 d4 0c 00 00       	callq  3fca <_ZNSt8__detail20_Node_const_iteratorISt4pairIKmSt10shared_ptrIN15coroutine_mimic9CoroutineEEELb0ELb0EEC1ERKNS_14_Node_iteratorIS7_Lb0ELb0EEE>
    32f6:	48 8b 45 b8          	mov    -0x48(%rbp),%rax
    32fa:	48 8b 55 b0          	mov    -0x50(%rbp),%rdx
    32fe:	48 89 50 40          	mov    %rdx,0x40(%rax)
    3302:	48 8d 45 c0          	lea    -0x40(%rbp),%rax
    3306:	48 89 c7             	mov    %rax,%rdi
    3309:	e8 54 07 00 00       	callq  3a62 <_ZNSt10shared_ptrIN15coroutine_mimic9CoroutineEED1Ev>
    330e:	90                   	nop
    330f:	48 8b 45 e8          	mov    -0x18(%rbp),%rax
    3313:	64 48 33 04 25 28 00 	xor    %fs:0x28,%rax
    331a:	00 00 
    331c:	74 3a                	je     3358 <_ZN15coroutine_mimic9Scheduler8ScheduleEjj+0x14a>
    331e:	eb 33                	jmp    3353 <_ZN15coroutine_mimic9Scheduler8ScheduleEjj+0x145>
    3320:	f3 0f 1e fa          	endbr64 
    3324:	48 89 c3             	mov    %rax,%rbx
    3327:	48 8d 45 d0          	lea    -0x30(%rbp),%rax
    332b:	48 89 c7             	mov    %rax,%rdi
    332e:	e8 15 05 00 00       	callq  3848 <_ZNSt3anyD1Ev>
    3333:	eb 07                	jmp    333c <_ZN15coroutine_mimic9Scheduler8ScheduleEjj+0x12e>
    3335:	f3 0f 1e fa          	endbr64 
    3339:	48 89 c3             	mov    %rax,%rbx
    333c:	48 8d 45 c0          	lea    -0x40(%rbp),%rax
    3340:	48 89 c7             	mov    %rax,%rdi
    3343:	e8 1a 07 00 00       	callq  3a62 <_ZNSt10shared_ptrIN15coroutine_mimic9CoroutineEED1Ev>
    3348:	48 89 d8             	mov    %rbx,%rax
    334b:	48 89 c7             	mov    %rax,%rdi
    334e:	e8 4d f2 ff ff       	callq  25a0 <_Unwind_Resume@plt>
    3353:	e8 98 f1 ff ff       	callq  24f0 <__stack_chk_fail@plt>
    3358:	48 83 c4 68          	add    $0x68,%rsp
    335c:	5b                   	pop    %rbx
    335d:	5d                   	pop    %rbp
    335e:	c3                   	retq   
    335f:	90                   	nop

0000000000003360 <_ZN15coroutine_mimic9Scheduler14CoroutineStateEm>:
    3360:	f3 0f 1e fa          	endbr64 
    3364:	55                   	push   %rbp
    3365:	48 89 e5             	mov    %rsp,%rbp
    3368:	48 83 ec 30          	sub    $0x30,%rsp
    336c:	48 89 7d d8          	mov    %rdi,-0x28(%rbp)
    3370:	48 89 75 d0          	mov    %rsi,-0x30(%rbp)
    3374:	64 48 8b 04 25 28 00 	mov    %fs:0x28,%rax
    337b:	00 00 
    337d:	48 89 45 f8          	mov    %rax,-0x8(%rbp)
    3381:	31 c0                	xor    %eax,%eax
    3383:	48 8b 45 d8          	mov    -0x28(%rbp),%rax
    3387:	48 89 c7             	mov    %rax,%rdi
    338a:	e8 5d 0b 00 00       	callq  3eec <_ZNSt13unordered_mapImSt10shared_ptrIN15coroutine_mimic9CoroutineEESt4hashImESt8equal_toImESaISt4pairIKmS3_EEE3endEv>
    338f:	48 89 45 f0          	mov    %rax,-0x10(%rbp)
    3393:	48 8b 45 d8          	mov    -0x28(%rbp),%rax
    3397:	48 8d 55 d0          	lea    -0x30(%rbp),%rdx
    339b:	48 89 d6             	mov    %rdx,%rsi
    339e:	48 89 c7             	mov    %rax,%rdi
    33a1:	e8 06 0e 00 00       	callq  41ac <_ZNSt13unordered_mapImSt10shared_ptrIN15coroutine_mimic9CoroutineEESt4hashImESt8equal_toImESaISt4pairIKmS3_EEE4findERS9_>
    33a6:	48 89 45 e8          	mov    %rax,-0x18(%rbp)
    33aa:	48 8d 55 f0          	lea    -0x10(%rbp),%rdx
    33ae:	48 8d 45 e8          	lea    -0x18(%rbp),%rax
    33b2:	48 89 d6             	mov    %rdx,%rsi
    33b5:	48 89 c7             	mov    %rax,%rdi
    33b8:	e8 c6 0f 00 00       	callq  4383 <_ZNSt8__detaileqISt4pairIKmSt10shared_ptrIN15coroutine_mimic9CoroutineEEELb0EEEbRKNS_19_Node_iterator_baseIT_XT0_EEESC_>
    33bd:	84 c0                	test   %al,%al
    33bf:	74 07                	je     33c8 <_ZN15coroutine_mimic9Scheduler14CoroutineStateEm+0x68>
    33c1:	b8 00 00 00 00       	mov    $0x0,%eax
    33c6:	eb 23                	jmp    33eb <_ZN15coroutine_mimic9Scheduler14CoroutineStateEm+0x8b>
    33c8:	48 8b 45 d8          	mov    -0x28(%rbp),%rax
    33cc:	48 8d 55 d0          	lea    -0x30(%rbp),%rdx
    33d0:	48 89 d6             	mov    %rdx,%rsi
    33d3:	48 89 c7             	mov    %rax,%rdi
    33d6:	e8 3b 0d 00 00       	callq  4116 <_ZNSt13unordered_mapImSt10shared_ptrIN15coroutine_mimic9CoroutineEESt4hashImESt8equal_toImESaISt4pairIKmS3_EEEixERS9_>
    33db:	48 89 c7             	mov    %rax,%rdi
    33de:	e8 59 0e 00 00       	callq  423c <_ZNKSt19__shared_ptr_accessIN15coroutine_mimic9CoroutineELN9__gnu_cxx12_Lock_policyE2ELb0ELb0EEptEv>
    33e3:	48 89 c7             	mov    %rax,%rdi
    33e6:	e8 e1 04 00 00       	callq  38cc <_ZN15coroutine_mimic9Coroutine8getStateEv>
    33eb:	48 8b 4d f8          	mov    -0x8(%rbp),%rcx
    33ef:	64 48 33 0c 25 28 00 	xor    %fs:0x28,%rcx
    33f6:	00 00 
    33f8:	74 05                	je     33ff <_ZN15coroutine_mimic9Scheduler14CoroutineStateEm+0x9f>
    33fa:	e8 f1 f0 ff ff       	callq  24f0 <__stack_chk_fail@plt>
    33ff:	c9                   	leaveq 
    3400:	c3                   	retq   

0000000000003401 <_Z41__static_initialization_and_destruction_0ii>:
    3401:	f3 0f 1e fa          	endbr64 
    3405:	55                   	push   %rbp
    3406:	48 89 e5             	mov    %rsp,%rbp
    3409:	48 83 ec 10          	sub    $0x10,%rsp
    340d:	89 7d fc             	mov    %edi,-0x4(%rbp)
    3410:	89 75 f8             	mov    %esi,-0x8(%rbp)
    3413:	83 7d fc 01          	cmpl   $0x1,-0x4(%rbp)
    3417:	75 32                	jne    344b <_Z41__static_initialization_and_destruction_0ii+0x4a>
    3419:	81 7d f8 ff ff 00 00 	cmpl   $0xffff,-0x8(%rbp)
    3420:	75 29                	jne    344b <_Z41__static_initialization_and_destruction_0ii+0x4a>
    3422:	48 8d 3d 2f cd 00 00 	lea    0xcd2f(%rip),%rdi        # 10158 <_ZStL8__ioinit>
    3429:	e8 12 f1 ff ff       	callq  2540 <_ZNSt8ios_base4InitC1Ev@plt>
    342e:	48 8d 15 d3 cb 00 00 	lea    0xcbd3(%rip),%rdx        # 10008 <__dso_handle>
    3435:	48 8d 35 1c cd 00 00 	lea    0xcd1c(%rip),%rsi        # 10158 <_ZStL8__ioinit>
    343c:	48 8b 05 ad cb 00 00 	mov    0xcbad(%rip),%rax        # fff0 <_ZNSt8ios_base4InitD1Ev@GLIBCXX_3.4>
    3443:	48 89 c7             	mov    %rax,%rdi
    3446:	e8 15 f0 ff ff       	callq  2460 <__cxa_atexit@plt>
    344b:	90                   	nop
    344c:	c9                   	leaveq 
    344d:	c3                   	retq   

000000000000344e <_GLOBAL__sub_I__ZN15coroutine_mimic9Coroutine3_idE>:
    344e:	f3 0f 1e fa          	endbr64 
    3452:	55                   	push   %rbp
    3453:	48 89 e5             	mov    %rsp,%rbp
    3456:	be ff ff 00 00       	mov    $0xffff,%esi
    345b:	bf 01 00 00 00       	mov    $0x1,%edi
    3460:	e8 9c ff ff ff       	callq  3401 <_Z41__static_initialization_and_destruction_0ii>
    3465:	5d                   	pop    %rbp
    3466:	c3                   	retq   
    3467:	90                   	nop

0000000000003468 <_ZNKSt9type_infoeqERKS_>:
    3468:	f3 0f 1e fa          	endbr64 
    346c:	55                   	push   %rbp
    346d:	48 89 e5             	mov    %rsp,%rbp
    3470:	48 83 ec 10          	sub    $0x10,%rsp
    3474:	48 89 7d f8          	mov    %rdi,-0x8(%rbp)
    3478:	48 89 75 f0          	mov    %rsi,-0x10(%rbp)
    347c:	48 8b 45 f8          	mov    -0x8(%rbp),%rax
    3480:	48 8b 50 08          	mov    0x8(%rax),%rdx
    3484:	48 8b 45 f0          	mov    -0x10(%rbp),%rax
    3488:	48 8b 40 08          	mov    0x8(%rax),%rax
    348c:	48 39 c2             	cmp    %rax,%rdx
    348f:	74 2e                	je     34bf <_ZNKSt9type_infoeqERKS_+0x57>
    3491:	48 8b 45 f8          	mov    -0x8(%rbp),%rax
    3495:	48 8b 40 08          	mov    0x8(%rax),%rax
    3499:	0f b6 00             	movzbl (%rax),%eax
    349c:	3c 2a                	cmp    $0x2a,%al
    349e:	74 26                	je     34c6 <_ZNKSt9type_infoeqERKS_+0x5e>
    34a0:	48 8b 45 f0          	mov    -0x10(%rbp),%rax
    34a4:	48 8b 50 08          	mov    0x8(%rax),%rdx
    34a8:	48 8b 45 f8          	mov    -0x8(%rbp),%rax
    34ac:	48 8b 40 08          	mov    0x8(%rax),%rax
    34b0:	48 89 d6             	mov    %rdx,%rsi
    34b3:	48 89 c7             	mov    %rax,%rdi
    34b6:	e8 65 f0 ff ff       	callq  2520 <strcmp@plt>
    34bb:	85 c0                	test   %eax,%eax
    34bd:	75 07                	jne    34c6 <_ZNKSt9type_infoeqERKS_+0x5e>
    34bf:	b8 01 00 00 00       	mov    $0x1,%eax
    34c4:	eb 05                	jmp    34cb <_ZNKSt9type_infoeqERKS_+0x63>
    34c6:	b8 00 00 00 00       	mov    $0x0,%eax
    34cb:	c9                   	leaveq 
    34cc:	c3                   	retq   

00000000000034cd <_ZnwmPv>:
    34cd:	f3 0f 1e fa          	endbr64 
    34d1:	55                   	push   %rbp
    34d2:	48 89 e5             	mov    %rsp,%rbp
    34d5:	48 89 7d f8          	mov    %rdi,-0x8(%rbp)
    34d9:	48 89 75 f0          	mov    %rsi,-0x10(%rbp)
    34dd:	48 8b 45 f0          	mov    -0x10(%rbp),%rax
    34e1:	5d                   	pop    %rbp
    34e2:	c3                   	retq   

00000000000034e3 <_ZdlPvS_>:
    34e3:	f3 0f 1e fa          	endbr64 
    34e7:	55                   	push   %rbp
    34e8:	48 89 e5             	mov    %rsp,%rbp
    34eb:	48 89 7d f8          	mov    %rdi,-0x8(%rbp)
    34ef:	48 89 75 f0          	mov    %rsi,-0x10(%rbp)
    34f3:	90                   	nop
    34f4:	5d                   	pop    %rbp
    34f5:	c3                   	retq   

00000000000034f6 <_ZN9__gnu_cxxL18__exchange_and_addEPVii>:
    34f6:	55                   	push   %rbp
    34f7:	48 89 e5             	mov    %rsp,%rbp
    34fa:	48 89 7d f8          	mov    %rdi,-0x8(%rbp)
    34fe:	89 75 f4             	mov    %esi,-0xc(%rbp)
    3501:	8b 55 f4             	mov    -0xc(%rbp),%edx
    3504:	48 8b 45 f8          	mov    -0x8(%rbp),%rax
    3508:	f0 0f c1 10          	lock xadd %edx,(%rax)
    350c:	89 d0                	mov    %edx,%eax
    350e:	5d                   	pop    %rbp
    350f:	c3                   	retq   

0000000000003510 <_ZN9__gnu_cxxL12__atomic_addEPVii>:
    3510:	55                   	push   %rbp
    3511:	48 89 e5             	mov    %rsp,%rbp
    3514:	48 89 7d f8          	mov    %rdi,-0x8(%rbp)
    3518:	89 75 f4             	mov    %esi,-0xc(%rbp)
    351b:	8b 55 f4             	mov    -0xc(%rbp),%edx
    351e:	48 8b 45 f8          	mov    -0x8(%rbp),%rax
    3522:	f0 01 10             	lock add %edx,(%rax)
    3525:	90                   	nop
    3526:	5d                   	pop    %rbp
    3527:	c3                   	retq   

0000000000003528 <_ZN9__gnu_cxxL25__exchange_and_add_singleEPii>:
    3528:	55                   	push   %rbp
    3529:	48 89 e5             	mov    %rsp,%rbp
    352c:	48 89 7d e8          	mov    %rdi,-0x18(%rbp)
    3530:	89 75 e4             	mov    %esi,-0x1c(%rbp)
    3533:	48 8b 45 e8          	mov    -0x18(%rbp),%rax
    3537:	8b 00                	mov    (%rax),%eax
    3539:	89 45 fc             	mov    %eax,-0x4(%rbp)
    353c:	48 8b 45 e8          	mov    -0x18(%rbp),%rax
    3540:	8b 10                	mov    (%rax),%edx
    3542:	8b 45 e4             	mov    -0x1c(%rbp),%eax
    3545:	01 c2                	add    %eax,%edx
    3547:	48 8b 45 e8          	mov    -0x18(%rbp),%rax
    354b:	89 10                	mov    %edx,(%rax)
    354d:	8b 45 fc             	mov    -0x4(%rbp),%eax
    3550:	5d                   	pop    %rbp
    3551:	c3                   	retq   

0000000000003552 <_ZN9__gnu_cxxL19__atomic_add_singleEPii>:
    3552:	55                   	push   %rbp
    3553:	48 89 e5             	mov    %rsp,%rbp
    3556:	48 89 7d f8          	mov    %rdi,-0x8(%rbp)
    355a:	89 75 f4             	mov    %esi,-0xc(%rbp)
    355d:	48 8b 45 f8          	mov    -0x8(%rbp),%rax
    3561:	8b 10                	mov    (%rax),%edx
    3563:	8b 45 f4             	mov    -0xc(%rbp),%eax
    3566:	01 c2                	add    %eax,%edx
    3568:	48 8b 45 f8          	mov    -0x8(%rbp),%rax
    356c:	89 10                	mov    %edx,(%rax)
    356e:	90                   	nop
    356f:	5d                   	pop    %rbp
    3570:	c3                   	retq   

0000000000003571 <_ZN9__gnu_cxxL27__exchange_and_add_dispatchEPii>:
    3571:	55                   	push   %rbp
    3572:	48 89 e5             	mov    %rsp,%rbp
    3575:	48 83 ec 10          	sub    $0x10,%rsp
    3579:	48 89 7d f8          	mov    %rdi,-0x8(%rbp)
    357d:	89 75 f4             	mov    %esi,-0xc(%rbp)
    3580:	e8 45 f1 ff ff       	callq  26ca <_ZL18__gthread_active_pv>
    3585:	85 c0                	test   %eax,%eax
    3587:	0f 95 c0             	setne  %al
    358a:	84 c0                	test   %al,%al
    358c:	74 13                	je     35a1 <_ZN9__gnu_cxxL27__exchange_and_add_dispatchEPii+0x30>
    358e:	8b 55 f4             	mov    -0xc(%rbp),%edx
    3591:	48 8b 45 f8          	mov    -0x8(%rbp),%rax
    3595:	89 d6                	mov    %edx,%esi
    3597:	48 89 c7             	mov    %rax,%rdi
    359a:	e8 57 ff ff ff       	callq  34f6 <_ZN9__gnu_cxxL18__exchange_and_addEPVii>
    359f:	eb 12                	jmp    35b3 <_ZN9__gnu_cxxL27__exchange_and_add_dispatchEPii+0x42>
    35a1:	8b 55 f4             	mov    -0xc(%rbp),%edx
    35a4:	48 8b 45 f8          	mov    -0x8(%rbp),%rax
    35a8:	89 d6                	mov    %edx,%esi
    35aa:	48 89 c7             	mov    %rax,%rdi
    35ad:	e8 76 ff ff ff       	callq  3528 <_ZN9__gnu_cxxL25__exchange_and_add_singleEPii>
    35b2:	90                   	nop
    35b3:	c9                   	leaveq 
    35b4:	c3                   	retq   

00000000000035b5 <_ZN9__gnu_cxxL21__atomic_add_dispatchEPii>:
    35b5:	55                   	push   %rbp
    35b6:	48 89 e5             	mov    %rsp,%rbp
    35b9:	48 83 ec 10          	sub    $0x10,%rsp
    35bd:	48 89 7d f8          	mov    %rdi,-0x8(%rbp)
    35c1:	89 75 f4             	mov    %esi,-0xc(%rbp)
    35c4:	e8 01 f1 ff ff       	callq  26ca <_ZL18__gthread_active_pv>
    35c9:	85 c0                	test   %eax,%eax
    35cb:	0f 95 c0             	setne  %al
    35ce:	84 c0                	test   %al,%al
    35d0:	74 13                	je     35e5 <_ZN9__gnu_cxxL21__atomic_add_dispatchEPii+0x30>
    35d2:	8b 55 f4             	mov    -0xc(%rbp),%edx
    35d5:	48 8b 45 f8          	mov    -0x8(%rbp),%rax
    35d9:	89 d6                	mov    %edx,%esi
    35db:	48 89 c7             	mov    %rax,%rdi
    35de:	e8 2d ff ff ff       	callq  3510 <_ZN9__gnu_cxxL12__atomic_addEPVii>
    35e3:	eb 11                	jmp    35f6 <_ZN9__gnu_cxxL21__atomic_add_dispatchEPii+0x41>
    35e5:	8b 55 f4             	mov    -0xc(%rbp),%edx
    35e8:	48 8b 45 f8          	mov    -0x8(%rbp),%rax
    35ec:	89 d6                	mov    %edx,%esi
    35ee:	48 89 c7             	mov    %rax,%rdi
    35f1:	e8 5c ff ff ff       	callq  3552 <_ZN9__gnu_cxxL19__atomic_add_singleEPii>
    35f6:	90                   	nop
    35f7:	c9                   	leaveq 
    35f8:	c3                   	retq   
    35f9:	90                   	nop

00000000000035fa <_ZNKSt4hashImEclEm>:
    35fa:	f3 0f 1e fa          	endbr64 
    35fe:	55                   	push   %rbp
    35ff:	48 89 e5             	mov    %rsp,%rbp
    3602:	48 89 7d f8          	mov    %rdi,-0x8(%rbp)
    3606:	48 89 75 f0          	mov    %rsi,-0x10(%rbp)
    360a:	48 8b 45 f0          	mov    -0x10(%rbp),%rax
    360e:	5d                   	pop    %rbp
    360f:	c3                   	retq   

0000000000003610 <_ZNSt7__cxx119to_stringEi>:
    3610:	f3 0f 1e fa          	endbr64 
    3614:	55                   	push   %rbp
    3615:	48 89 e5             	mov    %rsp,%rbp
    3618:	48 83 ec 20          	sub    $0x20,%rsp
    361c:	48 89 7d e8          	mov    %rdi,-0x18(%rbp)
    3620:	89 75 e4             	mov    %esi,-0x1c(%rbp)
    3623:	64 48 8b 04 25 28 00 	mov    %fs:0x28,%rax
    362a:	00 00 
    362c:	48 89 45 f8          	mov    %rax,-0x8(%rbp)
    3630:	31 c0                	xor    %eax,%eax
    3632:	48 8b 45 e8          	mov    -0x18(%rbp),%rax
    3636:	8b 55 e4             	mov    -0x1c(%rbp),%edx
    3639:	41 89 d0             	mov    %edx,%r8d
    363c:	48 8d 0d c9 69 00 00 	lea    0x69c9(%rip),%rcx        # a00c <_ZN9__gnu_cxxL21__default_lock_policyE+0x4>
    3643:	ba 10 00 00 00       	mov    $0x10,%edx
    3648:	48 8b 35 71 c9 00 00 	mov    0xc971(%rip),%rsi        # ffc0 <vsnprintf@GLIBC_2.2.5>
    364f:	48 89 c7             	mov    %rax,%rdi
    3652:	b8 00 00 00 00       	mov    $0x0,%eax
    3657:	e8 02 05 00 00       	callq  3b5e <_ZN9__gnu_cxx12__to_xstringINSt7__cxx1112basic_stringIcSt11char_traitsIcESaIcEEEcEET_PFiPT0_mPKS8_P13__va_list_tagEmSB_z>
    365c:	48 8b 45 f8          	mov    -0x8(%rbp),%rax
    3660:	64 48 33 04 25 28 00 	xor    %fs:0x28,%rax
    3667:	00 00 
    3669:	74 05                	je     3670 <_ZNSt7__cxx119to_stringEi+0x60>
    366b:	e8 80 ee ff ff       	callq  24f0 <__stack_chk_fail@plt>
    3670:	48 8b 45 e8          	mov    -0x18(%rbp),%rax
    3674:	c9                   	leaveq 
    3675:	c3                   	retq   

0000000000003676 <_ZNSt19_Sp_make_shared_tag5_S_tiEv>:
    3676:	f3 0f 1e fa          	endbr64 
    367a:	55                   	push   %rbp
    367b:	48 89 e5             	mov    %rsp,%rbp
    367e:	48 8d 05 03 6b 00 00 	lea    0x6b03(%rip),%rax        # a188 <_ZZNSt19_Sp_make_shared_tag5_S_tiEvE5__tag>
    3685:	5d                   	pop    %rbp
    3686:	c3                   	retq   
    3687:	90                   	nop

0000000000003688 <_ZNSt8__detail15_Hash_node_baseC1Ev>:
    3688:	f3 0f 1e fa          	endbr64 
    368c:	55                   	push   %rbp
    368d:	48 89 e5             	mov    %rsp,%rbp
    3690:	48 89 7d f8          	mov    %rdi,-0x8(%rbp)
    3694:	48 8b 45 f8          	mov    -0x8(%rbp),%rax
    3698:	48 c7 00 00 00 00 00 	movq   $0x0,(%rax)
    369f:	90                   	nop
    36a0:	5d                   	pop    %rbp
    36a1:	c3                   	retq   

00000000000036a2 <_ZNKSt8__detail18_Mod_range_hashingclEmm>:
    36a2:	f3 0f 1e fa          	endbr64 
    36a6:	55                   	push   %rbp
    36a7:	48 89 e5             	mov    %rsp,%rbp
    36aa:	48 89 7d f8          	mov    %rdi,-0x8(%rbp)
    36ae:	48 89 75 f0          	mov    %rsi,-0x10(%rbp)
    36b2:	48 89 55 e8          	mov    %rdx,-0x18(%rbp)
    36b6:	48 8b 45 f0          	mov    -0x10(%rbp),%rax
    36ba:	ba 00 00 00 00       	mov    $0x0,%edx
    36bf:	48 f7 75 e8          	divq   -0x18(%rbp)
    36c3:	48 89 d0             	mov    %rdx,%rax
    36c6:	5d                   	pop    %rbp
    36c7:	c3                   	retq   

00000000000036c8 <_ZNSt8__detail20_Prime_rehash_policyC1Ef>:
    36c8:	f3 0f 1e fa          	endbr64 
    36cc:	55                   	push   %rbp
    36cd:	48 89 e5             	mov    %rsp,%rbp
    36d0:	48 89 7d f8          	mov    %rdi,-0x8(%rbp)
    36d4:	f3 0f 11 45 f4       	movss  %xmm0,-0xc(%rbp)
    36d9:	48 8b 45 f8          	mov    -0x8(%rbp),%rax
    36dd:	f3 0f 10 45 f4       	movss  -0xc(%rbp),%xmm0
    36e2:	f3 0f 11 00          	movss  %xmm0,(%rax)
    36e6:	48 8b 45 f8          	mov    -0x8(%rbp),%rax
    36ea:	48 c7 40 08 00 00 00 	movq   $0x0,0x8(%rax)
    36f1:	00 
    36f2:	90                   	nop
    36f3:	5d                   	pop    %rbp
    36f4:	c3                   	retq   
    36f5:	90                   	nop

00000000000036f6 <_ZNKSt8__detail20_Prime_rehash_policy8_M_stateEv>:
    36f6:	f3 0f 1e fa          	endbr64 
    36fa:	55                   	push   %rbp
    36fb:	48 89 e5             	mov    %rsp,%rbp
    36fe:	48 89 7d f8          	mov    %rdi,-0x8(%rbp)
    3702:	48 8b 45 f8          	mov    -0x8(%rbp),%rax
    3706:	48 8b 40 08          	mov    0x8(%rax),%rax
    370a:	5d                   	pop    %rbp
    370b:	c3                   	retq   

000000000000370c <_ZNSt8__detail20_Prime_rehash_policy8_M_resetEm>:
    370c:	f3 0f 1e fa          	endbr64 
    3710:	55                   	push   %rbp
    3711:	48 89 e5             	mov    %rsp,%rbp
    3714:	48 89 7d f8          	mov    %rdi,-0x8(%rbp)
    3718:	48 89 75 f0          	mov    %rsi,-0x10(%rbp)
    371c:	48 8b 45 f8          	mov    -0x8(%rbp),%rax
    3720:	48 8b 55 f0          	mov    -0x10(%rbp),%rdx
    3724:	48 89 50 08          	mov    %rdx,0x8(%rax)
    3728:	90                   	nop
    3729:	5d                   	pop    %rbp
    372a:	c3                   	retq   
    372b:	90                   	nop

000000000000372c <_ZNSt14_Function_baseC1Ev>:
    372c:	f3 0f 1e fa          	endbr64 
    3730:	55                   	push   %rbp
    3731:	48 89 e5             	mov    %rsp,%rbp
    3734:	48 89 7d f8          	mov    %rdi,-0x8(%rbp)
    3738:	48 8b 45 f8          	mov    -0x8(%rbp),%rax
    373c:	48 c7 40 10 00 00 00 	movq   $0x0,0x10(%rax)
    3743:	00 
    3744:	90                   	nop
    3745:	5d                   	pop    %rbp
    3746:	c3                   	retq   
    3747:	90                   	nop

0000000000003748 <_ZNSt14_Function_baseD1Ev>:
    3748:	f3 0f 1e fa          	endbr64 
    374c:	55                   	push   %rbp
    374d:	48 89 e5             	mov    %rsp,%rbp
    3750:	48 83 ec 10          	sub    $0x10,%rsp
    3754:	48 89 7d f8          	mov    %rdi,-0x8(%rbp)
    3758:	48 8b 45 f8          	mov    -0x8(%rbp),%rax
    375c:	48 8b 40 10          	mov    0x10(%rax),%rax
    3760:	48 85 c0             	test   %rax,%rax
    3763:	74 1e                	je     3783 <_ZNSt14_Function_baseD1Ev+0x3b>
    3765:	48 8b 45 f8          	mov    -0x8(%rbp),%rax
    3769:	4c 8b 40 10          	mov    0x10(%rax),%r8
    376d:	48 8b 4d f8          	mov    -0x8(%rbp),%rcx
    3771:	48 8b 45 f8          	mov    -0x8(%rbp),%rax
    3775:	ba 03 00 00 00       	mov    $0x3,%edx
    377a:	48 89 ce             	mov    %rcx,%rsi
    377d:	48 89 c7             	mov    %rax,%rdi
    3780:	41 ff d0             	callq  *%r8
    3783:	90                   	nop
    3784:	c9                   	leaveq 
    3785:	c3                   	retq   

0000000000003786 <_ZNKSt14_Function_base8_M_emptyEv>:
    3786:	f3 0f 1e fa          	endbr64 
    378a:	55                   	push   %rbp
    378b:	48 89 e5             	mov    %rsp,%rbp
    378e:	48 89 7d f8          	mov    %rdi,-0x8(%rbp)
    3792:	48 8b 45 f8          	mov    -0x8(%rbp),%rax
    3796:	48 8b 40 10          	mov    0x10(%rax),%rax
    379a:	48 85 c0             	test   %rax,%rax
    379d:	0f 94 c0             	sete   %al
    37a0:	5d                   	pop    %rbp
    37a1:	c3                   	retq   

00000000000037a2 <_ZNSt3any8_StorageC1Ev>:
    37a2:	f3 0f 1e fa          	endbr64 
    37a6:	55                   	push   %rbp
    37a7:	48 89 e5             	mov    %rsp,%rbp
    37aa:	48 89 7d f8          	mov    %rdi,-0x8(%rbp)
    37ae:	48 8b 45 f8          	mov    -0x8(%rbp),%rax
    37b2:	48 c7 00 00 00 00 00 	movq   $0x0,(%rax)
    37b9:	90                   	nop
    37ba:	5d                   	pop    %rbp
    37bb:	c3                   	retq   

00000000000037bc <_ZNSt3anyC1ERKS_>:
    37bc:	f3 0f 1e fa          	endbr64 
    37c0:	55                   	push   %rbp
    37c1:	48 89 e5             	mov    %rsp,%rbp
    37c4:	48 83 ec 20          	sub    $0x20,%rsp
    37c8:	48 89 7d e8          	mov    %rdi,-0x18(%rbp)
    37cc:	48 89 75 e0          	mov    %rsi,-0x20(%rbp)
    37d0:	64 48 8b 04 25 28 00 	mov    %fs:0x28,%rax
    37d7:	00 00 
    37d9:	48 89 45 f8          	mov    %rax,-0x8(%rbp)
    37dd:	31 c0                	xor    %eax,%eax
    37df:	48 8b 45 e8          	mov    -0x18(%rbp),%rax
    37e3:	48 83 c0 08          	add    $0x8,%rax
    37e7:	48 89 c7             	mov    %rax,%rdi
    37ea:	e8 b3 ff ff ff       	callq  37a2 <_ZNSt3any8_StorageC1Ev>
    37ef:	48 8b 45 e0          	mov    -0x20(%rbp),%rax
    37f3:	48 89 c7             	mov    %rax,%rdi
    37f6:	e8 b5 00 00 00       	callq  38b0 <_ZNKSt3any9has_valueEv>
    37fb:	83 f0 01             	xor    $0x1,%eax
    37fe:	84 c0                	test   %al,%al
    3800:	74 0d                	je     380f <_ZNSt3anyC1ERKS_+0x53>
    3802:	48 8b 45 e8          	mov    -0x18(%rbp),%rax
    3806:	48 c7 00 00 00 00 00 	movq   $0x0,(%rax)
    380d:	eb 21                	jmp    3830 <_ZNSt3anyC1ERKS_+0x74>
    380f:	48 8b 45 e8          	mov    -0x18(%rbp),%rax
    3813:	48 89 45 f0          	mov    %rax,-0x10(%rbp)
    3817:	48 8b 45 e0          	mov    -0x20(%rbp),%rax
    381b:	48 8b 08             	mov    (%rax),%rcx
    381e:	48 8d 55 f0          	lea    -0x10(%rbp),%rdx
    3822:	48 8b 45 e0          	mov    -0x20(%rbp),%rax
    3826:	48 89 c6             	mov    %rax,%rsi
    3829:	bf 02 00 00 00       	mov    $0x2,%edi
    382e:	ff d1                	callq  *%rcx
    3830:	90                   	nop
    3831:	48 8b 45 f8          	mov    -0x8(%rbp),%rax
    3835:	64 48 33 04 25 28 00 	xor    %fs:0x28,%rax
    383c:	00 00 
    383e:	74 05                	je     3845 <_ZNSt3anyC1ERKS_+0x89>
    3840:	e8 ab ec ff ff       	callq  24f0 <__stack_chk_fail@plt>
    3845:	c9                   	leaveq 
    3846:	c3                   	retq   
    3847:	90                   	nop

0000000000003848 <_ZNSt3anyD1Ev>:
    3848:	f3 0f 1e fa          	endbr64 
    384c:	55                   	push   %rbp
    384d:	48 89 e5             	mov    %rsp,%rbp
    3850:	48 83 ec 10          	sub    $0x10,%rsp
    3854:	48 89 7d f8          	mov    %rdi,-0x8(%rbp)
    3858:	48 8b 45 f8          	mov    -0x8(%rbp),%rax
    385c:	48 89 c7             	mov    %rax,%rdi
    385f:	e8 04 00 00 00       	callq  3868 <_ZNSt3any5resetEv>
    3864:	90                   	nop
    3865:	c9                   	leaveq 
    3866:	c3                   	retq   
    3867:	90                   	nop

0000000000003868 <_ZNSt3any5resetEv>:
    3868:	f3 0f 1e fa          	endbr64 
    386c:	55                   	push   %rbp
    386d:	48 89 e5             	mov    %rsp,%rbp
    3870:	48 83 ec 10          	sub    $0x10,%rsp
    3874:	48 89 7d f8          	mov    %rdi,-0x8(%rbp)
    3878:	48 8b 45 f8          	mov    -0x8(%rbp),%rax
    387c:	48 89 c7             	mov    %rax,%rdi
    387f:	e8 2c 00 00 00       	callq  38b0 <_ZNKSt3any9has_valueEv>
    3884:	84 c0                	test   %al,%al
    3886:	74 25                	je     38ad <_ZNSt3any5resetEv+0x45>
    3888:	48 8b 45 f8          	mov    -0x8(%rbp),%rax
    388c:	48 8b 08             	mov    (%rax),%rcx
    388f:	48 8b 45 f8          	mov    -0x8(%rbp),%rax
    3893:	ba 00 00 00 00       	mov    $0x0,%edx
    3898:	48 89 c6             	mov    %rax,%rsi
    389b:	bf 03 00 00 00       	mov    $0x3,%edi
    38a0:	ff d1                	callq  *%rcx
    38a2:	48 8b 45 f8          	mov    -0x8(%rbp),%rax
    38a6:	48 c7 00 00 00 00 00 	movq   $0x0,(%rax)
    38ad:	90                   	nop
    38ae:	c9                   	leaveq 
    38af:	c3                   	retq   

00000000000038b0 <_ZNKSt3any9has_valueEv>:
    38b0:	f3 0f 1e fa          	endbr64 
    38b4:	55                   	push   %rbp
    38b5:	48 89 e5             	mov    %rsp,%rbp
    38b8:	48 89 7d f8          	mov    %rdi,-0x8(%rbp)
    38bc:	48 8b 45 f8          	mov    -0x8(%rbp),%rax
    38c0:	48 8b 00             	mov    (%rax),%rax
    38c3:	48 85 c0             	test   %rax,%rax
    38c6:	0f 95 c0             	setne  %al
    38c9:	5d                   	pop    %rbp
    38ca:	c3                   	retq   
    38cb:	90                   	nop

00000000000038cc <_ZN15coroutine_mimic9Coroutine8getStateEv>:
    38cc:	f3 0f 1e fa          	endbr64 
    38d0:	55                   	push   %rbp
    38d1:	48 89 e5             	mov    %rsp,%rbp
    38d4:	48 89 7d f8          	mov    %rdi,-0x8(%rbp)
    38d8:	48 8b 45 f8          	mov    -0x8(%rbp),%rax
    38dc:	8b 80 e8 03 00 00    	mov    0x3e8(%rax),%eax
    38e2:	5d                   	pop    %rbp
    38e3:	c3                   	retq   

00000000000038e4 <_ZNSt8functionIFvPN15coroutine_mimic9SchedulerESt3anyEED1Ev>:
    38e4:	f3 0f 1e fa          	endbr64 
    38e8:	55                   	push   %rbp
    38e9:	48 89 e5             	mov    %rsp,%rbp
    38ec:	48 83 ec 10          	sub    $0x10,%rsp
    38f0:	48 89 7d f8          	mov    %rdi,-0x8(%rbp)
    38f4:	48 8b 45 f8          	mov    -0x8(%rbp),%rax
    38f8:	48 89 c7             	mov    %rax,%rdi
    38fb:	e8 48 fe ff ff       	callq  3748 <_ZNSt14_Function_baseD1Ev>
    3900:	90                   	nop
    3901:	c9                   	leaveq 
    3902:	c3                   	retq   
    3903:	90                   	nop

0000000000003904 <_ZNSt8__detail21_Hashtable_ebo_helperILi0ESaINS_10_Hash_nodeISt4pairIKmSt10shared_ptrIN15coroutine_mimic9CoroutineEEELb0EEEELb1EEC1Ev>:
    3904:	f3 0f 1e fa          	endbr64 
    3908:	55                   	push   %rbp
    3909:	48 89 e5             	mov    %rsp,%rbp
    390c:	48 83 ec 10          	sub    $0x10,%rsp
    3910:	48 89 7d f8          	mov    %rdi,-0x8(%rbp)
    3914:	48 8b 45 f8          	mov    -0x8(%rbp),%rax
    3918:	48 89 c7             	mov    %rax,%rdi
    391b:	e8 08 06 00 00       	callq  3f28 <_ZNSaINSt8__detail10_Hash_nodeISt4pairIKmSt10shared_ptrIN15coroutine_mimic9CoroutineEEELb0EEEEC1Ev>
    3920:	90                   	nop
    3921:	c9                   	leaveq 
    3922:	c3                   	retq   
    3923:	90                   	nop

0000000000003924 <_ZNSt8__detail21_Hashtable_ebo_helperILi0ESaINS_10_Hash_nodeISt4pairIKmSt10shared_ptrIN15coroutine_mimic9CoroutineEEELb0EEEELb1EED1Ev>:
    3924:	f3 0f 1e fa          	endbr64 
    3928:	55                   	push   %rbp
    3929:	48 89 e5             	mov    %rsp,%rbp
    392c:	48 83 ec 10          	sub    $0x10,%rsp
    3930:	48 89 7d f8          	mov    %rdi,-0x8(%rbp)
    3934:	48 8b 45 f8          	mov    -0x8(%rbp),%rax
    3938:	48 89 c7             	mov    %rax,%rdi
    393b:	e8 08 06 00 00       	callq  3f48 <_ZNSaINSt8__detail10_Hash_nodeISt4pairIKmSt10shared_ptrIN15coroutine_mimic9CoroutineEEELb0EEEED1Ev>
    3940:	90                   	nop
    3941:	c9                   	leaveq 
    3942:	c3                   	retq   
    3943:	90                   	nop

0000000000003944 <_ZNSt8__detail16_Hashtable_allocISaINS_10_Hash_nodeISt4pairIKmSt10shared_ptrIN15coroutine_mimic9CoroutineEEELb0EEEEEC1Ev>:
    3944:	f3 0f 1e fa          	endbr64 
    3948:	55                   	push   %rbp
    3949:	48 89 e5             	mov    %rsp,%rbp
    394c:	48 83 ec 10          	sub    $0x10,%rsp
    3950:	48 89 7d f8          	mov    %rdi,-0x8(%rbp)
    3954:	48 8b 45 f8          	mov    -0x8(%rbp),%rax
    3958:	48 89 c7             	mov    %rax,%rdi
    395b:	e8 a4 ff ff ff       	callq  3904 <_ZNSt8__detail21_Hashtable_ebo_helperILi0ESaINS_10_Hash_nodeISt4pairIKmSt10shared_ptrIN15coroutine_mimic9CoroutineEEELb0EEEELb1EEC1Ev>
    3960:	90                   	nop
    3961:	c9                   	leaveq 
    3962:	c3                   	retq   
    3963:	90                   	nop

0000000000003964 <_ZNSt8__detail16_Hashtable_allocISaINS_10_Hash_nodeISt4pairIKmSt10shared_ptrIN15coroutine_mimic9CoroutineEEELb0EEEEED1Ev>:
    3964:	f3 0f 1e fa          	endbr64 
    3968:	55                   	push   %rbp
    3969:	48 89 e5             	mov    %rsp,%rbp
    396c:	48 83 ec 10          	sub    $0x10,%rsp
    3970:	48 89 7d f8          	mov    %rdi,-0x8(%rbp)
    3974:	48 8b 45 f8          	mov    -0x8(%rbp),%rax
    3978:	48 89 c7             	mov    %rax,%rdi
    397b:	e8 a4 ff ff ff       	callq  3924 <_ZNSt8__detail21_Hashtable_ebo_helperILi0ESaINS_10_Hash_nodeISt4pairIKmSt10shared_ptrIN15coroutine_mimic9CoroutineEEELb0EEEELb1EED1Ev>
    3980:	90                   	nop
    3981:	c9                   	leaveq 
    3982:	c3                   	retq   
    3983:	90                   	nop

0000000000003984 <_ZNSt10_HashtableImSt4pairIKmSt10shared_ptrIN15coroutine_mimic9CoroutineEEESaIS6_ENSt8__detail10_Select1stESt8equal_toImESt4hashImENS8_18_Mod_range_hashingENS8_20_Default_ranged_hashENS8_20_Prime_rehash_policyENS8_17_Hashtable_traitsILb0ELb0ELb1EEEEC1Ev>:
    3984:	f3 0f 1e fa          	endbr64 
    3988:	55                   	push   %rbp
    3989:	48 89 e5             	mov    %rsp,%rbp
    398c:	48 83 ec 10          	sub    $0x10,%rsp
    3990:	48 89 7d f8          	mov    %rdi,-0x8(%rbp)
    3994:	48 8b 45 f8          	mov    -0x8(%rbp),%rax
    3998:	48 89 c7             	mov    %rax,%rdi
    399b:	e8 a4 ff ff ff       	callq  3944 <_ZNSt8__detail16_Hashtable_allocISaINS_10_Hash_nodeISt4pairIKmSt10shared_ptrIN15coroutine_mimic9CoroutineEEELb0EEEEEC1Ev>
    39a0:	48 8b 45 f8          	mov    -0x8(%rbp),%rax
    39a4:	48 8d 50 30          	lea    0x30(%rax),%rdx
    39a8:	48 8b 45 f8          	mov    -0x8(%rbp),%rax
    39ac:	48 89 10             	mov    %rdx,(%rax)
    39af:	48 8b 45 f8          	mov    -0x8(%rbp),%rax
    39b3:	48 c7 40 08 01 00 00 	movq   $0x1,0x8(%rax)
    39ba:	00 
    39bb:	48 8b 45 f8          	mov    -0x8(%rbp),%rax
    39bf:	48 83 c0 10          	add    $0x10,%rax
    39c3:	48 89 c7             	mov    %rax,%rdi
    39c6:	e8 bd fc ff ff       	callq  3688 <_ZNSt8__detail15_Hash_node_baseC1Ev>
    39cb:	48 8b 45 f8          	mov    -0x8(%rbp),%rax
    39cf:	48 c7 40 18 00 00 00 	movq   $0x0,0x18(%rax)
    39d6:	00 
    39d7:	48 8b 45 f8          	mov    -0x8(%rbp),%rax
    39db:	48 83 c0 20          	add    $0x20,%rax
    39df:	f3 0f 10 05 9d 67 00 	movss  0x679d(%rip),%xmm0        # a184 <_ZN6__pstl9execution2v1L5unseqE+0x172>
    39e6:	00 
    39e7:	48 89 c7             	mov    %rax,%rdi
    39ea:	e8 d9 fc ff ff       	callq  36c8 <_ZNSt8__detail20_Prime_rehash_policyC1Ef>
    39ef:	48 8b 45 f8          	mov    -0x8(%rbp),%rax
    39f3:	48 c7 40 30 00 00 00 	movq   $0x0,0x30(%rax)
    39fa:	00 
    39fb:	90                   	nop
    39fc:	c9                   	leaveq 
    39fd:	c3                   	retq   

00000000000039fe <_ZNSt13unordered_mapImSt10shared_ptrIN15coroutine_mimic9CoroutineEESt4hashImESt8equal_toImESaISt4pairIKmS3_EEEC1Ev>:
    39fe:	f3 0f 1e fa          	endbr64 
    3a02:	55                   	push   %rbp
    3a03:	48 89 e5             	mov    %rsp,%rbp
    3a06:	48 83 ec 10          	sub    $0x10,%rsp
    3a0a:	48 89 7d f8          	mov    %rdi,-0x8(%rbp)
    3a0e:	48 8b 45 f8          	mov    -0x8(%rbp),%rax
    3a12:	48 89 c7             	mov    %rax,%rdi
    3a15:	e8 6a ff ff ff       	callq  3984 <_ZNSt10_HashtableImSt4pairIKmSt10shared_ptrIN15coroutine_mimic9CoroutineEEESaIS6_ENSt8__detail10_Select1stESt8equal_toImESt4hashImENS8_18_Mod_range_hashingENS8_20_Default_ranged_hashENS8_20_Prime_rehash_policyENS8_17_Hashtable_traitsILb0ELb0ELb1EEEEC1Ev>
    3a1a:	90                   	nop
    3a1b:	c9                   	leaveq 
    3a1c:	c3                   	retq   
    3a1d:	90                   	nop

0000000000003a1e <_ZNSt13unordered_mapImSt10shared_ptrIN15coroutine_mimic9CoroutineEESt4hashImESt8equal_toImESaISt4pairIKmS3_EEED1Ev>:
    3a1e:	f3 0f 1e fa          	endbr64 
    3a22:	55                   	push   %rbp
    3a23:	48 89 e5             	mov    %rsp,%rbp
    3a26:	48 83 ec 10          	sub    $0x10,%rsp
    3a2a:	48 89 7d f8          	mov    %rdi,-0x8(%rbp)
    3a2e:	48 8b 45 f8          	mov    -0x8(%rbp),%rax
    3a32:	48 89 c7             	mov    %rax,%rdi
    3a35:	e8 2e 05 00 00       	callq  3f68 <_ZNSt10_HashtableImSt4pairIKmSt10shared_ptrIN15coroutine_mimic9CoroutineEEESaIS6_ENSt8__detail10_Select1stESt8equal_toImESt4hashImENS8_18_Mod_range_hashingENS8_20_Default_ranged_hashENS8_20_Prime_rehash_policyENS8_17_Hashtable_traitsILb0ELb0ELb1EEEED1Ev>
    3a3a:	90                   	nop
    3a3b:	c9                   	leaveq 
    3a3c:	c3                   	retq   
    3a3d:	90                   	nop

0000000000003a3e <_ZNSt12__shared_ptrIN15coroutine_mimic9CoroutineELN9__gnu_cxx12_Lock_policyE2EED1Ev>:
    3a3e:	f3 0f 1e fa          	endbr64 
    3a42:	55                   	push   %rbp
    3a43:	48 89 e5             	mov    %rsp,%rbp
    3a46:	48 83 ec 10          	sub    $0x10,%rsp
    3a4a:	48 89 7d f8          	mov    %rdi,-0x8(%rbp)
    3a4e:	48 8b 45 f8          	mov    -0x8(%rbp),%rax
    3a52:	48 83 c0 08          	add    $0x8,%rax
    3a56:	48 89 c7             	mov    %rax,%rdi
    3a59:	e8 8a 06 00 00       	callq  40e8 <_ZNSt14__shared_countILN9__gnu_cxx12_Lock_policyE2EED1Ev>
    3a5e:	90                   	nop
    3a5f:	c9                   	leaveq 
    3a60:	c3                   	retq   
    3a61:	90                   	nop

0000000000003a62 <_ZNSt10shared_ptrIN15coroutine_mimic9CoroutineEED1Ev>:
    3a62:	f3 0f 1e fa          	endbr64 
    3a66:	55                   	push   %rbp
    3a67:	48 89 e5             	mov    %rsp,%rbp
    3a6a:	48 83 ec 10          	sub    $0x10,%rsp
    3a6e:	48 89 7d f8          	mov    %rdi,-0x8(%rbp)
    3a72:	48 8b 45 f8          	mov    -0x8(%rbp),%rax
    3a76:	48 89 c7             	mov    %rax,%rdi
    3a79:	e8 c0 ff ff ff       	callq  3a3e <_ZNSt12__shared_ptrIN15coroutine_mimic9CoroutineELN9__gnu_cxx12_Lock_policyE2EED1Ev>
    3a7e:	90                   	nop
    3a7f:	c9                   	leaveq 
    3a80:	c3                   	retq   
    3a81:	90                   	nop

0000000000003a82 <_ZNSt12__shared_ptrIN15coroutine_mimic9CoroutineELN9__gnu_cxx12_Lock_policyE2EEaSERKS4_>:
    3a82:	f3 0f 1e fa          	endbr64 
    3a86:	55                   	push   %rbp
    3a87:	48 89 e5             	mov    %rsp,%rbp
    3a8a:	48 83 ec 10          	sub    $0x10,%rsp
    3a8e:	48 89 7d f8          	mov    %rdi,-0x8(%rbp)
    3a92:	48 89 75 f0          	mov    %rsi,-0x10(%rbp)
    3a96:	48 8b 45 f0          	mov    -0x10(%rbp),%rax
    3a9a:	48 8b 10             	mov    (%rax),%rdx
    3a9d:	48 8b 45 f8          	mov    -0x8(%rbp),%rax
    3aa1:	48 89 10             	mov    %rdx,(%rax)
    3aa4:	48 8b 45 f0          	mov    -0x10(%rbp),%rax
    3aa8:	48 8d 50 08          	lea    0x8(%rax),%rdx
    3aac:	48 8b 45 f8          	mov    -0x8(%rbp),%rax
    3ab0:	48 83 c0 08          	add    $0x8,%rax
    3ab4:	48 89 d6             	mov    %rdx,%rsi
    3ab7:	48 89 c7             	mov    %rax,%rdi
    3aba:	e8 81 06 00 00       	callq  4140 <_ZNSt14__shared_countILN9__gnu_cxx12_Lock_policyE2EEaSERKS2_>
    3abf:	48 8b 45 f8          	mov    -0x8(%rbp),%rax
    3ac3:	c9                   	leaveq 
    3ac4:	c3                   	retq   
    3ac5:	90                   	nop

0000000000003ac6 <_ZNSt10shared_ptrIN15coroutine_mimic9CoroutineEEaSERKS2_>:
    3ac6:	f3 0f 1e fa          	endbr64 
    3aca:	55                   	push   %rbp
    3acb:	48 89 e5             	mov    %rsp,%rbp
    3ace:	48 83 ec 10          	sub    $0x10,%rsp
    3ad2:	48 89 7d f8          	mov    %rdi,-0x8(%rbp)
    3ad6:	48 89 75 f0          	mov    %rsi,-0x10(%rbp)
    3ada:	48 8b 45 f8          	mov    -0x8(%rbp),%rax
    3ade:	48 8b 55 f0          	mov    -0x10(%rbp),%rdx
    3ae2:	48 89 d6             	mov    %rdx,%rsi
    3ae5:	48 89 c7             	mov    %rax,%rdi
    3ae8:	e8 95 ff ff ff       	callq  3a82 <_ZNSt12__shared_ptrIN15coroutine_mimic9CoroutineELN9__gnu_cxx12_Lock_policyE2EEaSERKS4_>
    3aed:	48 8b 45 f8          	mov    -0x8(%rbp),%rax
    3af1:	c9                   	leaveq 
    3af2:	c3                   	retq   
    3af3:	90                   	nop

0000000000003af4 <_ZNSt12__shared_ptrIN15coroutine_mimic9CoroutineELN9__gnu_cxx12_Lock_policyE2EEC1ERKS4_>:
    3af4:	f3 0f 1e fa          	endbr64 
    3af8:	55                   	push   %rbp
    3af9:	48 89 e5             	mov    %rsp,%rbp
    3afc:	48 83 ec 10          	sub    $0x10,%rsp
    3b00:	48 89 7d f8          	mov    %rdi,-0x8(%rbp)
    3b04:	48 89 75 f0          	mov    %rsi,-0x10(%rbp)
    3b08:	48 8b 45 f0          	mov    -0x10(%rbp),%rax
    3b0c:	48 8b 10             	mov    (%rax),%rdx
    3b0f:	48 8b 45 f8          	mov    -0x8(%rbp),%rax
    3b13:	48 89 10             	mov    %rdx,(%rax)
    3b16:	48 8b 45 f8          	mov    -0x8(%rbp),%rax
    3b1a:	48 83 c0 08          	add    $0x8,%rax
    3b1e:	48 8b 55 f0          	mov    -0x10(%rbp),%rdx
    3b22:	48 83 c2 08          	add    $0x8,%rdx
    3b26:	48 89 d6             	mov    %rdx,%rsi
    3b29:	48 89 c7             	mov    %rax,%rdi
    3b2c:	e8 cb 06 00 00       	callq  41fc <_ZNSt14__shared_countILN9__gnu_cxx12_Lock_policyE2EEC1ERKS2_>
    3b31:	90                   	nop
    3b32:	c9                   	leaveq 
    3b33:	c3                   	retq   

0000000000003b34 <_ZNSt10shared_ptrIN15coroutine_mimic9CoroutineEEC1ERKS2_>:
    3b34:	f3 0f 1e fa          	endbr64 
    3b38:	55                   	push   %rbp
    3b39:	48 89 e5             	mov    %rsp,%rbp
    3b3c:	48 83 ec 10          	sub    $0x10,%rsp
    3b40:	48 89 7d f8          	mov    %rdi,-0x8(%rbp)
    3b44:	48 89 75 f0          	mov    %rsi,-0x10(%rbp)
    3b48:	48 8b 45 f8          	mov    -0x8(%rbp),%rax
    3b4c:	48 8b 55 f0          	mov    -0x10(%rbp),%rdx
    3b50:	48 89 d6             	mov    %rdx,%rsi
    3b53:	48 89 c7             	mov    %rax,%rdi
    3b56:	e8 99 ff ff ff       	callq  3af4 <_ZNSt12__shared_ptrIN15coroutine_mimic9CoroutineELN9__gnu_cxx12_Lock_policyE2EEC1ERKS4_>
    3b5b:	90                   	nop
    3b5c:	c9                   	leaveq 
    3b5d:	c3                   	retq   

0000000000003b5e <_ZN9__gnu_cxx12__to_xstringINSt7__cxx1112basic_stringIcSt11char_traitsIcESaIcEEEcEET_PFiPT0_mPKS8_P13__va_list_tagEmSB_z>:
    3b5e:	f3 0f 1e fa          	endbr64 
    3b62:	55                   	push   %rbp
    3b63:	48 89 e5             	mov    %rsp,%rbp
    3b66:	53                   	push   %rbx
    3b67:	48 81 ec 08 01 00 00 	sub    $0x108,%rsp
    3b6e:	48 89 bd 08 ff ff ff 	mov    %rdi,-0xf8(%rbp)
    3b75:	48 89 b5 00 ff ff ff 	mov    %rsi,-0x100(%rbp)
    3b7c:	48 89 95 f8 fe ff ff 	mov    %rdx,-0x108(%rbp)
    3b83:	48 89 8d f0 fe ff ff 	mov    %rcx,-0x110(%rbp)
    3b8a:	4c 89 85 60 ff ff ff 	mov    %r8,-0xa0(%rbp)
    3b91:	4c 89 8d 68 ff ff ff 	mov    %r9,-0x98(%rbp)
    3b98:	84 c0                	test   %al,%al
    3b9a:	74 23                	je     3bbf <_ZN9__gnu_cxx12__to_xstringINSt7__cxx1112basic_stringIcSt11char_traitsIcESaIcEEEcEET_PFiPT0_mPKS8_P13__va_list_tagEmSB_z+0x61>
    3b9c:	0f 29 85 70 ff ff ff 	movaps %xmm0,-0x90(%rbp)
    3ba3:	0f 29 4d 80          	movaps %xmm1,-0x80(%rbp)
    3ba7:	0f 29 55 90          	movaps %xmm2,-0x70(%rbp)
    3bab:	0f 29 5d a0          	movaps %xmm3,-0x60(%rbp)
    3baf:	0f 29 65 b0          	movaps %xmm4,-0x50(%rbp)
    3bb3:	0f 29 6d c0          	movaps %xmm5,-0x40(%rbp)
    3bb7:	0f 29 75 d0          	movaps %xmm6,-0x30(%rbp)
    3bbb:	0f 29 7d e0          	movaps %xmm7,-0x20(%rbp)
    3bbf:	64 48 8b 04 25 28 00 	mov    %fs:0x28,%rax
    3bc6:	00 00 
    3bc8:	48 89 85 38 ff ff ff 	mov    %rax,-0xc8(%rbp)
    3bcf:	31 c0                	xor    %eax,%eax
    3bd1:	48 8b 85 f8 fe ff ff 	mov    -0x108(%rbp),%rax
    3bd8:	48 8d 50 08          	lea    0x8(%rax),%rdx
    3bdc:	b8 10 00 00 00       	mov    $0x10,%eax
    3be1:	48 83 e8 01          	sub    $0x1,%rax
    3be5:	48 01 d0             	add    %rdx,%rax
    3be8:	b9 10 00 00 00       	mov    $0x10,%ecx
    3bed:	ba 00 00 00 00       	mov    $0x0,%edx
    3bf2:	48 f7 f1             	div    %rcx
    3bf5:	48 6b c0 10          	imul   $0x10,%rax,%rax
    3bf9:	48 89 c2             	mov    %rax,%rdx
    3bfc:	48 81 e2 00 f0 ff ff 	and    $0xfffffffffffff000,%rdx
    3c03:	48 89 e3             	mov    %rsp,%rbx
    3c06:	48 29 d3             	sub    %rdx,%rbx
    3c09:	48 89 da             	mov    %rbx,%rdx
    3c0c:	48 39 d4             	cmp    %rdx,%rsp
    3c0f:	74 12                	je     3c23 <_ZN9__gnu_cxx12__to_xstringINSt7__cxx1112basic_stringIcSt11char_traitsIcESaIcEEEcEET_PFiPT0_mPKS8_P13__va_list_tagEmSB_z+0xc5>
    3c11:	48 81 ec 00 10 00 00 	sub    $0x1000,%rsp
    3c18:	48 83 8c 24 f8 0f 00 	orq    $0x0,0xff8(%rsp)
    3c1f:	00 00 
    3c21:	eb e9                	jmp    3c0c <_ZN9__gnu_cxx12__to_xstringINSt7__cxx1112basic_stringIcSt11char_traitsIcESaIcEEEcEET_PFiPT0_mPKS8_P13__va_list_tagEmSB_z+0xae>
    3c23:	48 89 c2             	mov    %rax,%rdx
    3c26:	81 e2 ff 0f 00 00    	and    $0xfff,%edx
    3c2c:	48 29 d4             	sub    %rdx,%rsp
    3c2f:	48 89 c2             	mov    %rax,%rdx
    3c32:	81 e2 ff 0f 00 00    	and    $0xfff,%edx
    3c38:	48 85 d2             	test   %rdx,%rdx
    3c3b:	74 10                	je     3c4d <_ZN9__gnu_cxx12__to_xstringINSt7__cxx1112basic_stringIcSt11char_traitsIcESaIcEEEcEET_PFiPT0_mPKS8_P13__va_list_tagEmSB_z+0xef>
    3c3d:	25 ff 0f 00 00       	and    $0xfff,%eax
    3c42:	48 83 e8 08          	sub    $0x8,%rax
    3c46:	48 01 e0             	add    %rsp,%rax
    3c49:	48 83 08 00          	orq    $0x0,(%rax)
    3c4d:	48 89 e0             	mov    %rsp,%rax
    3c50:	48 83 c0 0f          	add    $0xf,%rax
    3c54:	48 c1 e8 04          	shr    $0x4,%rax
    3c58:	48 c1 e0 04          	shl    $0x4,%rax
    3c5c:	48 89 85 18 ff ff ff 	mov    %rax,-0xe8(%rbp)
    3c63:	c7 85 20 ff ff ff 20 	movl   $0x20,-0xe0(%rbp)
    3c6a:	00 00 00 
    3c6d:	c7 85 24 ff ff ff 30 	movl   $0x30,-0xdc(%rbp)
    3c74:	00 00 00 
    3c77:	48 8d 45 10          	lea    0x10(%rbp),%rax
    3c7b:	48 89 85 28 ff ff ff 	mov    %rax,-0xd8(%rbp)
    3c82:	48 8d 85 40 ff ff ff 	lea    -0xc0(%rbp),%rax
    3c89:	48 89 85 30 ff ff ff 	mov    %rax,-0xd0(%rbp)
    3c90:	4c 8b 85 00 ff ff ff 	mov    -0x100(%rbp),%r8
    3c97:	48 8d 8d 20 ff ff ff 	lea    -0xe0(%rbp),%rcx
    3c9e:	48 8b 95 f0 fe ff ff 	mov    -0x110(%rbp),%rdx
    3ca5:	48 8b b5 f8 fe ff ff 	mov    -0x108(%rbp),%rsi
    3cac:	48 8b 85 18 ff ff ff 	mov    -0xe8(%rbp),%rax
    3cb3:	48 89 c7             	mov    %rax,%rdi
    3cb6:	41 ff d0             	callq  *%r8
    3cb9:	89 85 14 ff ff ff    	mov    %eax,-0xec(%rbp)
    3cbf:	48 8d 85 13 ff ff ff 	lea    -0xed(%rbp),%rax
    3cc6:	48 89 c7             	mov    %rax,%rdi
    3cc9:	e8 e2 e8 ff ff       	callq  25b0 <_ZNSaIcEC1Ev@plt>
    3cce:	8b 85 14 ff ff ff    	mov    -0xec(%rbp),%eax
    3cd4:	48 63 d0             	movslq %eax,%rdx
    3cd7:	48 8b 85 18 ff ff ff 	mov    -0xe8(%rbp),%rax
    3cde:	48 8d 3c 02          	lea    (%rdx,%rax,1),%rdi
    3ce2:	48 8d 95 13 ff ff ff 	lea    -0xed(%rbp),%rdx
    3ce9:	48 8b b5 18 ff ff ff 	mov    -0xe8(%rbp),%rsi
    3cf0:	48 8b 85 08 ff ff ff 	mov    -0xf8(%rbp),%rax
    3cf7:	48 89 d1             	mov    %rdx,%rcx
    3cfa:	48 89 fa             	mov    %rdi,%rdx
    3cfd:	48 89 c7             	mov    %rax,%rdi
    3d00:	e8 a5 06 00 00       	callq  43aa <_ZNSt7__cxx1112basic_stringIcSt11char_traitsIcESaIcEEC1IPcvEET_S7_RKS3_>
    3d05:	48 8d 85 13 ff ff ff 	lea    -0xed(%rbp),%rax
    3d0c:	48 89 c7             	mov    %rax,%rdi
    3d0f:	e8 bc e7 ff ff       	callq  24d0 <_ZNSaIcED1Ev@plt>
    3d14:	48 8b 85 38 ff ff ff 	mov    -0xc8(%rbp),%rax
    3d1b:	64 48 33 04 25 28 00 	xor    %fs:0x28,%rax
    3d22:	00 00 
    3d24:	74 28                	je     3d4e <_ZN9__gnu_cxx12__to_xstringINSt7__cxx1112basic_stringIcSt11char_traitsIcESaIcEEEcEET_PFiPT0_mPKS8_P13__va_list_tagEmSB_z+0x1f0>
    3d26:	eb 21                	jmp    3d49 <_ZN9__gnu_cxx12__to_xstringINSt7__cxx1112basic_stringIcSt11char_traitsIcESaIcEEEcEET_PFiPT0_mPKS8_P13__va_list_tagEmSB_z+0x1eb>
    3d28:	f3 0f 1e fa          	endbr64 
    3d2c:	48 89 c3             	mov    %rax,%rbx
    3d2f:	48 8d 85 13 ff ff ff 	lea    -0xed(%rbp),%rax
    3d36:	48 89 c7             	mov    %rax,%rdi
    3d39:	e8 92 e7 ff ff       	callq  24d0 <_ZNSaIcED1Ev@plt>
    3d3e:	48 89 d8             	mov    %rbx,%rax
    3d41:	48 89 c7             	mov    %rax,%rdi
    3d44:	e8 57 e8 ff ff       	callq  25a0 <_Unwind_Resume@plt>
    3d49:	e8 a2 e7 ff ff       	callq  24f0 <__stack_chk_fail@plt>
    3d4e:	48 8b 85 08 ff ff ff 	mov    -0xf8(%rbp),%rax
    3d55:	48 8b 5d f8          	mov    -0x8(%rbp),%rbx
    3d59:	c9                   	leaveq 
    3d5a:	c3                   	retq   
    3d5b:	90                   	nop

0000000000003d5c <_ZNSt7__cxx1112basic_stringIcSt11char_traitsIcESaIcEE12_Alloc_hiderD1Ev>:
    3d5c:	f3 0f 1e fa          	endbr64 
    3d60:	55                   	push   %rbp
    3d61:	48 89 e5             	mov    %rsp,%rbp
    3d64:	48 83 ec 10          	sub    $0x10,%rsp
    3d68:	48 89 7d f8          	mov    %rdi,-0x8(%rbp)
    3d6c:	48 8b 45 f8          	mov    -0x8(%rbp),%rax
    3d70:	48 89 c7             	mov    %rax,%rdi
    3d73:	e8 b8 e5 ff ff       	callq  2330 <_ZNSaIcED2Ev@plt>
    3d78:	90                   	nop
    3d79:	c9                   	leaveq 
    3d7a:	c3                   	retq   
    3d7b:	90                   	nop

0000000000003d7c <_ZNSt5tupleIJPhSt14default_deleteIhEEEC1IS0_S2_Lb1EEEv>:
    3d7c:	f3 0f 1e fa          	endbr64 
    3d80:	55                   	push   %rbp
    3d81:	48 89 e5             	mov    %rsp,%rbp
    3d84:	48 83 ec 10          	sub    $0x10,%rsp
    3d88:	48 89 7d f8          	mov    %rdi,-0x8(%rbp)
    3d8c:	48 8b 45 f8          	mov    -0x8(%rbp),%rax
    3d90:	48 89 c7             	mov    %rax,%rdi
    3d93:	e8 92 06 00 00       	callq  442a <_ZNSt11_Tuple_implILm0EJPhSt14default_deleteIhEEEC1Ev>
    3d98:	90                   	nop
    3d99:	c9                   	leaveq 
    3d9a:	c3                   	retq   
    3d9b:	90                   	nop

0000000000003d9c <_ZNSt15__uniq_ptr_implIhSt14default_deleteIhEEC1Ev>:
    3d9c:	f3 0f 1e fa          	endbr64 
    3da0:	55                   	push   %rbp
    3da1:	48 89 e5             	mov    %rsp,%rbp
    3da4:	48 83 ec 10          	sub    $0x10,%rsp
    3da8:	48 89 7d f8          	mov    %rdi,-0x8(%rbp)
    3dac:	48 8b 45 f8          	mov    -0x8(%rbp),%rax
    3db0:	48 89 c7             	mov    %rax,%rdi
    3db3:	e8 c4 ff ff ff       	callq  3d7c <_ZNSt5tupleIJPhSt14default_deleteIhEEEC1IS0_S2_Lb1EEEv>
    3db8:	90                   	nop
    3db9:	c9                   	leaveq 
    3dba:	c3                   	retq   
    3dbb:	90                   	nop

0000000000003dbc <_ZNSt10unique_ptrIhSt14default_deleteIhEEC1IS1_vEEDn>:
    3dbc:	f3 0f 1e fa          	endbr64 
    3dc0:	55                   	push   %rbp
    3dc1:	48 89 e5             	mov    %rsp,%rbp
    3dc4:	48 83 ec 10          	sub    $0x10,%rsp
    3dc8:	48 89 7d f8          	mov    %rdi,-0x8(%rbp)
    3dcc:	48 89 75 f0          	mov    %rsi,-0x10(%rbp)
    3dd0:	48 8b 45 f8          	mov    -0x8(%rbp),%rax
    3dd4:	48 c7 00 00 00 00 00 	movq   $0x0,(%rax)
    3ddb:	48 8b 45 f8          	mov    -0x8(%rbp),%rax
    3ddf:	48 89 c7             	mov    %rax,%rdi
    3de2:	e8 b5 ff ff ff       	callq  3d9c <_ZNSt15__uniq_ptr_implIhSt14default_deleteIhEEC1Ev>
    3de7:	90                   	nop
    3de8:	c9                   	leaveq 
    3de9:	c3                   	retq   

0000000000003dea <_ZNSt10unique_ptrIhSt14default_deleteIhEED1Ev>:
    3dea:	f3 0f 1e fa          	endbr64 
    3dee:	55                   	push   %rbp
    3def:	48 89 e5             	mov    %rsp,%rbp
    3df2:	53                   	push   %rbx
    3df3:	48 83 ec 28          	sub    $0x28,%rsp
    3df7:	48 89 7d d8          	mov    %rdi,-0x28(%rbp)
    3dfb:	48 8b 45 d8          	mov    -0x28(%rbp),%rax
    3dff:	48 89 c7             	mov    %rax,%rdi
    3e02:	e8 4f 06 00 00       	callq  4456 <_ZNSt15__uniq_ptr_implIhSt14default_deleteIhEE6_M_ptrEv>
    3e07:	48 89 45 e8          	mov    %rax,-0x18(%rbp)
    3e0b:	48 8b 45 e8          	mov    -0x18(%rbp),%rax
    3e0f:	48 8b 00             	mov    (%rax),%rax
    3e12:	48 85 c0             	test   %rax,%rax
    3e15:	74 29                	je     3e40 <_ZNSt10unique_ptrIhSt14default_deleteIhEED1Ev+0x56>
    3e17:	48 8b 45 d8          	mov    -0x28(%rbp),%rax
    3e1b:	48 89 c7             	mov    %rax,%rdi
    3e1e:	e8 51 06 00 00       	callq  4474 <_ZNSt10unique_ptrIhSt14default_deleteIhEE11get_deleterEv>
    3e23:	48 89 c3             	mov    %rax,%rbx
    3e26:	48 8b 45 e8          	mov    -0x18(%rbp),%rax
    3e2a:	48 89 c7             	mov    %rax,%rdi
    3e2d:	e8 60 06 00 00       	callq  4492 <_ZSt4moveIRPhEONSt16remove_referenceIT_E4typeEOS3_>
    3e32:	48 8b 00             	mov    (%rax),%rax
    3e35:	48 89 c6             	mov    %rax,%rsi
    3e38:	48 89 df             	mov    %rbx,%rdi
    3e3b:	e8 64 06 00 00       	callq  44a4 <_ZNKSt14default_deleteIhEclEPh>
    3e40:	48 8b 45 e8          	mov    -0x18(%rbp),%rax
    3e44:	48 c7 00 00 00 00 00 	movq   $0x0,(%rax)
    3e4b:	90                   	nop
    3e4c:	48 83 c4 28          	add    $0x28,%rsp
    3e50:	5b                   	pop    %rbx
    3e51:	5d                   	pop    %rbp
    3e52:	c3                   	retq   
    3e53:	90                   	nop

0000000000003e54 <_ZNSt8functionIFvPN15coroutine_mimic9SchedulerESt3anyEEC1ERKS5_>:
    3e54:	f3 0f 1e fa          	endbr64 
    3e58:	55                   	push   %rbp
    3e59:	48 89 e5             	mov    %rsp,%rbp
    3e5c:	53                   	push   %rbx
    3e5d:	48 83 ec 18          	sub    $0x18,%rsp
    3e61:	48 89 7d e8          	mov    %rdi,-0x18(%rbp)
    3e65:	48 89 75 e0          	mov    %rsi,-0x20(%rbp)
    3e69:	48 8b 45 e8          	mov    -0x18(%rbp),%rax
    3e6d:	48 89 c7             	mov    %rax,%rdi
    3e70:	e8 b7 f8 ff ff       	callq  372c <_ZNSt14_Function_baseC1Ev>
    3e75:	48 8b 45 e0          	mov    -0x20(%rbp),%rax
    3e79:	48 89 c7             	mov    %rax,%rdi
    3e7c:	e8 51 06 00 00       	callq  44d2 <_ZNKSt8functionIFvPN15coroutine_mimic9SchedulerESt3anyEEcvbEv>
    3e81:	84 c0                	test   %al,%al
    3e83:	74 5e                	je     3ee3 <_ZNSt8functionIFvPN15coroutine_mimic9SchedulerESt3anyEEC1ERKS5_+0x8f>
    3e85:	48 8b 45 e0          	mov    -0x20(%rbp),%rax
    3e89:	4c 8b 40 10          	mov    0x10(%rax),%r8
    3e8d:	48 8b 4d e0          	mov    -0x20(%rbp),%rcx
    3e91:	48 8b 45 e8          	mov    -0x18(%rbp),%rax
    3e95:	ba 02 00 00 00       	mov    $0x2,%edx
    3e9a:	48 89 ce             	mov    %rcx,%rsi
    3e9d:	48 89 c7             	mov    %rax,%rdi
    3ea0:	41 ff d0             	callq  *%r8
    3ea3:	48 8b 45 e0          	mov    -0x20(%rbp),%rax
    3ea7:	48 8b 50 18          	mov    0x18(%rax),%rdx
    3eab:	48 8b 45 e8          	mov    -0x18(%rbp),%rax
    3eaf:	48 89 50 18          	mov    %rdx,0x18(%rax)
    3eb3:	48 8b 45 e0          	mov    -0x20(%rbp),%rax
    3eb7:	48 8b 50 10          	mov    0x10(%rax),%rdx
    3ebb:	48 8b 45 e8          	mov    -0x18(%rbp),%rax
    3ebf:	48 89 50 10          	mov    %rdx,0x10(%rax)
    3ec3:	eb 1e                	jmp    3ee3 <_ZNSt8functionIFvPN15coroutine_mimic9SchedulerESt3anyEEC1ERKS5_+0x8f>
    3ec5:	f3 0f 1e fa          	endbr64 
    3ec9:	48 89 c3             	mov    %rax,%rbx
    3ecc:	48 8b 45 e8          	mov    -0x18(%rbp),%rax
    3ed0:	48 89 c7             	mov    %rax,%rdi
    3ed3:	e8 70 f8 ff ff       	callq  3748 <_ZNSt14_Function_baseD1Ev>
    3ed8:	48 89 d8             	mov    %rbx,%rax
    3edb:	48 89 c7             	mov    %rax,%rdi
    3ede:	e8 bd e6 ff ff       	callq  25a0 <_Unwind_Resume@plt>
    3ee3:	90                   	nop
    3ee4:	48 83 c4 18          	add    $0x18,%rsp
    3ee8:	5b                   	pop    %rbx
    3ee9:	5d                   	pop    %rbp
    3eea:	c3                   	retq   
    3eeb:	90                   	nop

0000000000003eec <_ZNSt13unordered_mapImSt10shared_ptrIN15coroutine_mimic9CoroutineEESt4hashImESt8equal_toImESaISt4pairIKmS3_EEE3endEv>:
    3eec:	f3 0f 1e fa          	endbr64 
    3ef0:	55                   	push   %rbp
    3ef1:	48 89 e5             	mov    %rsp,%rbp
    3ef4:	48 83 ec 10          	sub    $0x10,%rsp
    3ef8:	48 89 7d f8          	mov    %rdi,-0x8(%rbp)
    3efc:	48 8b 45 f8          	mov    -0x8(%rbp),%rax
    3f00:	48 89 c7             	mov    %rax,%rdi
    3f03:	e8 ec 05 00 00       	callq  44f4 <_ZNSt10_HashtableImSt4pairIKmSt10shared_ptrIN15coroutine_mimic9CoroutineEEESaIS6_ENSt8__detail10_Select1stESt8equal_toImESt4hashImENS8_18_Mod_range_hashingENS8_20_Default_ranged_hashENS8_20_Prime_rehash_policyENS8_17_Hashtable_traitsILb0ELb0ELb1EEEE3endEv>
    3f08:	c9                   	leaveq 
    3f09:	c3                   	retq   

0000000000003f0a <_ZNKSt10unique_ptrIhSt14default_deleteIhEE3getEv>:
    3f0a:	f3 0f 1e fa          	endbr64 
    3f0e:	55                   	push   %rbp
    3f0f:	48 89 e5             	mov    %rsp,%rbp
    3f12:	48 83 ec 10          	sub    $0x10,%rsp
    3f16:	48 89 7d f8          	mov    %rdi,-0x8(%rbp)
    3f1a:	48 8b 45 f8          	mov    -0x8(%rbp),%rax
    3f1e:	48 89 c7             	mov    %rax,%rdi
    3f21:	e8 18 06 00 00       	callq  453e <_ZNKSt15__uniq_ptr_implIhSt14default_deleteIhEE6_M_ptrEv>
    3f26:	c9                   	leaveq 
    3f27:	c3                   	retq   

0000000000003f28 <_ZNSaINSt8__detail10_Hash_nodeISt4pairIKmSt10shared_ptrIN15coroutine_mimic9CoroutineEEELb0EEEEC1Ev>:
    3f28:	f3 0f 1e fa          	endbr64 
    3f2c:	55                   	push   %rbp
    3f2d:	48 89 e5             	mov    %rsp,%rbp
    3f30:	48 83 ec 10          	sub    $0x10,%rsp
    3f34:	48 89 7d f8          	mov    %rdi,-0x8(%rbp)
    3f38:	48 8b 45 f8          	mov    -0x8(%rbp),%rax
    3f3c:	48 89 c7             	mov    %rax,%rdi
    3f3f:	e8 1c 06 00 00       	callq  4560 <_ZN9__gnu_cxx13new_allocatorINSt8__detail10_Hash_nodeISt4pairIKmSt10shared_ptrIN15coroutine_mimic9CoroutineEEELb0EEEEC1Ev>
    3f44:	90                   	nop
    3f45:	c9                   	leaveq 
    3f46:	c3                   	retq   
    3f47:	90                   	nop

0000000000003f48 <_ZNSaINSt8__detail10_Hash_nodeISt4pairIKmSt10shared_ptrIN15coroutine_mimic9CoroutineEEELb0EEEED1Ev>:
    3f48:	f3 0f 1e fa          	endbr64 
    3f4c:	55                   	push   %rbp
    3f4d:	48 89 e5             	mov    %rsp,%rbp
    3f50:	48 83 ec 10          	sub    $0x10,%rsp
    3f54:	48 89 7d f8          	mov    %rdi,-0x8(%rbp)
    3f58:	48 8b 45 f8          	mov    -0x8(%rbp),%rax
    3f5c:	48 89 c7             	mov    %rax,%rdi
    3f5f:	e8 0c 06 00 00       	callq  4570 <_ZN9__gnu_cxx13new_allocatorINSt8__detail10_Hash_nodeISt4pairIKmSt10shared_ptrIN15coroutine_mimic9CoroutineEEELb0EEEED1Ev>
    3f64:	90                   	nop
    3f65:	c9                   	leaveq 
    3f66:	c3                   	retq   
    3f67:	90                   	nop

0000000000003f68 <_ZNSt10_HashtableImSt4pairIKmSt10shared_ptrIN15coroutine_mimic9CoroutineEEESaIS6_ENSt8__detail10_Select1stESt8equal_toImESt4hashImENS8_18_Mod_range_hashingENS8_20_Default_ranged_hashENS8_20_Prime_rehash_policyENS8_17_Hashtable_traitsILb0ELb0ELb1EEEED1Ev>:
    3f68:	f3 0f 1e fa          	endbr64 
    3f6c:	55                   	push   %rbp
    3f6d:	48 89 e5             	mov    %rsp,%rbp
    3f70:	48 83 ec 10          	sub    $0x10,%rsp
    3f74:	48 89 7d f8          	mov    %rdi,-0x8(%rbp)
    3f78:	48 8b 45 f8          	mov    -0x8(%rbp),%rax
    3f7c:	48 89 c7             	mov    %rax,%rdi
    3f7f:	e8 fc 05 00 00       	callq  4580 <_ZNSt10_HashtableImSt4pairIKmSt10shared_ptrIN15coroutine_mimic9CoroutineEEESaIS6_ENSt8__detail10_Select1stESt8equal_toImESt4hashImENS8_18_Mod_range_hashingENS8_20_Default_ranged_hashENS8_20_Prime_rehash_policyENS8_17_Hashtable_traitsILb0ELb0ELb1EEEE5clearEv>
    3f84:	48 8b 45 f8          	mov    -0x8(%rbp),%rax
    3f88:	48 89 c7             	mov    %rax,%rdi
    3f8b:	e8 5e 06 00 00       	callq  45ee <_ZNSt10_HashtableImSt4pairIKmSt10shared_ptrIN15coroutine_mimic9CoroutineEEESaIS6_ENSt8__detail10_Select1stESt8equal_toImESt4hashImENS8_18_Mod_range_hashingENS8_20_Default_ranged_hashENS8_20_Prime_rehash_policyENS8_17_Hashtable_traitsILb0ELb0ELb1EEEE21_M_deallocate_bucketsEv>
    3f90:	48 8b 45 f8          	mov    -0x8(%rbp),%rax
    3f94:	48 89 c7             	mov    %rax,%rdi
    3f97:	e8 c8 f9 ff ff       	callq  3964 <_ZNSt8__detail16_Hashtable_allocISaINS_10_Hash_nodeISt4pairIKmSt10shared_ptrIN15coroutine_mimic9CoroutineEEELb0EEEEED1Ev>
    3f9c:	90                   	nop
    3f9d:	c9                   	leaveq 
    3f9e:	c3                   	retq   
    3f9f:	90                   	nop

0000000000003fa0 <_ZNSt10unique_ptrIhSt14default_deleteIhEEC1IS1_vEEPh>:
    3fa0:	f3 0f 1e fa          	endbr64 
    3fa4:	55                   	push   %rbp
    3fa5:	48 89 e5             	mov    %rsp,%rbp
    3fa8:	48 83 ec 10          	sub    $0x10,%rsp
    3fac:	48 89 7d f8          	mov    %rdi,-0x8(%rbp)
    3fb0:	48 89 75 f0          	mov    %rsi,-0x10(%rbp)
    3fb4:	48 8b 45 f8          	mov    -0x8(%rbp),%rax
    3fb8:	48 8b 55 f0          	mov    -0x10(%rbp),%rdx
    3fbc:	48 89 d6             	mov    %rdx,%rsi
    3fbf:	48 89 c7             	mov    %rax,%rdi
    3fc2:	e8 59 06 00 00       	callq  4620 <_ZNSt15__uniq_ptr_implIhSt14default_deleteIhEEC1EPh>
    3fc7:	90                   	nop
    3fc8:	c9                   	leaveq 
    3fc9:	c3                   	retq   

0000000000003fca <_ZNSt8__detail20_Node_const_iteratorISt4pairIKmSt10shared_ptrIN15coroutine_mimic9CoroutineEEELb0ELb0EEC1ERKNS_14_Node_iteratorIS7_Lb0ELb0EEE>:
    3fca:	f3 0f 1e fa          	endbr64 
    3fce:	55                   	push   %rbp
    3fcf:	48 89 e5             	mov    %rsp,%rbp
    3fd2:	48 83 ec 10          	sub    $0x10,%rsp
    3fd6:	48 89 7d f8          	mov    %rdi,-0x8(%rbp)
    3fda:	48 89 75 f0          	mov    %rsi,-0x10(%rbp)
    3fde:	48 8b 45 f8          	mov    -0x8(%rbp),%rax
    3fe2:	48 8b 55 f0          	mov    -0x10(%rbp),%rdx
    3fe6:	48 8b 12             	mov    (%rdx),%rdx
    3fe9:	48 89 d6             	mov    %rdx,%rsi
    3fec:	48 89 c7             	mov    %rax,%rdi
    3fef:	e8 68 06 00 00       	callq  465c <_ZNSt8__detail19_Node_iterator_baseISt4pairIKmSt10shared_ptrIN15coroutine_mimic9CoroutineEEELb0EEC1EPNS_10_Hash_nodeIS7_Lb0EEE>
    3ff4:	90                   	nop
    3ff5:	c9                   	leaveq 
    3ff6:	c3                   	retq   
    3ff7:	90                   	nop

0000000000003ff8 <_ZNSt13unordered_mapImSt10shared_ptrIN15coroutine_mimic9CoroutineEESt4hashImESt8equal_toImESaISt4pairIKmS3_EEE5clearEv>:
    3ff8:	f3 0f 1e fa          	endbr64 
    3ffc:	55                   	push   %rbp
    3ffd:	48 89 e5             	mov    %rsp,%rbp
    4000:	48 83 ec 10          	sub    $0x10,%rsp
    4004:	48 89 7d f8          	mov    %rdi,-0x8(%rbp)
    4008:	48 8b 45 f8          	mov    -0x8(%rbp),%rax
    400c:	48 89 c7             	mov    %rax,%rdi
    400f:	e8 6c 05 00 00       	callq  4580 <_ZNSt10_HashtableImSt4pairIKmSt10shared_ptrIN15coroutine_mimic9CoroutineEEESaIS6_ENSt8__detail10_Select1stESt8equal_toImESt4hashImENS8_18_Mod_range_hashingENS8_20_Default_ranged_hashENS8_20_Prime_rehash_policyENS8_17_Hashtable_traitsILb0ELb0ELb1EEEE5clearEv>
    4014:	90                   	nop
    4015:	c9                   	leaveq 
    4016:	c3                   	retq   

0000000000004017 <_ZSt11make_sharedIN15coroutine_mimic9CoroutineEJPNS0_9SchedulerERSt8functionIFvS3_St3anyEERS5_EESt10shared_ptrIT_EDpOT0_>:
    4017:	f3 0f 1e fa          	endbr64 
    401b:	55                   	push   %rbp
    401c:	48 89 e5             	mov    %rsp,%rbp
    401f:	41 55                	push   %r13
    4021:	41 54                	push   %r12
    4023:	53                   	push   %rbx
    4024:	48 83 ec 38          	sub    $0x38,%rsp
    4028:	48 89 7d c8          	mov    %rdi,-0x38(%rbp)
    402c:	48 89 75 c0          	mov    %rsi,-0x40(%rbp)
    4030:	48 89 55 b8          	mov    %rdx,-0x48(%rbp)
    4034:	48 89 4d b0          	mov    %rcx,-0x50(%rbp)
    4038:	64 48 8b 04 25 28 00 	mov    %fs:0x28,%rax
    403f:	00 00 
    4041:	48 89 45 d8          	mov    %rax,-0x28(%rbp)
    4045:	31 c0                	xor    %eax,%eax
    4047:	48 8b 45 b0          	mov    -0x50(%rbp),%rax
    404b:	48 89 c7             	mov    %rax,%rdi
    404e:	e8 8a 06 00 00       	callq  46dd <_ZSt7forwardIRSt3anyEOT_RNSt16remove_referenceIS2_E4typeE>
    4053:	49 89 c5             	mov    %rax,%r13
    4056:	48 8b 45 b8          	mov    -0x48(%rbp),%rax
    405a:	48 89 c7             	mov    %rax,%rdi
    405d:	e8 69 06 00 00       	callq  46cb <_ZSt7forwardIRSt8functionIFvPN15coroutine_mimic9SchedulerESt3anyEEEOT_RNSt16remove_referenceIS8_E4typeE>
    4062:	49 89 c4             	mov    %rax,%r12
    4065:	48 8b 45 c0          	mov    -0x40(%rbp),%rax
    4069:	48 89 c7             	mov    %rax,%rdi
    406c:	e8 48 06 00 00       	callq  46b9 <_ZSt7forwardIPN15coroutine_mimic9SchedulerEEOT_RNSt16remove_referenceIS3_E4typeE>
    4071:	48 89 c3             	mov    %rax,%rbx
    4074:	48 8d 45 d7          	lea    -0x29(%rbp),%rax
    4078:	48 89 c7             	mov    %rax,%rdi
    407b:	e8 fa 05 00 00       	callq  467a <_ZNSaIN15coroutine_mimic9CoroutineEEC1Ev>
    4080:	48 8b 45 c8          	mov    -0x38(%rbp),%rax
    4084:	48 8d 75 d7          	lea    -0x29(%rbp),%rsi
    4088:	4d 89 e8             	mov    %r13,%r8
    408b:	4c 89 e1             	mov    %r12,%rcx
    408e:	48 89 da             	mov    %rbx,%rdx
    4091:	48 89 c7             	mov    %rax,%rdi
    4094:	e8 56 06 00 00       	callq  46ef <_ZSt15allocate_sharedIN15coroutine_mimic9CoroutineESaIS1_EJPNS0_9SchedulerERSt8functionIFvS4_St3anyEERS6_EESt10shared_ptrIT_ERKT0_DpOT1_>
    4099:	48 8d 45 d7          	lea    -0x29(%rbp),%rax
    409d:	48 89 c7             	mov    %rax,%rdi
    40a0:	e8 f5 05 00 00       	callq  469a <_ZNSaIN15coroutine_mimic9CoroutineEED1Ev>
    40a5:	48 8b 45 d8          	mov    -0x28(%rbp),%rax
    40a9:	64 48 33 04 25 28 00 	xor    %fs:0x28,%rax
    40b0:	00 00 
    40b2:	74 25                	je     40d9 <_ZSt11make_sharedIN15coroutine_mimic9CoroutineEJPNS0_9SchedulerERSt8functionIFvS3_St3anyEERS5_EESt10shared_ptrIT_EDpOT0_+0xc2>
    40b4:	eb 1e                	jmp    40d4 <_ZSt11make_sharedIN15coroutine_mimic9CoroutineEJPNS0_9SchedulerERSt8functionIFvS3_St3anyEERS5_EESt10shared_ptrIT_EDpOT0_+0xbd>
    40b6:	f3 0f 1e fa          	endbr64 
    40ba:	48 89 c3             	mov    %rax,%rbx
    40bd:	48 8d 45 d7          	lea    -0x29(%rbp),%rax
    40c1:	48 89 c7             	mov    %rax,%rdi
    40c4:	e8 d1 05 00 00       	callq  469a <_ZNSaIN15coroutine_mimic9CoroutineEED1Ev>
    40c9:	48 89 d8             	mov    %rbx,%rax
    40cc:	48 89 c7             	mov    %rax,%rdi
    40cf:	e8 cc e4 ff ff       	callq  25a0 <_Unwind_Resume@plt>
    40d4:	e8 17 e4 ff ff       	callq  24f0 <__stack_chk_fail@plt>
    40d9:	48 8b 45 c8          	mov    -0x38(%rbp),%rax
    40dd:	48 83 c4 38          	add    $0x38,%rsp
    40e1:	5b                   	pop    %rbx
    40e2:	41 5c                	pop    %r12
    40e4:	41 5d                	pop    %r13
    40e6:	5d                   	pop    %rbp
    40e7:	c3                   	retq   

00000000000040e8 <_ZNSt14__shared_countILN9__gnu_cxx12_Lock_policyE2EED1Ev>:
    40e8:	f3 0f 1e fa          	endbr64 
    40ec:	55                   	push   %rbp
    40ed:	48 89 e5             	mov    %rsp,%rbp
    40f0:	48 83 ec 10          	sub    $0x10,%rsp
    40f4:	48 89 7d f8          	mov    %rdi,-0x8(%rbp)
    40f8:	48 8b 45 f8          	mov    -0x8(%rbp),%rax
    40fc:	48 8b 00             	mov    (%rax),%rax
    40ff:	48 85 c0             	test   %rax,%rax
    4102:	74 0f                	je     4113 <_ZNSt14__shared_countILN9__gnu_cxx12_Lock_policyE2EED1Ev+0x2b>
    4104:	48 8b 45 f8          	mov    -0x8(%rbp),%rax
    4108:	48 8b 00             	mov    (%rax),%rax
    410b:	48 89 c7             	mov    %rax,%rdi
    410e:	e8 4f 06 00 00       	callq  4762 <_ZNSt16_Sp_counted_baseILN9__gnu_cxx12_Lock_policyE2EE10_M_releaseEv>
    4113:	90                   	nop
    4114:	c9                   	leaveq 
    4115:	c3                   	retq   

0000000000004116 <_ZNSt13unordered_mapImSt10shared_ptrIN15coroutine_mimic9CoroutineEESt4hashImESt8equal_toImESaISt4pairIKmS3_EEEixERS9_>:
    4116:	f3 0f 1e fa          	endbr64 
    411a:	55                   	push   %rbp
    411b:	48 89 e5             	mov    %rsp,%rbp
    411e:	48 83 ec 10          	sub    $0x10,%rsp
    4122:	48 89 7d f8          	mov    %rdi,-0x8(%rbp)
    4126:	48 89 75 f0          	mov    %rsi,-0x10(%rbp)
    412a:	48 8b 45 f8          	mov    -0x8(%rbp),%rax
    412e:	48 8b 55 f0          	mov    -0x10(%rbp),%rdx
    4132:	48 89 d6             	mov    %rdx,%rsi
    4135:	48 89 c7             	mov    %rax,%rdi
    4138:	e8 a5 06 00 00       	callq  47e2 <_ZNSt8__detail9_Map_baseImSt4pairIKmSt10shared_ptrIN15coroutine_mimic9CoroutineEEESaIS7_ENS_10_Select1stESt8equal_toImESt4hashImENS_18_Mod_range_hashingENS_20_Default_ranged_hashENS_20_Prime_rehash_policyENS_17_Hashtable_traitsILb0ELb0ELb1EEELb1EEixERS2_>
    413d:	c9                   	leaveq 
    413e:	c3                   	retq   
    413f:	90                   	nop

0000000000004140 <_ZNSt14__shared_countILN9__gnu_cxx12_Lock_policyE2EEaSERKS2_>:
    4140:	f3 0f 1e fa          	endbr64 
    4144:	55                   	push   %rbp
    4145:	48 89 e5             	mov    %rsp,%rbp
    4148:	48 83 ec 20          	sub    $0x20,%rsp
    414c:	48 89 7d e8          	mov    %rdi,-0x18(%rbp)
    4150:	48 89 75 e0          	mov    %rsi,-0x20(%rbp)
    4154:	48 8b 45 e0          	mov    -0x20(%rbp),%rax
    4158:	48 8b 00             	mov    (%rax),%rax
    415b:	48 89 45 f8          	mov    %rax,-0x8(%rbp)
    415f:	48 8b 45 e8          	mov    -0x18(%rbp),%rax
    4163:	48 8b 00             	mov    (%rax),%rax
    4166:	48 39 45 f8          	cmp    %rax,-0x8(%rbp)
    416a:	74 39                	je     41a5 <_ZNSt14__shared_countILN9__gnu_cxx12_Lock_policyE2EEaSERKS2_+0x65>
    416c:	48 83 7d f8 00       	cmpq   $0x0,-0x8(%rbp)
    4171:	74 0c                	je     417f <_ZNSt14__shared_countILN9__gnu_cxx12_Lock_policyE2EEaSERKS2_+0x3f>
    4173:	48 8b 45 f8          	mov    -0x8(%rbp),%rax
    4177:	48 89 c7             	mov    %rax,%rdi
    417a:	e8 6f 07 00 00       	callq  48ee <_ZNSt16_Sp_counted_baseILN9__gnu_cxx12_Lock_policyE2EE15_M_add_ref_copyEv>
    417f:	48 8b 45 e8          	mov    -0x18(%rbp),%rax
    4183:	48 8b 00             	mov    (%rax),%rax
    4186:	48 85 c0             	test   %rax,%rax
    4189:	74 0f                	je     419a <_ZNSt14__shared_countILN9__gnu_cxx12_Lock_policyE2EEaSERKS2_+0x5a>
    418b:	48 8b 45 e8          	mov    -0x18(%rbp),%rax
    418f:	48 8b 00             	mov    (%rax),%rax
    4192:	48 89 c7             	mov    %rax,%rdi
    4195:	e8 c8 05 00 00       	callq  4762 <_ZNSt16_Sp_counted_baseILN9__gnu_cxx12_Lock_policyE2EE10_M_releaseEv>
    419a:	48 8b 45 e8          	mov    -0x18(%rbp),%rax
    419e:	48 8b 55 f8          	mov    -0x8(%rbp),%rdx
    41a2:	48 89 10             	mov    %rdx,(%rax)
    41a5:	48 8b 45 e8          	mov    -0x18(%rbp),%rax
    41a9:	c9                   	leaveq 
    41aa:	c3                   	retq   
    41ab:	90                   	nop

00000000000041ac <_ZNSt13unordered_mapImSt10shared_ptrIN15coroutine_mimic9CoroutineEESt4hashImESt8equal_toImESaISt4pairIKmS3_EEE4findERS9_>:
    41ac:	f3 0f 1e fa          	endbr64 
    41b0:	55                   	push   %rbp
    41b1:	48 89 e5             	mov    %rsp,%rbp
    41b4:	48 83 ec 10          	sub    $0x10,%rsp
    41b8:	48 89 7d f8          	mov    %rdi,-0x8(%rbp)
    41bc:	48 89 75 f0          	mov    %rsi,-0x10(%rbp)
    41c0:	48 8b 45 f8          	mov    -0x8(%rbp),%rax
    41c4:	48 8b 55 f0          	mov    -0x10(%rbp),%rdx
    41c8:	48 89 d6             	mov    %rdx,%rsi
    41cb:	48 89 c7             	mov    %rax,%rdi
    41ce:	e8 43 07 00 00       	callq  4916 <_ZNSt10_HashtableImSt4pairIKmSt10shared_ptrIN15coroutine_mimic9CoroutineEEESaIS6_ENSt8__detail10_Select1stESt8equal_toImESt4hashImENS8_18_Mod_range_hashingENS8_20_Default_ranged_hashENS8_20_Prime_rehash_policyENS8_17_Hashtable_traitsILb0ELb0ELb1EEEE4findERS1_>
    41d3:	c9                   	leaveq 
    41d4:	c3                   	retq   

00000000000041d5 <_ZNSt8__detailneISt4pairIKmSt10shared_ptrIN15coroutine_mimic9CoroutineEEELb0EEEbRKNS_19_Node_iterator_baseIT_XT0_EEESC_>:
    41d5:	f3 0f 1e fa          	endbr64 
    41d9:	55                   	push   %rbp
    41da:	48 89 e5             	mov    %rsp,%rbp
    41dd:	48 89 7d f8          	mov    %rdi,-0x8(%rbp)
    41e1:	48 89 75 f0          	mov    %rsi,-0x10(%rbp)
    41e5:	48 8b 45 f8          	mov    -0x8(%rbp),%rax
    41e9:	48 8b 10             	mov    (%rax),%rdx
    41ec:	48 8b 45 f0          	mov    -0x10(%rbp),%rax
    41f0:	48 8b 00             	mov    (%rax),%rax
    41f3:	48 39 c2             	cmp    %rax,%rdx
    41f6:	0f 95 c0             	setne  %al
    41f9:	5d                   	pop    %rbp
    41fa:	c3                   	retq   
    41fb:	90                   	nop

00000000000041fc <_ZNSt14__shared_countILN9__gnu_cxx12_Lock_policyE2EEC1ERKS2_>:
    41fc:	f3 0f 1e fa          	endbr64 
    4200:	55                   	push   %rbp
    4201:	48 89 e5             	mov    %rsp,%rbp
    4204:	48 83 ec 10          	sub    $0x10,%rsp
    4208:	48 89 7d f8          	mov    %rdi,-0x8(%rbp)
    420c:	48 89 75 f0          	mov    %rsi,-0x10(%rbp)
    4210:	48 8b 45 f0          	mov    -0x10(%rbp),%rax
    4214:	48 8b 10             	mov    (%rax),%rdx
    4217:	48 8b 45 f8          	mov    -0x8(%rbp),%rax
    421b:	48 89 10             	mov    %rdx,(%rax)
    421e:	48 8b 45 f8          	mov    -0x8(%rbp),%rax
    4222:	48 8b 00             	mov    (%rax),%rax
    4225:	48 85 c0             	test   %rax,%rax
    4228:	74 0f                	je     4239 <_ZNSt14__shared_countILN9__gnu_cxx12_Lock_policyE2EEC1ERKS2_+0x3d>
    422a:	48 8b 45 f8          	mov    -0x8(%rbp),%rax
    422e:	48 8b 00             	mov    (%rax),%rax
    4231:	48 89 c7             	mov    %rax,%rdi
    4234:	e8 b5 06 00 00       	callq  48ee <_ZNSt16_Sp_counted_baseILN9__gnu_cxx12_Lock_policyE2EE15_M_add_ref_copyEv>
    4239:	90                   	nop
    423a:	c9                   	leaveq 
    423b:	c3                   	retq   

000000000000423c <_ZNKSt19__shared_ptr_accessIN15coroutine_mimic9CoroutineELN9__gnu_cxx12_Lock_policyE2ELb0ELb0EEptEv>:
    423c:	f3 0f 1e fa          	endbr64 
    4240:	55                   	push   %rbp
    4241:	48 89 e5             	mov    %rsp,%rbp
    4244:	48 83 ec 10          	sub    $0x10,%rsp
    4248:	48 89 7d f8          	mov    %rdi,-0x8(%rbp)
    424c:	48 8b 45 f8          	mov    -0x8(%rbp),%rax
    4250:	48 89 c7             	mov    %rax,%rdi
    4253:	e8 76 07 00 00       	callq  49ce <_ZNKSt19__shared_ptr_accessIN15coroutine_mimic9CoroutineELN9__gnu_cxx12_Lock_policyE2ELb0ELb0EE6_M_getEv>
    4258:	c9                   	leaveq 
    4259:	c3                   	retq   

000000000000425a <_ZNKSt8__detail20_Node_const_iteratorISt4pairIKmSt10shared_ptrIN15coroutine_mimic9CoroutineEEELb0ELb0EEptEv>:
    425a:	f3 0f 1e fa          	endbr64 
    425e:	55                   	push   %rbp
    425f:	48 89 e5             	mov    %rsp,%rbp
    4262:	48 83 ec 10          	sub    $0x10,%rsp
    4266:	48 89 7d f8          	mov    %rdi,-0x8(%rbp)
    426a:	48 8b 45 f8          	mov    -0x8(%rbp),%rax
    426e:	48 8b 00             	mov    (%rax),%rax
    4271:	48 89 c7             	mov    %rax,%rdi
    4274:	e8 73 07 00 00       	callq  49ec <_ZNSt8__detail21_Hash_node_value_baseISt4pairIKmSt10shared_ptrIN15coroutine_mimic9CoroutineEEEE9_M_valptrEv>
    4279:	c9                   	leaveq 
    427a:	c3                   	retq   
    427b:	90                   	nop

000000000000427c <_ZNSt10unique_ptrIhSt14default_deleteIhEE5resetEPh>:
    427c:	f3 0f 1e fa          	endbr64 
    4280:	55                   	push   %rbp
    4281:	48 89 e5             	mov    %rsp,%rbp
    4284:	53                   	push   %rbx
    4285:	48 83 ec 18          	sub    $0x18,%rsp
    4289:	48 89 7d e8          	mov    %rdi,-0x18(%rbp)
    428d:	48 89 75 e0          	mov    %rsi,-0x20(%rbp)
    4291:	48 8b 45 e8          	mov    -0x18(%rbp),%rax
    4295:	48 89 c7             	mov    %rax,%rdi
    4298:	e8 b9 01 00 00       	callq  4456 <_ZNSt15__uniq_ptr_implIhSt14default_deleteIhEE6_M_ptrEv>
    429d:	48 89 c2             	mov    %rax,%rdx
    42a0:	48 8d 45 e0          	lea    -0x20(%rbp),%rax
    42a4:	48 89 c6             	mov    %rax,%rsi
    42a7:	48 89 d7             	mov    %rdx,%rdi
    42aa:	e8 5f 07 00 00       	callq  4a0e <_ZSt4swapIPhENSt9enable_ifIXsrSt6__and_IJSt6__not_ISt15__is_tuple_likeIT_EESt21is_move_constructibleIS5_ESt18is_move_assignableIS5_EEE5valueEvE4typeERS5_SF_>
    42af:	48 8b 45 e0          	mov    -0x20(%rbp),%rax
    42b3:	48 85 c0             	test   %rax,%rax
    42b6:	74 29                	je     42e1 <_ZNSt10unique_ptrIhSt14default_deleteIhEE5resetEPh+0x65>
    42b8:	48 8b 45 e8          	mov    -0x18(%rbp),%rax
    42bc:	48 89 c7             	mov    %rax,%rdi
    42bf:	e8 b0 01 00 00       	callq  4474 <_ZNSt10unique_ptrIhSt14default_deleteIhEE11get_deleterEv>
    42c4:	48 89 c3             	mov    %rax,%rbx
    42c7:	48 8d 45 e0          	lea    -0x20(%rbp),%rax
    42cb:	48 89 c7             	mov    %rax,%rdi
    42ce:	e8 bf 01 00 00       	callq  4492 <_ZSt4moveIRPhEONSt16remove_referenceIT_E4typeEOS3_>
    42d3:	48 8b 00             	mov    (%rax),%rax
    42d6:	48 89 c6             	mov    %rax,%rsi
    42d9:	48 89 df             	mov    %rbx,%rdi
    42dc:	e8 c3 01 00 00       	callq  44a4 <_ZNKSt14default_deleteIhEclEPh>
    42e1:	90                   	nop
    42e2:	48 83 c4 18          	add    $0x18,%rsp
    42e6:	5b                   	pop    %rbx
    42e7:	5d                   	pop    %rbp
    42e8:	c3                   	retq   
    42e9:	90                   	nop

00000000000042ea <_ZNKSt8functionIFvPN15coroutine_mimic9SchedulerESt3anyEEclES2_S3_>:
    42ea:	f3 0f 1e fa          	endbr64 
    42ee:	55                   	push   %rbp
    42ef:	48 89 e5             	mov    %rsp,%rbp
    42f2:	41 54                	push   %r12
    42f4:	53                   	push   %rbx
    42f5:	48 83 ec 20          	sub    $0x20,%rsp
    42f9:	48 89 7d e8          	mov    %rdi,-0x18(%rbp)
    42fd:	48 89 75 e0          	mov    %rsi,-0x20(%rbp)
    4301:	48 89 55 d8          	mov    %rdx,-0x28(%rbp)
    4305:	48 8b 45 e8          	mov    -0x18(%rbp),%rax
    4309:	48 89 c7             	mov    %rax,%rdi
    430c:	e8 75 f4 ff ff       	callq  3786 <_ZNKSt14_Function_base8_M_emptyEv>
    4311:	84 c0                	test   %al,%al
    4313:	74 05                	je     431a <_ZNKSt8functionIFvPN15coroutine_mimic9SchedulerESt3anyEEclES2_S3_+0x30>
    4315:	e8 66 e0 ff ff       	callq  2380 <_ZSt25__throw_bad_function_callv@plt>
    431a:	48 8b 45 e8          	mov    -0x18(%rbp),%rax
    431e:	48 8b 58 18          	mov    0x18(%rax),%rbx
    4322:	48 8b 45 d8          	mov    -0x28(%rbp),%rax
    4326:	48 89 c7             	mov    %rax,%rdi
    4329:	e8 59 07 00 00       	callq  4a87 <_ZSt7forwardISt3anyEOT_RNSt16remove_referenceIS1_E4typeE>
    432e:	49 89 c4             	mov    %rax,%r12
    4331:	48 8d 45 e0          	lea    -0x20(%rbp),%rax
    4335:	48 89 c7             	mov    %rax,%rdi
    4338:	e8 7c 03 00 00       	callq  46b9 <_ZSt7forwardIPN15coroutine_mimic9SchedulerEEOT_RNSt16remove_referenceIS3_E4typeE>
    433d:	48 89 c1             	mov    %rax,%rcx
    4340:	48 8b 45 e8          	mov    -0x18(%rbp),%rax
    4344:	4c 89 e2             	mov    %r12,%rdx
    4347:	48 89 ce             	mov    %rcx,%rsi
    434a:	48 89 c7             	mov    %rax,%rdi
    434d:	ff d3                	callq  *%rbx
    434f:	90                   	nop
    4350:	48 83 c4 20          	add    $0x20,%rsp
    4354:	5b                   	pop    %rbx
    4355:	41 5c                	pop    %r12
    4357:	5d                   	pop    %rbp
    4358:	c3                   	retq   
    4359:	90                   	nop

000000000000435a <_ZNSt13unordered_mapImSt10shared_ptrIN15coroutine_mimic9CoroutineEESt4hashImESt8equal_toImESaISt4pairIKmS3_EEE5eraseENSt8__detail20_Node_const_iteratorISA_Lb0ELb0EEE>:
    435a:	f3 0f 1e fa          	endbr64 
    435e:	55                   	push   %rbp
    435f:	48 89 e5             	mov    %rsp,%rbp
    4362:	48 83 ec 10          	sub    $0x10,%rsp
    4366:	48 89 7d f8          	mov    %rdi,-0x8(%rbp)
    436a:	48 89 75 f0          	mov    %rsi,-0x10(%rbp)
    436e:	48 8b 45 f8          	mov    -0x8(%rbp),%rax
    4372:	48 8b 55 f0          	mov    -0x10(%rbp),%rdx
    4376:	48 89 d6             	mov    %rdx,%rsi
    4379:	48 89 c7             	mov    %rax,%rdi
    437c:	e8 19 07 00 00       	callq  4a9a <_ZNSt10_HashtableImSt4pairIKmSt10shared_ptrIN15coroutine_mimic9CoroutineEEESaIS6_ENSt8__detail10_Select1stESt8equal_toImESt4hashImENS8_18_Mod_range_hashingENS8_20_Default_ranged_hashENS8_20_Prime_rehash_policyENS8_17_Hashtable_traitsILb0ELb0ELb1EEEE5eraseENS8_20_Node_const_iteratorIS6_Lb0ELb0EEE>
    4381:	c9                   	leaveq 
    4382:	c3                   	retq   

0000000000004383 <_ZNSt8__detaileqISt4pairIKmSt10shared_ptrIN15coroutine_mimic9CoroutineEEELb0EEEbRKNS_19_Node_iterator_baseIT_XT0_EEESC_>:
    4383:	f3 0f 1e fa          	endbr64 
    4387:	55                   	push   %rbp
    4388:	48 89 e5             	mov    %rsp,%rbp
    438b:	48 89 7d f8          	mov    %rdi,-0x8(%rbp)
    438f:	48 89 75 f0          	mov    %rsi,-0x10(%rbp)
    4393:	48 8b 45 f8          	mov    -0x8(%rbp),%rax
    4397:	48 8b 10             	mov    (%rax),%rdx
    439a:	48 8b 45 f0          	mov    -0x10(%rbp),%rax
    439e:	48 8b 00             	mov    (%rax),%rax
    43a1:	48 39 c2             	cmp    %rax,%rdx
    43a4:	0f 94 c0             	sete   %al
    43a7:	5d                   	pop    %rbp
    43a8:	c3                   	retq   
    43a9:	90                   	nop

00000000000043aa <_ZNSt7__cxx1112basic_stringIcSt11char_traitsIcESaIcEEC1IPcvEET_S7_RKS3_>:
    43aa:	f3 0f 1e fa          	endbr64 
    43ae:	55                   	push   %rbp
    43af:	48 89 e5             	mov    %rsp,%rbp
    43b2:	53                   	push   %rbx
    43b3:	48 83 ec 28          	sub    $0x28,%rsp
    43b7:	48 89 7d e8          	mov    %rdi,-0x18(%rbp)
    43bb:	48 89 75 e0          	mov    %rsi,-0x20(%rbp)
    43bf:	48 89 55 d8          	mov    %rdx,-0x28(%rbp)
    43c3:	48 89 4d d0          	mov    %rcx,-0x30(%rbp)
    43c7:	48 8b 5d e8          	mov    -0x18(%rbp),%rbx
    43cb:	48 8b 45 e8          	mov    -0x18(%rbp),%rax
    43cf:	48 89 c7             	mov    %rax,%rdi
    43d2:	e8 59 e0 ff ff       	callq  2430 <_ZNSt7__cxx1112basic_stringIcSt11char_traitsIcESaIcEE13_M_local_dataEv@plt>
    43d7:	48 89 c1             	mov    %rax,%rcx
    43da:	48 8b 45 d0          	mov    -0x30(%rbp),%rax
    43de:	48 89 c2             	mov    %rax,%rdx
    43e1:	48 89 ce             	mov    %rcx,%rsi
    43e4:	48 89 df             	mov    %rbx,%rdi
    43e7:	e8 d4 e0 ff ff       	callq  24c0 <_ZNSt7__cxx1112basic_stringIcSt11char_traitsIcESaIcEE12_Alloc_hiderC1EPcRKS3_@plt>
    43ec:	48 8b 55 d8          	mov    -0x28(%rbp),%rdx
    43f0:	48 8b 4d e0          	mov    -0x20(%rbp),%rcx
    43f4:	48 8b 45 e8          	mov    -0x18(%rbp),%rax
    43f8:	48 89 ce             	mov    %rcx,%rsi
    43fb:	48 89 c7             	mov    %rax,%rdi
    43fe:	e8 ff 06 00 00       	callq  4b02 <_ZNSt7__cxx1112basic_stringIcSt11char_traitsIcESaIcEE12_M_constructIPcEEvT_S7_>
    4403:	eb 1e                	jmp    4423 <_ZNSt7__cxx1112basic_stringIcSt11char_traitsIcESaIcEEC1IPcvEET_S7_RKS3_+0x79>
    4405:	f3 0f 1e fa          	endbr64 
    4409:	48 89 c3             	mov    %rax,%rbx
    440c:	48 8b 45 e8          	mov    -0x18(%rbp),%rax
    4410:	48 89 c7             	mov    %rax,%rdi
    4413:	e8 44 f9 ff ff       	callq  3d5c <_ZNSt7__cxx1112basic_stringIcSt11char_traitsIcESaIcEE12_Alloc_hiderD1Ev>
    4418:	48 89 d8             	mov    %rbx,%rax
    441b:	48 89 c7             	mov    %rax,%rdi
    441e:	e8 7d e1 ff ff       	callq  25a0 <_Unwind_Resume@plt>
    4423:	48 83 c4 28          	add    $0x28,%rsp
    4427:	5b                   	pop    %rbx
    4428:	5d                   	pop    %rbp
    4429:	c3                   	retq   

000000000000442a <_ZNSt11_Tuple_implILm0EJPhSt14default_deleteIhEEEC1Ev>:
    442a:	f3 0f 1e fa          	endbr64 
    442e:	55                   	push   %rbp
    442f:	48 89 e5             	mov    %rsp,%rbp
    4432:	48 83 ec 10          	sub    $0x10,%rsp
    4436:	48 89 7d f8          	mov    %rdi,-0x8(%rbp)
    443a:	48 8b 45 f8          	mov    -0x8(%rbp),%rax
    443e:	48 89 c7             	mov    %rax,%rdi
    4441:	e8 ee 06 00 00       	callq  4b34 <_ZNSt11_Tuple_implILm1EJSt14default_deleteIhEEEC1Ev>
    4446:	48 8b 45 f8          	mov    -0x8(%rbp),%rax
    444a:	48 89 c7             	mov    %rax,%rdi
    444d:	e8 02 07 00 00       	callq  4b54 <_ZNSt10_Head_baseILm0EPhLb0EEC1Ev>
    4452:	90                   	nop
    4453:	c9                   	leaveq 
    4454:	c3                   	retq   
    4455:	90                   	nop

0000000000004456 <_ZNSt15__uniq_ptr_implIhSt14default_deleteIhEE6_M_ptrEv>:
    4456:	f3 0f 1e fa          	endbr64 
    445a:	55                   	push   %rbp
    445b:	48 89 e5             	mov    %rsp,%rbp
    445e:	48 83 ec 10          	sub    $0x10,%rsp
    4462:	48 89 7d f8          	mov    %rdi,-0x8(%rbp)
    4466:	48 8b 45 f8          	mov    -0x8(%rbp),%rax
    446a:	48 89 c7             	mov    %rax,%rdi
    446d:	e8 fc 06 00 00       	callq  4b6e <_ZSt3getILm0EJPhSt14default_deleteIhEEERNSt13tuple_elementIXT_ESt5tupleIJDpT0_EEE4typeERS7_>
    4472:	c9                   	leaveq 
    4473:	c3                   	retq   

0000000000004474 <_ZNSt10unique_ptrIhSt14default_deleteIhEE11get_deleterEv>:
    4474:	f3 0f 1e fa          	endbr64 
    4478:	55                   	push   %rbp
    4479:	48 89 e5             	mov    %rsp,%rbp
    447c:	48 83 ec 10          	sub    $0x10,%rsp
    4480:	48 89 7d f8          	mov    %rdi,-0x8(%rbp)
    4484:	48 8b 45 f8          	mov    -0x8(%rbp),%rax
    4488:	48 89 c7             	mov    %rax,%rdi
    448b:	e8 fc 06 00 00       	callq  4b8c <_ZNSt15__uniq_ptr_implIhSt14default_deleteIhEE10_M_deleterEv>
    4490:	c9                   	leaveq 
    4491:	c3                   	retq   

0000000000004492 <_ZSt4moveIRPhEONSt16remove_referenceIT_E4typeEOS3_>:
    4492:	f3 0f 1e fa          	endbr64 
    4496:	55                   	push   %rbp
    4497:	48 89 e5             	mov    %rsp,%rbp
    449a:	48 89 7d f8          	mov    %rdi,-0x8(%rbp)
    449e:	48 8b 45 f8          	mov    -0x8(%rbp),%rax
    44a2:	5d                   	pop    %rbp
    44a3:	c3                   	retq   

00000000000044a4 <_ZNKSt14default_deleteIhEclEPh>:
    44a4:	f3 0f 1e fa          	endbr64 
    44a8:	55                   	push   %rbp
    44a9:	48 89 e5             	mov    %rsp,%rbp
    44ac:	48 83 ec 10          	sub    $0x10,%rsp
    44b0:	48 89 7d f8          	mov    %rdi,-0x8(%rbp)
    44b4:	48 89 75 f0          	mov    %rsi,-0x10(%rbp)
    44b8:	48 8b 45 f0          	mov    -0x10(%rbp),%rax
    44bc:	48 85 c0             	test   %rax,%rax
    44bf:	74 0d                	je     44ce <_ZNKSt14default_deleteIhEclEPh+0x2a>
    44c1:	be 01 00 00 00       	mov    $0x1,%esi
    44c6:	48 89 c7             	mov    %rax,%rdi
    44c9:	e8 d2 df ff ff       	callq  24a0 <_ZdlPvm@plt>
    44ce:	90                   	nop
    44cf:	c9                   	leaveq 
    44d0:	c3                   	retq   
    44d1:	90                   	nop

00000000000044d2 <_ZNKSt8functionIFvPN15coroutine_mimic9SchedulerESt3anyEEcvbEv>:
    44d2:	f3 0f 1e fa          	endbr64 
    44d6:	55                   	push   %rbp
    44d7:	48 89 e5             	mov    %rsp,%rbp
    44da:	48 83 ec 10          	sub    $0x10,%rsp
    44de:	48 89 7d f8          	mov    %rdi,-0x8(%rbp)
    44e2:	48 8b 45 f8          	mov    -0x8(%rbp),%rax
    44e6:	48 89 c7             	mov    %rax,%rdi
    44e9:	e8 98 f2 ff ff       	callq  3786 <_ZNKSt14_Function_base8_M_emptyEv>
    44ee:	83 f0 01             	xor    $0x1,%eax
    44f1:	c9                   	leaveq 
    44f2:	c3                   	retq   
    44f3:	90                   	nop

00000000000044f4 <_ZNSt10_HashtableImSt4pairIKmSt10shared_ptrIN15coroutine_mimic9CoroutineEEESaIS6_ENSt8__detail10_Select1stESt8equal_toImESt4hashImENS8_18_Mod_range_hashingENS8_20_Default_ranged_hashENS8_20_Prime_rehash_policyENS8_17_Hashtable_traitsILb0ELb0ELb1EEEE3endEv>:
    44f4:	f3 0f 1e fa          	endbr64 
    44f8:	55                   	push   %rbp
    44f9:	48 89 e5             	mov    %rsp,%rbp
    44fc:	48 83 ec 20          	sub    $0x20,%rsp
    4500:	48 89 7d e8          	mov    %rdi,-0x18(%rbp)
    4504:	64 48 8b 04 25 28 00 	mov    %fs:0x28,%rax
    450b:	00 00 
    450d:	48 89 45 f8          	mov    %rax,-0x8(%rbp)
    4511:	31 c0                	xor    %eax,%eax
    4513:	48 8d 45 f0          	lea    -0x10(%rbp),%rax
    4517:	be 00 00 00 00       	mov    $0x0,%esi
    451c:	48 89 c7             	mov    %rax,%rdi
    451f:	e8 86 06 00 00       	callq  4baa <_ZNSt8__detail14_Node_iteratorISt4pairIKmSt10shared_ptrIN15coroutine_mimic9CoroutineEEELb0ELb0EEC1EPNS_10_Hash_nodeIS7_Lb0EEE>
    4524:	48 8b 45 f0          	mov    -0x10(%rbp),%rax
    4528:	48 8b 55 f8          	mov    -0x8(%rbp),%rdx
    452c:	64 48 33 14 25 28 00 	xor    %fs:0x28,%rdx
    4533:	00 00 
    4535:	74 05                	je     453c <_ZNSt10_HashtableImSt4pairIKmSt10shared_ptrIN15coroutine_mimic9CoroutineEEESaIS6_ENSt8__detail10_Select1stESt8equal_toImESt4hashImENS8_18_Mod_range_hashingENS8_20_Default_ranged_hashENS8_20_Prime_rehash_policyENS8_17_Hashtable_traitsILb0ELb0ELb1EEEE3endEv+0x48>
    4537:	e8 b4 df ff ff       	callq  24f0 <__stack_chk_fail@plt>
    453c:	c9                   	leaveq 
    453d:	c3                   	retq   

000000000000453e <_ZNKSt15__uniq_ptr_implIhSt14default_deleteIhEE6_M_ptrEv>:
    453e:	f3 0f 1e fa          	endbr64 
    4542:	55                   	push   %rbp
    4543:	48 89 e5             	mov    %rsp,%rbp
    4546:	48 83 ec 10          	sub    $0x10,%rsp
    454a:	48 89 7d f8          	mov    %rdi,-0x8(%rbp)
    454e:	48 8b 45 f8          	mov    -0x8(%rbp),%rax
    4552:	48 89 c7             	mov    %rax,%rdi
    4555:	e8 7a 06 00 00       	callq  4bd4 <_ZSt3getILm0EJPhSt14default_deleteIhEEERKNSt13tuple_elementIXT_ESt5tupleIJDpT0_EEE4typeERKS7_>
    455a:	48 8b 00             	mov    (%rax),%rax
    455d:	c9                   	leaveq 
    455e:	c3                   	retq   
    455f:	90                   	nop

0000000000004560 <_ZN9__gnu_cxx13new_allocatorINSt8__detail10_Hash_nodeISt4pairIKmSt10shared_ptrIN15coroutine_mimic9CoroutineEEELb0EEEEC1Ev>:
    4560:	f3 0f 1e fa          	endbr64 
    4564:	55                   	push   %rbp
    4565:	48 89 e5             	mov    %rsp,%rbp
    4568:	48 89 7d f8          	mov    %rdi,-0x8(%rbp)
    456c:	90                   	nop
    456d:	5d                   	pop    %rbp
    456e:	c3                   	retq   
    456f:	90                   	nop

0000000000004570 <_ZN9__gnu_cxx13new_allocatorINSt8__detail10_Hash_nodeISt4pairIKmSt10shared_ptrIN15coroutine_mimic9CoroutineEEELb0EEEED1Ev>:
    4570:	f3 0f 1e fa          	endbr64 
    4574:	55                   	push   %rbp
    4575:	48 89 e5             	mov    %rsp,%rbp
    4578:	48 89 7d f8          	mov    %rdi,-0x8(%rbp)
    457c:	90                   	nop
    457d:	5d                   	pop    %rbp
    457e:	c3                   	retq   
    457f:	90                   	nop

0000000000004580 <_ZNSt10_HashtableImSt4pairIKmSt10shared_ptrIN15coroutine_mimic9CoroutineEEESaIS6_ENSt8__detail10_Select1stESt8equal_toImESt4hashImENS8_18_Mod_range_hashingENS8_20_Default_ranged_hashENS8_20_Prime_rehash_policyENS8_17_Hashtable_traitsILb0ELb0ELb1EEEE5clearEv>:
    4580:	f3 0f 1e fa          	endbr64 
    4584:	55                   	push   %rbp
    4585:	48 89 e5             	mov    %rsp,%rbp
    4588:	48 83 ec 10          	sub    $0x10,%rsp
    458c:	48 89 7d f8          	mov    %rdi,-0x8(%rbp)
    4590:	48 8b 45 f8          	mov    -0x8(%rbp),%rax
    4594:	48 89 c7             	mov    %rax,%rdi
    4597:	e8 56 06 00 00       	callq  4bf2 <_ZNKSt10_HashtableImSt4pairIKmSt10shared_ptrIN15coroutine_mimic9CoroutineEEESaIS6_ENSt8__detail10_Select1stESt8equal_toImESt4hashImENS8_18_Mod_range_hashingENS8_20_Default_ranged_hashENS8_20_Prime_rehash_policyENS8_17_Hashtable_traitsILb0ELb0ELb1EEEE8_M_beginEv>
    459c:	48 89 c2             	mov    %rax,%rdx
    459f:	48 8b 45 f8          	mov    -0x8(%rbp),%rax
    45a3:	48 89 d6             	mov    %rdx,%rsi
    45a6:	48 89 c7             	mov    %rax,%rdi
    45a9:	e8 5a 06 00 00       	callq  4c08 <_ZNSt8__detail16_Hashtable_allocISaINS_10_Hash_nodeISt4pairIKmSt10shared_ptrIN15coroutine_mimic9CoroutineEEELb0EEEEE19_M_deallocate_nodesEPS9_>
    45ae:	48 8b 45 f8          	mov    -0x8(%rbp),%rax
    45b2:	48 8b 40 08          	mov    0x8(%rax),%rax
    45b6:	48 8d 14 c5 00 00 00 	lea    0x0(,%rax,8),%rdx
    45bd:	00 
    45be:	48 8b 45 f8          	mov    -0x8(%rbp),%rax
    45c2:	48 8b 00             	mov    (%rax),%rax
    45c5:	be 00 00 00 00       	mov    $0x0,%esi
    45ca:	48 89 c7             	mov    %rax,%rdi
    45cd:	e8 fe dd ff ff       	callq  23d0 <memset@plt>
    45d2:	48 8b 45 f8          	mov    -0x8(%rbp),%rax
    45d6:	48 c7 40 18 00 00 00 	movq   $0x0,0x18(%rax)
    45dd:	00 
    45de:	48 8b 45 f8          	mov    -0x8(%rbp),%rax
    45e2:	48 c7 40 10 00 00 00 	movq   $0x0,0x10(%rax)
    45e9:	00 
    45ea:	90                   	nop
    45eb:	c9                   	leaveq 
    45ec:	c3                   	retq   
    45ed:	90                   	nop

00000000000045ee <_ZNSt10_HashtableImSt4pairIKmSt10shared_ptrIN15coroutine_mimic9CoroutineEEESaIS6_ENSt8__detail10_Select1stESt8equal_toImESt4hashImENS8_18_Mod_range_hashingENS8_20_Default_ranged_hashENS8_20_Prime_rehash_policyENS8_17_Hashtable_traitsILb0ELb0ELb1EEEE21_M_deallocate_bucketsEv>:
    45ee:	f3 0f 1e fa          	endbr64 
    45f2:	55                   	push   %rbp
    45f3:	48 89 e5             	mov    %rsp,%rbp
    45f6:	48 83 ec 10          	sub    $0x10,%rsp
    45fa:	48 89 7d f8          	mov    %rdi,-0x8(%rbp)
    45fe:	48 8b 45 f8          	mov    -0x8(%rbp),%rax
    4602:	48 8b 50 08          	mov    0x8(%rax),%rdx
    4606:	48 8b 45 f8          	mov    -0x8(%rbp),%rax
    460a:	48 8b 08             	mov    (%rax),%rcx
    460d:	48 8b 45 f8          	mov    -0x8(%rbp),%rax
    4611:	48 89 ce             	mov    %rcx,%rsi
    4614:	48 89 c7             	mov    %rax,%rdi
    4617:	e8 38 06 00 00       	callq  4c54 <_ZNSt10_HashtableImSt4pairIKmSt10shared_ptrIN15coroutine_mimic9CoroutineEEESaIS6_ENSt8__detail10_Select1stESt8equal_toImESt4hashImENS8_18_Mod_range_hashingENS8_20_Default_ranged_hashENS8_20_Prime_rehash_policyENS8_17_Hashtable_traitsILb0ELb0ELb1EEEE21_M_deallocate_bucketsEPPNS8_15_Hash_node_baseEm>
    461c:	90                   	nop
    461d:	c9                   	leaveq 
    461e:	c3                   	retq   
    461f:	90                   	nop

0000000000004620 <_ZNSt15__uniq_ptr_implIhSt14default_deleteIhEEC1EPh>:
    4620:	f3 0f 1e fa          	endbr64 
    4624:	55                   	push   %rbp
    4625:	48 89 e5             	mov    %rsp,%rbp
    4628:	53                   	push   %rbx
    4629:	48 83 ec 18          	sub    $0x18,%rsp
    462d:	48 89 7d e8          	mov    %rdi,-0x18(%rbp)
    4631:	48 89 75 e0          	mov    %rsi,-0x20(%rbp)
    4635:	48 8b 45 e8          	mov    -0x18(%rbp),%rax
    4639:	48 89 c7             	mov    %rax,%rdi
    463c:	e8 3b f7 ff ff       	callq  3d7c <_ZNSt5tupleIJPhSt14default_deleteIhEEEC1IS0_S2_Lb1EEEv>
    4641:	48 8b 5d e0          	mov    -0x20(%rbp),%rbx
    4645:	48 8b 45 e8          	mov    -0x18(%rbp),%rax
    4649:	48 89 c7             	mov    %rax,%rdi
    464c:	e8 05 fe ff ff       	callq  4456 <_ZNSt15__uniq_ptr_implIhSt14default_deleteIhEE6_M_ptrEv>
    4651:	48 89 18             	mov    %rbx,(%rax)
    4654:	90                   	nop
    4655:	48 83 c4 18          	add    $0x18,%rsp
    4659:	5b                   	pop    %rbx
    465a:	5d                   	pop    %rbp
    465b:	c3                   	retq   

000000000000465c <_ZNSt8__detail19_Node_iterator_baseISt4pairIKmSt10shared_ptrIN15coroutine_mimic9CoroutineEEELb0EEC1EPNS_10_Hash_nodeIS7_Lb0EEE>:
    465c:	f3 0f 1e fa          	endbr64 
    4660:	55                   	push   %rbp
    4661:	48 89 e5             	mov    %rsp,%rbp
    4664:	48 89 7d f8          	mov    %rdi,-0x8(%rbp)
    4668:	48 89 75 f0          	mov    %rsi,-0x10(%rbp)
    466c:	48 8b 45 f8          	mov    -0x8(%rbp),%rax
    4670:	48 8b 55 f0          	mov    -0x10(%rbp),%rdx
    4674:	48 89 10             	mov    %rdx,(%rax)
    4677:	90                   	nop
    4678:	5d                   	pop    %rbp
    4679:	c3                   	retq   

000000000000467a <_ZNSaIN15coroutine_mimic9CoroutineEEC1Ev>:
    467a:	f3 0f 1e fa          	endbr64 
    467e:	55                   	push   %rbp
    467f:	48 89 e5             	mov    %rsp,%rbp
    4682:	48 83 ec 10          	sub    $0x10,%rsp
    4686:	48 89 7d f8          	mov    %rdi,-0x8(%rbp)
    468a:	48 8b 45 f8          	mov    -0x8(%rbp),%rax
    468e:	48 89 c7             	mov    %rax,%rdi
    4691:	e8 0a 06 00 00       	callq  4ca0 <_ZN9__gnu_cxx13new_allocatorIN15coroutine_mimic9CoroutineEEC1Ev>
    4696:	90                   	nop
    4697:	c9                   	leaveq 
    4698:	c3                   	retq   
    4699:	90                   	nop

000000000000469a <_ZNSaIN15coroutine_mimic9CoroutineEED1Ev>:
    469a:	f3 0f 1e fa          	endbr64 
    469e:	55                   	push   %rbp
    469f:	48 89 e5             	mov    %rsp,%rbp
    46a2:	48 83 ec 10          	sub    $0x10,%rsp
    46a6:	48 89 7d f8          	mov    %rdi,-0x8(%rbp)
    46aa:	48 8b 45 f8          	mov    -0x8(%rbp),%rax
    46ae:	48 89 c7             	mov    %rax,%rdi
    46b1:	e8 fa 05 00 00       	callq  4cb0 <_ZN9__gnu_cxx13new_allocatorIN15coroutine_mimic9CoroutineEED1Ev>
    46b6:	90                   	nop
    46b7:	c9                   	leaveq 
    46b8:	c3                   	retq   

00000000000046b9 <_ZSt7forwardIPN15coroutine_mimic9SchedulerEEOT_RNSt16remove_referenceIS3_E4typeE>:
    46b9:	f3 0f 1e fa          	endbr64 
    46bd:	55                   	push   %rbp
    46be:	48 89 e5             	mov    %rsp,%rbp
    46c1:	48 89 7d f8          	mov    %rdi,-0x8(%rbp)
    46c5:	48 8b 45 f8          	mov    -0x8(%rbp),%rax
    46c9:	5d                   	pop    %rbp
    46ca:	c3                   	retq   

00000000000046cb <_ZSt7forwardIRSt8functionIFvPN15coroutine_mimic9SchedulerESt3anyEEEOT_RNSt16remove_referenceIS8_E4typeE>:
    46cb:	f3 0f 1e fa          	endbr64 
    46cf:	55                   	push   %rbp
    46d0:	48 89 e5             	mov    %rsp,%rbp
    46d3:	48 89 7d f8          	mov    %rdi,-0x8(%rbp)
    46d7:	48 8b 45 f8          	mov    -0x8(%rbp),%rax
    46db:	5d                   	pop    %rbp
    46dc:	c3                   	retq   

00000000000046dd <_ZSt7forwardIRSt3anyEOT_RNSt16remove_referenceIS2_E4typeE>:
    46dd:	f3 0f 1e fa          	endbr64 
    46e1:	55                   	push   %rbp
    46e2:	48 89 e5             	mov    %rsp,%rbp
    46e5:	48 89 7d f8          	mov    %rdi,-0x8(%rbp)
    46e9:	48 8b 45 f8          	mov    -0x8(%rbp),%rax
    46ed:	5d                   	pop    %rbp
    46ee:	c3                   	retq   

00000000000046ef <_ZSt15allocate_sharedIN15coroutine_mimic9CoroutineESaIS1_EJPNS0_9SchedulerERSt8functionIFvS4_St3anyEERS6_EESt10shared_ptrIT_ERKT0_DpOT1_>:
    46ef:	f3 0f 1e fa          	endbr64 
    46f3:	55                   	push   %rbp
    46f4:	48 89 e5             	mov    %rsp,%rbp
    46f7:	41 54                	push   %r12
    46f9:	53                   	push   %rbx
    46fa:	48 83 ec 30          	sub    $0x30,%rsp
    46fe:	48 89 7d e8          	mov    %rdi,-0x18(%rbp)
    4702:	48 89 75 e0          	mov    %rsi,-0x20(%rbp)
    4706:	48 89 55 d8          	mov    %rdx,-0x28(%rbp)
    470a:	48 89 4d d0          	mov    %rcx,-0x30(%rbp)
    470e:	4c 89 45 c8          	mov    %r8,-0x38(%rbp)
    4712:	48 8b 45 c8          	mov    -0x38(%rbp),%rax
    4716:	48 89 c7             	mov    %rax,%rdi
    4719:	e8 bf ff ff ff       	callq  46dd <_ZSt7forwardIRSt3anyEOT_RNSt16remove_referenceIS2_E4typeE>
    471e:	49 89 c4             	mov    %rax,%r12
    4721:	48 8b 45 d0          	mov    -0x30(%rbp),%rax
    4725:	48 89 c7             	mov    %rax,%rdi
    4728:	e8 9e ff ff ff       	callq  46cb <_ZSt7forwardIRSt8functionIFvPN15coroutine_mimic9SchedulerESt3anyEEEOT_RNSt16remove_referenceIS8_E4typeE>
    472d:	48 89 c3             	mov    %rax,%rbx
    4730:	48 8b 45 d8          	mov    -0x28(%rbp),%rax
    4734:	48 89 c7             	mov    %rax,%rdi
    4737:	e8 7d ff ff ff       	callq  46b9 <_ZSt7forwardIPN15coroutine_mimic9SchedulerEEOT_RNSt16remove_referenceIS3_E4typeE>
    473c:	48 89 c2             	mov    %rax,%rdx
    473f:	48 8b 75 e0          	mov    -0x20(%rbp),%rsi
    4743:	48 8b 45 e8          	mov    -0x18(%rbp),%rax
    4747:	4d 89 e0             	mov    %r12,%r8
    474a:	48 89 d9             	mov    %rbx,%rcx
    474d:	48 89 c7             	mov    %rax,%rdi
    4750:	e8 6b 05 00 00       	callq  4cc0 <_ZNSt10shared_ptrIN15coroutine_mimic9CoroutineEEC1ISaIS1_EJPNS0_9SchedulerERSt8functionIFvS6_St3anyEERS8_EEESt20_Sp_alloc_shared_tagIT_EDpOT0_>
    4755:	48 8b 45 e8          	mov    -0x18(%rbp),%rax
    4759:	48 83 c4 30          	add    $0x30,%rsp
    475d:	5b                   	pop    %rbx
    475e:	41 5c                	pop    %r12
    4760:	5d                   	pop    %rbp
    4761:	c3                   	retq   

0000000000004762 <_ZNSt16_Sp_counted_baseILN9__gnu_cxx12_Lock_policyE2EE10_M_releaseEv>:
    4762:	f3 0f 1e fa          	endbr64 
    4766:	55                   	push   %rbp
    4767:	48 89 e5             	mov    %rsp,%rbp
    476a:	48 83 ec 10          	sub    $0x10,%rsp
    476e:	48 89 7d f8          	mov    %rdi,-0x8(%rbp)
    4772:	48 8b 45 f8          	mov    -0x8(%rbp),%rax
    4776:	48 83 c0 08          	add    $0x8,%rax
    477a:	be ff ff ff ff       	mov    $0xffffffff,%esi
    477f:	48 89 c7             	mov    %rax,%rdi
    4782:	e8 ea ed ff ff       	callq  3571 <_ZN9__gnu_cxxL27__exchange_and_add_dispatchEPii>
    4787:	83 f8 01             	cmp    $0x1,%eax
    478a:	0f 94 c0             	sete   %al
    478d:	84 c0                	test   %al,%al
    478f:	74 4d                	je     47de <_ZNSt16_Sp_counted_baseILN9__gnu_cxx12_Lock_policyE2EE10_M_releaseEv+0x7c>
    4791:	48 8b 45 f8          	mov    -0x8(%rbp),%rax
    4795:	48 8b 00             	mov    (%rax),%rax
    4798:	48 83 c0 10          	add    $0x10,%rax
    479c:	48 8b 10             	mov    (%rax),%rdx
    479f:	48 8b 45 f8          	mov    -0x8(%rbp),%rax
    47a3:	48 89 c7             	mov    %rax,%rdi
    47a6:	ff d2                	callq  *%rdx
    47a8:	48 8b 45 f8          	mov    -0x8(%rbp),%rax
    47ac:	48 83 c0 0c          	add    $0xc,%rax
    47b0:	be ff ff ff ff       	mov    $0xffffffff,%esi
    47b5:	48 89 c7             	mov    %rax,%rdi
    47b8:	e8 b4 ed ff ff       	callq  3571 <_ZN9__gnu_cxxL27__exchange_and_add_dispatchEPii>
    47bd:	83 f8 01             	cmp    $0x1,%eax
    47c0:	0f 94 c0             	sete   %al
    47c3:	84 c0                	test   %al,%al
    47c5:	74 17                	je     47de <_ZNSt16_Sp_counted_baseILN9__gnu_cxx12_Lock_policyE2EE10_M_releaseEv+0x7c>
    47c7:	48 8b 45 f8          	mov    -0x8(%rbp),%rax
    47cb:	48 8b 00             	mov    (%rax),%rax
    47ce:	48 83 c0 18          	add    $0x18,%rax
    47d2:	48 8b 10             	mov    (%rax),%rdx
    47d5:	48 8b 45 f8          	mov    -0x8(%rbp),%rax
    47d9:	48 89 c7             	mov    %rax,%rdi
    47dc:	ff d2                	callq  *%rdx
    47de:	90                   	nop
    47df:	c9                   	leaveq 
    47e0:	c3                   	retq   
    47e1:	90                   	nop

00000000000047e2 <_ZNSt8__detail9_Map_baseImSt4pairIKmSt10shared_ptrIN15coroutine_mimic9CoroutineEEESaIS7_ENS_10_Select1stESt8equal_toImESt4hashImENS_18_Mod_range_hashingENS_20_Default_ranged_hashENS_20_Prime_rehash_policyENS_17_Hashtable_traitsILb0ELb0ELb1EEELb1EEixERS2_>:
    47e2:	f3 0f 1e fa          	endbr64 
    47e6:	55                   	push   %rbp
    47e7:	48 89 e5             	mov    %rsp,%rbp
    47ea:	48 83 ec 50          	sub    $0x50,%rsp
    47ee:	48 89 7d b8          	mov    %rdi,-0x48(%rbp)
    47f2:	48 89 75 b0          	mov    %rsi,-0x50(%rbp)
    47f6:	64 48 8b 04 25 28 00 	mov    %fs:0x28,%rax
    47fd:	00 00 
    47ff:	48 89 45 f8          	mov    %rax,-0x8(%rbp)
    4803:	31 c0                	xor    %eax,%eax
    4805:	48 8b 45 b8          	mov    -0x48(%rbp),%rax
    4809:	48 89 45 d8          	mov    %rax,-0x28(%rbp)
    480d:	48 8b 55 b0          	mov    -0x50(%rbp),%rdx
    4811:	48 8b 45 d8          	mov    -0x28(%rbp),%rax
    4815:	48 89 d6             	mov    %rdx,%rsi
    4818:	48 89 c7             	mov    %rax,%rdi
    481b:	e8 4a 05 00 00       	callq  4d6a <_ZNKSt8__detail15_Hash_code_baseImSt4pairIKmSt10shared_ptrIN15coroutine_mimic9CoroutineEEENS_10_Select1stESt4hashImENS_18_Mod_range_hashingENS_20_Default_ranged_hashELb0EE12_M_hash_codeERS2_>
    4820:	48 89 45 e0          	mov    %rax,-0x20(%rbp)
    4824:	48 8b 55 e0          	mov    -0x20(%rbp),%rdx
    4828:	48 8b 4d b0          	mov    -0x50(%rbp),%rcx
    482c:	48 8b 45 d8          	mov    -0x28(%rbp),%rax
    4830:	48 89 ce             	mov    %rcx,%rsi
    4833:	48 89 c7             	mov    %rax,%rdi
    4836:	e8 67 05 00 00       	callq  4da2 <_ZNKSt10_HashtableImSt4pairIKmSt10shared_ptrIN15coroutine_mimic9CoroutineEEESaIS6_ENSt8__detail10_Select1stESt8equal_toImESt4hashImENS8_18_Mod_range_hashingENS8_20_Default_ranged_hashENS8_20_Prime_rehash_policyENS8_17_Hashtable_traitsILb0ELb0ELb1EEEE15_M_bucket_indexERS1_m>
    483b:	48 89 45 e8          	mov    %rax,-0x18(%rbp)
    483f:	48 8b 4d e0          	mov    -0x20(%rbp),%rcx
    4843:	48 8b 55 b0          	mov    -0x50(%rbp),%rdx
    4847:	48 8b 75 e8          	mov    -0x18(%rbp),%rsi
    484b:	48 8b 45 d8          	mov    -0x28(%rbp),%rax
    484f:	48 89 c7             	mov    %rax,%rdi
    4852:	e8 81 05 00 00       	callq  4dd8 <_ZNKSt10_HashtableImSt4pairIKmSt10shared_ptrIN15coroutine_mimic9CoroutineEEESaIS6_ENSt8__detail10_Select1stESt8equal_toImESt4hashImENS8_18_Mod_range_hashingENS8_20_Default_ranged_hashENS8_20_Prime_rehash_policyENS8_17_Hashtable_traitsILb0ELb0ELb1EEEE12_M_find_nodeEmRS1_m>
    4857:	48 89 45 f0          	mov    %rax,-0x10(%rbp)
    485b:	48 83 7d f0 00       	cmpq   $0x0,-0x10(%rbp)
    4860:	75 66                	jne    48c8 <_ZNSt8__detail9_Map_baseImSt4pairIKmSt10shared_ptrIN15coroutine_mimic9CoroutineEEESaIS7_ENS_10_Select1stESt8equal_toImESt4hashImENS_18_Mod_range_hashingENS_20_Default_ranged_hashENS_20_Prime_rehash_policyENS_17_Hashtable_traitsILb0ELb0ELb1EEELb1EEixERS2_+0xe6>
    4862:	48 8b 55 b0          	mov    -0x50(%rbp),%rdx
    4866:	48 8d 45 d0          	lea    -0x30(%rbp),%rax
    486a:	48 89 d6             	mov    %rdx,%rsi
    486d:	48 89 c7             	mov    %rax,%rdi
    4870:	e8 b3 05 00 00       	callq  4e28 <_ZNSt5tupleIJRKmEEC1IvLb1EEES1_>
    4875:	48 8d 4d cf          	lea    -0x31(%rbp),%rcx
    4879:	48 8d 55 d0          	lea    -0x30(%rbp),%rdx
    487d:	48 8b 45 d8          	mov    -0x28(%rbp),%rax
    4881:	48 8d 35 7c 57 00 00 	lea    0x577c(%rip),%rsi        # a004 <_ZSt19piecewise_construct>
    4888:	48 89 c7             	mov    %rax,%rdi
    488b:	e8 02 06 00 00       	callq  4e92 <_ZNSt8__detail16_Hashtable_allocISaINS_10_Hash_nodeISt4pairIKmSt10shared_ptrIN15coroutine_mimic9CoroutineEEELb0EEEEE16_M_allocate_nodeIJRKSt21piecewise_construct_tSt5tupleIJRS3_EESG_IJEEEEEPS9_DpOT_>
    4890:	48 89 45 f0          	mov    %rax,-0x10(%rbp)
    4894:	48 8b 4d f0          	mov    -0x10(%rbp),%rcx
    4898:	48 8b 55 e0          	mov    -0x20(%rbp),%rdx
    489c:	48 8b 75 e8          	mov    -0x18(%rbp),%rsi
    48a0:	48 8b 45 d8          	mov    -0x28(%rbp),%rax
    48a4:	41 b8 01 00 00 00    	mov    $0x1,%r8d
    48aa:	48 89 c7             	mov    %rax,%rdi
    48ad:	e8 04 07 00 00       	callq  4fb6 <_ZNSt10_HashtableImSt4pairIKmSt10shared_ptrIN15coroutine_mimic9CoroutineEEESaIS6_ENSt8__detail10_Select1stESt8equal_toImESt4hashImENS8_18_Mod_range_hashingENS8_20_Default_ranged_hashENS8_20_Prime_rehash_policyENS8_17_Hashtable_traitsILb0ELb0ELb1EEEE21_M_insert_unique_nodeEmmPNS8_10_Hash_nodeIS6_Lb0EEEm>
    48b2:	48 89 45 d0          	mov    %rax,-0x30(%rbp)
    48b6:	48 8d 45 d0          	lea    -0x30(%rbp),%rax
    48ba:	48 89 c7             	mov    %rax,%rdi
    48bd:	e8 80 08 00 00       	callq  5142 <_ZNKSt8__detail14_Node_iteratorISt4pairIKmSt10shared_ptrIN15coroutine_mimic9CoroutineEEELb0ELb0EEptEv>
    48c2:	48 83 c0 08          	add    $0x8,%rax
    48c6:	eb 10                	jmp    48d8 <_ZNSt8__detail9_Map_baseImSt4pairIKmSt10shared_ptrIN15coroutine_mimic9CoroutineEEESaIS7_ENS_10_Select1stESt8equal_toImESt4hashImENS_18_Mod_range_hashingENS_20_Default_ranged_hashENS_20_Prime_rehash_policyENS_17_Hashtable_traitsILb0ELb0ELb1EEELb1EEixERS2_+0xf6>
    48c8:	48 8b 45 f0          	mov    -0x10(%rbp),%rax
    48cc:	48 89 c7             	mov    %rax,%rdi
    48cf:	e8 90 08 00 00       	callq  5164 <_ZNSt8__detail21_Hash_node_value_baseISt4pairIKmSt10shared_ptrIN15coroutine_mimic9CoroutineEEEE4_M_vEv>
    48d4:	48 83 c0 08          	add    $0x8,%rax
    48d8:	48 8b 7d f8          	mov    -0x8(%rbp),%rdi
    48dc:	64 48 33 3c 25 28 00 	xor    %fs:0x28,%rdi
    48e3:	00 00 
    48e5:	74 05                	je     48ec <_ZNSt8__detail9_Map_baseImSt4pairIKmSt10shared_ptrIN15coroutine_mimic9CoroutineEEESaIS7_ENS_10_Select1stESt8equal_toImESt4hashImENS_18_Mod_range_hashingENS_20_Default_ranged_hashENS_20_Prime_rehash_policyENS_17_Hashtable_traitsILb0ELb0ELb1EEELb1EEixERS2_+0x10a>
    48e7:	e8 04 dc ff ff       	callq  24f0 <__stack_chk_fail@plt>
    48ec:	c9                   	leaveq 
    48ed:	c3                   	retq   

00000000000048ee <_ZNSt16_Sp_counted_baseILN9__gnu_cxx12_Lock_policyE2EE15_M_add_ref_copyEv>:
    48ee:	f3 0f 1e fa          	endbr64 
    48f2:	55                   	push   %rbp
    48f3:	48 89 e5             	mov    %rsp,%rbp
    48f6:	48 83 ec 08          	sub    $0x8,%rsp
    48fa:	48 89 7d f8          	mov    %rdi,-0x8(%rbp)
    48fe:	48 8b 45 f8          	mov    -0x8(%rbp),%rax
    4902:	48 83 c0 08          	add    $0x8,%rax
    4906:	be 01 00 00 00       	mov    $0x1,%esi
    490b:	48 89 c7             	mov    %rax,%rdi
    490e:	e8 a2 ec ff ff       	callq  35b5 <_ZN9__gnu_cxxL21__atomic_add_dispatchEPii>
    4913:	90                   	nop
    4914:	c9                   	leaveq 
    4915:	c3                   	retq   

0000000000004916 <_ZNSt10_HashtableImSt4pairIKmSt10shared_ptrIN15coroutine_mimic9CoroutineEEESaIS6_ENSt8__detail10_Select1stESt8equal_toImESt4hashImENS8_18_Mod_range_hashingENS8_20_Default_ranged_hashENS8_20_Prime_rehash_policyENS8_17_Hashtable_traitsILb0ELb0ELb1EEEE4findERS1_>:
    4916:	f3 0f 1e fa          	endbr64 
    491a:	55                   	push   %rbp
    491b:	48 89 e5             	mov    %rsp,%rbp
    491e:	48 83 ec 40          	sub    $0x40,%rsp
    4922:	48 89 7d c8          	mov    %rdi,-0x38(%rbp)
    4926:	48 89 75 c0          	mov    %rsi,-0x40(%rbp)
    492a:	64 48 8b 04 25 28 00 	mov    %fs:0x28,%rax
    4931:	00 00 
    4933:	48 89 45 f8          	mov    %rax,-0x8(%rbp)
    4937:	31 c0                	xor    %eax,%eax
    4939:	48 8b 55 c0          	mov    -0x40(%rbp),%rdx
    493d:	48 8b 45 c8          	mov    -0x38(%rbp),%rax
    4941:	48 89 d6             	mov    %rdx,%rsi
    4944:	48 89 c7             	mov    %rax,%rdi
    4947:	e8 1e 04 00 00       	callq  4d6a <_ZNKSt8__detail15_Hash_code_baseImSt4pairIKmSt10shared_ptrIN15coroutine_mimic9CoroutineEEENS_10_Select1stESt4hashImENS_18_Mod_range_hashingENS_20_Default_ranged_hashELb0EE12_M_hash_codeERS2_>
    494c:	48 89 45 e0          	mov    %rax,-0x20(%rbp)
    4950:	48 8b 55 e0          	mov    -0x20(%rbp),%rdx
    4954:	48 8b 4d c0          	mov    -0x40(%rbp),%rcx
    4958:	48 8b 45 c8          	mov    -0x38(%rbp),%rax
    495c:	48 89 ce             	mov    %rcx,%rsi
    495f:	48 89 c7             	mov    %rax,%rdi
    4962:	e8 3b 04 00 00       	callq  4da2 <_ZNKSt10_HashtableImSt4pairIKmSt10shared_ptrIN15coroutine_mimic9CoroutineEEESaIS6_ENSt8__detail10_Select1stESt8equal_toImESt4hashImENS8_18_Mod_range_hashingENS8_20_Default_ranged_hashENS8_20_Prime_rehash_policyENS8_17_Hashtable_traitsILb0ELb0ELb1EEEE15_M_bucket_indexERS1_m>
    4967:	48 89 45 e8          	mov    %rax,-0x18(%rbp)
    496b:	48 8b 4d e0          	mov    -0x20(%rbp),%rcx
    496f:	48 8b 55 c0          	mov    -0x40(%rbp),%rdx
    4973:	48 8b 75 e8          	mov    -0x18(%rbp),%rsi
    4977:	48 8b 45 c8          	mov    -0x38(%rbp),%rax
    497b:	48 89 c7             	mov    %rax,%rdi
    497e:	e8 55 04 00 00       	callq  4dd8 <_ZNKSt10_HashtableImSt4pairIKmSt10shared_ptrIN15coroutine_mimic9CoroutineEEESaIS6_ENSt8__detail10_Select1stESt8equal_toImESt4hashImENS8_18_Mod_range_hashingENS8_20_Default_ranged_hashENS8_20_Prime_rehash_policyENS8_17_Hashtable_traitsILb0ELb0ELb1EEEE12_M_find_nodeEmRS1_m>
    4983:	48 89 45 f0          	mov    %rax,-0x10(%rbp)
    4987:	48 83 7d f0 00       	cmpq   $0x0,-0x10(%rbp)
    498c:	74 15                	je     49a3 <_ZNSt10_HashtableImSt4pairIKmSt10shared_ptrIN15coroutine_mimic9CoroutineEEESaIS6_ENSt8__detail10_Select1stESt8equal_toImESt4hashImENS8_18_Mod_range_hashingENS8_20_Default_ranged_hashENS8_20_Prime_rehash_policyENS8_17_Hashtable_traitsILb0ELb0ELb1EEEE4findERS1_+0x8d>
    498e:	48 8b 55 f0          	mov    -0x10(%rbp),%rdx
    4992:	48 8d 45 d8          	lea    -0x28(%rbp),%rax
    4996:	48 89 d6             	mov    %rdx,%rsi
    4999:	48 89 c7             	mov    %rax,%rdi
    499c:	e8 09 02 00 00       	callq  4baa <_ZNSt8__detail14_Node_iteratorISt4pairIKmSt10shared_ptrIN15coroutine_mimic9CoroutineEEELb0ELb0EEC1EPNS_10_Hash_nodeIS7_Lb0EEE>
    49a1:	eb 10                	jmp    49b3 <_ZNSt10_HashtableImSt4pairIKmSt10shared_ptrIN15coroutine_mimic9CoroutineEEESaIS6_ENSt8__detail10_Select1stESt8equal_toImESt4hashImENS8_18_Mod_range_hashingENS8_20_Default_ranged_hashENS8_20_Prime_rehash_policyENS8_17_Hashtable_traitsILb0ELb0ELb1EEEE4findERS1_+0x9d>
    49a3:	48 8b 45 c8          	mov    -0x38(%rbp),%rax
    49a7:	48 89 c7             	mov    %rax,%rdi
    49aa:	e8 45 fb ff ff       	callq  44f4 <_ZNSt10_HashtableImSt4pairIKmSt10shared_ptrIN15coroutine_mimic9CoroutineEEESaIS6_ENSt8__detail10_Select1stESt8equal_toImESt4hashImENS8_18_Mod_range_hashingENS8_20_Default_ranged_hashENS8_20_Prime_rehash_policyENS8_17_Hashtable_traitsILb0ELb0ELb1EEEE3endEv>
    49af:	48 89 45 d8          	mov    %rax,-0x28(%rbp)
    49b3:	48 8b 45 d8          	mov    -0x28(%rbp),%rax
    49b7:	48 8b 4d f8          	mov    -0x8(%rbp),%rcx
    49bb:	64 48 33 0c 25 28 00 	xor    %fs:0x28,%rcx
    49c2:	00 00 
    49c4:	74 05                	je     49cb <_ZNSt10_HashtableImSt4pairIKmSt10shared_ptrIN15coroutine_mimic9CoroutineEEESaIS6_ENSt8__detail10_Select1stESt8equal_toImESt4hashImENS8_18_Mod_range_hashingENS8_20_Default_ranged_hashENS8_20_Prime_rehash_policyENS8_17_Hashtable_traitsILb0ELb0ELb1EEEE4findERS1_+0xb5>
    49c6:	e8 25 db ff ff       	callq  24f0 <__stack_chk_fail@plt>
    49cb:	c9                   	leaveq 
    49cc:	c3                   	retq   
    49cd:	90                   	nop

00000000000049ce <_ZNKSt19__shared_ptr_accessIN15coroutine_mimic9CoroutineELN9__gnu_cxx12_Lock_policyE2ELb0ELb0EE6_M_getEv>:
    49ce:	f3 0f 1e fa          	endbr64 
    49d2:	55                   	push   %rbp
    49d3:	48 89 e5             	mov    %rsp,%rbp
    49d6:	48 83 ec 10          	sub    $0x10,%rsp
    49da:	48 89 7d f8          	mov    %rdi,-0x8(%rbp)
    49de:	48 8b 45 f8          	mov    -0x8(%rbp),%rax
    49e2:	48 89 c7             	mov    %rax,%rdi
    49e5:	e8 98 07 00 00       	callq  5182 <_ZNKSt12__shared_ptrIN15coroutine_mimic9CoroutineELN9__gnu_cxx12_Lock_policyE2EE3getEv>
    49ea:	c9                   	leaveq 
    49eb:	c3                   	retq   

00000000000049ec <_ZNSt8__detail21_Hash_node_value_baseISt4pairIKmSt10shared_ptrIN15coroutine_mimic9CoroutineEEEE9_M_valptrEv>:
    49ec:	f3 0f 1e fa          	endbr64 
    49f0:	55                   	push   %rbp
    49f1:	48 89 e5             	mov    %rsp,%rbp
    49f4:	48 83 ec 10          	sub    $0x10,%rsp
    49f8:	48 89 7d f8          	mov    %rdi,-0x8(%rbp)
    49fc:	48 8b 45 f8          	mov    -0x8(%rbp),%rax
    4a00:	48 83 c0 08          	add    $0x8,%rax
    4a04:	48 89 c7             	mov    %rax,%rdi
    4a07:	e8 8c 07 00 00       	callq  5198 <_ZN9__gnu_cxx16__aligned_bufferISt4pairIKmSt10shared_ptrIN15coroutine_mimic9CoroutineEEEE6_M_ptrEv>
    4a0c:	c9                   	leaveq 
    4a0d:	c3                   	retq   

0000000000004a0e <_ZSt4swapIPhENSt9enable_ifIXsrSt6__and_IJSt6__not_ISt15__is_tuple_likeIT_EESt21is_move_constructibleIS5_ESt18is_move_assignableIS5_EEE5valueEvE4typeERS5_SF_>:
    4a0e:	f3 0f 1e fa          	endbr64 
    4a12:	55                   	push   %rbp
    4a13:	48 89 e5             	mov    %rsp,%rbp
    4a16:	48 83 ec 20          	sub    $0x20,%rsp
    4a1a:	48 89 7d e8          	mov    %rdi,-0x18(%rbp)
    4a1e:	48 89 75 e0          	mov    %rsi,-0x20(%rbp)
    4a22:	64 48 8b 04 25 28 00 	mov    %fs:0x28,%rax
    4a29:	00 00 
    4a2b:	48 89 45 f8          	mov    %rax,-0x8(%rbp)
    4a2f:	31 c0                	xor    %eax,%eax
    4a31:	48 8b 45 e8          	mov    -0x18(%rbp),%rax
    4a35:	48 89 c7             	mov    %rax,%rdi
    4a38:	e8 55 fa ff ff       	callq  4492 <_ZSt4moveIRPhEONSt16remove_referenceIT_E4typeEOS3_>
    4a3d:	48 8b 00             	mov    (%rax),%rax
    4a40:	48 89 45 f0          	mov    %rax,-0x10(%rbp)
    4a44:	48 8b 45 e0          	mov    -0x20(%rbp),%rax
    4a48:	48 89 c7             	mov    %rax,%rdi
    4a4b:	e8 42 fa ff ff       	callq  4492 <_ZSt4moveIRPhEONSt16remove_referenceIT_E4typeEOS3_>
    4a50:	48 8b 10             	mov    (%rax),%rdx
    4a53:	48 8b 45 e8          	mov    -0x18(%rbp),%rax
    4a57:	48 89 10             	mov    %rdx,(%rax)
    4a5a:	48 8d 45 f0          	lea    -0x10(%rbp),%rax
    4a5e:	48 89 c7             	mov    %rax,%rdi
    4a61:	e8 2c fa ff ff       	callq  4492 <_ZSt4moveIRPhEONSt16remove_referenceIT_E4typeEOS3_>
    4a66:	48 8b 10             	mov    (%rax),%rdx
    4a69:	48 8b 45 e0          	mov    -0x20(%rbp),%rax
    4a6d:	48 89 10             	mov    %rdx,(%rax)
    4a70:	90                   	nop
    4a71:	48 8b 45 f8          	mov    -0x8(%rbp),%rax
    4a75:	64 48 33 04 25 28 00 	xor    %fs:0x28,%rax
    4a7c:	00 00 
    4a7e:	74 05                	je     4a85 <_ZSt4swapIPhENSt9enable_ifIXsrSt6__and_IJSt6__not_ISt15__is_tuple_likeIT_EESt21is_move_constructibleIS5_ESt18is_move_assignableIS5_EEE5valueEvE4typeERS5_SF_+0x77>
    4a80:	e8 6b da ff ff       	callq  24f0 <__stack_chk_fail@plt>
    4a85:	c9                   	leaveq 
    4a86:	c3                   	retq   

0000000000004a87 <_ZSt7forwardISt3anyEOT_RNSt16remove_referenceIS1_E4typeE>:
    4a87:	f3 0f 1e fa          	endbr64 
    4a8b:	55                   	push   %rbp
    4a8c:	48 89 e5             	mov    %rsp,%rbp
    4a8f:	48 89 7d f8          	mov    %rdi,-0x8(%rbp)
    4a93:	48 8b 45 f8          	mov    -0x8(%rbp),%rax
    4a97:	5d                   	pop    %rbp
    4a98:	c3                   	retq   
    4a99:	90                   	nop

0000000000004a9a <_ZNSt10_HashtableImSt4pairIKmSt10shared_ptrIN15coroutine_mimic9CoroutineEEESaIS6_ENSt8__detail10_Select1stESt8equal_toImESt4hashImENS8_18_Mod_range_hashingENS8_20_Default_ranged_hashENS8_20_Prime_rehash_policyENS8_17_Hashtable_traitsILb0ELb0ELb1EEEE5eraseENS8_20_Node_const_iteratorIS6_Lb0ELb0EEE>:
    4a9a:	f3 0f 1e fa          	endbr64 
    4a9e:	55                   	push   %rbp
    4a9f:	48 89 e5             	mov    %rsp,%rbp
    4aa2:	48 83 ec 30          	sub    $0x30,%rsp
    4aa6:	48 89 7d d8          	mov    %rdi,-0x28(%rbp)
    4aaa:	48 89 75 d0          	mov    %rsi,-0x30(%rbp)
    4aae:	48 8b 45 d0          	mov    -0x30(%rbp),%rax
    4ab2:	48 89 45 e8          	mov    %rax,-0x18(%rbp)
    4ab6:	48 8b 55 e8          	mov    -0x18(%rbp),%rdx
    4aba:	48 8b 45 d8          	mov    -0x28(%rbp),%rax
    4abe:	48 89 d6             	mov    %rdx,%rsi
    4ac1:	48 89 c7             	mov    %rax,%rdi
    4ac4:	e8 ed 06 00 00       	callq  51b6 <_ZNKSt10_HashtableImSt4pairIKmSt10shared_ptrIN15coroutine_mimic9CoroutineEEESaIS6_ENSt8__detail10_Select1stESt8equal_toImESt4hashImENS8_18_Mod_range_hashingENS8_20_Default_ranged_hashENS8_20_Prime_rehash_policyENS8_17_Hashtable_traitsILb0ELb0ELb1EEEE15_M_bucket_indexEPNS8_10_Hash_nodeIS6_Lb0EEE>
    4ac9:	48 89 45 f0          	mov    %rax,-0x10(%rbp)
    4acd:	48 8b 55 e8          	mov    -0x18(%rbp),%rdx
    4ad1:	48 8b 4d f0          	mov    -0x10(%rbp),%rcx
    4ad5:	48 8b 45 d8          	mov    -0x28(%rbp),%rax
    4ad9:	48 89 ce             	mov    %rcx,%rsi
    4adc:	48 89 c7             	mov    %rax,%rdi
    4adf:	e8 04 07 00 00       	callq  51e8 <_ZNSt10_HashtableImSt4pairIKmSt10shared_ptrIN15coroutine_mimic9CoroutineEEESaIS6_ENSt8__detail10_Select1stESt8equal_toImESt4hashImENS8_18_Mod_range_hashingENS8_20_Default_ranged_hashENS8_20_Prime_rehash_policyENS8_17_Hashtable_traitsILb0ELb0ELb1EEEE20_M_get_previous_nodeEmPNS8_15_Hash_node_baseE>
    4ae4:	48 89 45 f8          	mov    %rax,-0x8(%rbp)
    4ae8:	48 8b 4d e8          	mov    -0x18(%rbp),%rcx
    4aec:	48 8b 55 f8          	mov    -0x8(%rbp),%rdx
    4af0:	48 8b 75 f0          	mov    -0x10(%rbp),%rsi
    4af4:	48 8b 45 d8          	mov    -0x28(%rbp),%rax
    4af8:	48 89 c7             	mov    %rax,%rdi
    4afb:	e8 36 07 00 00       	callq  5236 <_ZNSt10_HashtableImSt4pairIKmSt10shared_ptrIN15coroutine_mimic9CoroutineEEESaIS6_ENSt8__detail10_Select1stESt8equal_toImESt4hashImENS8_18_Mod_range_hashingENS8_20_Default_ranged_hashENS8_20_Prime_rehash_policyENS8_17_Hashtable_traitsILb0ELb0ELb1EEEE8_M_eraseEmPNS8_15_Hash_node_baseEPNS8_10_Hash_nodeIS6_Lb0EEE>
    4b00:	c9                   	leaveq 
    4b01:	c3                   	retq   

0000000000004b02 <_ZNSt7__cxx1112basic_stringIcSt11char_traitsIcESaIcEE12_M_constructIPcEEvT_S7_>:
    4b02:	f3 0f 1e fa          	endbr64 
    4b06:	55                   	push   %rbp
    4b07:	48 89 e5             	mov    %rsp,%rbp
    4b0a:	48 83 ec 20          	sub    $0x20,%rsp
    4b0e:	48 89 7d f8          	mov    %rdi,-0x8(%rbp)
    4b12:	48 89 75 f0          	mov    %rsi,-0x10(%rbp)
    4b16:	48 89 55 e8          	mov    %rdx,-0x18(%rbp)
    4b1a:	48 8b 55 e8          	mov    -0x18(%rbp),%rdx
    4b1e:	48 8b 4d f0          	mov    -0x10(%rbp),%rcx
    4b22:	48 8b 45 f8          	mov    -0x8(%rbp),%rax
    4b26:	48 89 ce             	mov    %rcx,%rsi
    4b29:	48 89 c7             	mov    %rax,%rdi
    4b2c:	e8 67 08 00 00       	callq  5398 <_ZNSt7__cxx1112basic_stringIcSt11char_traitsIcESaIcEE16_M_construct_auxIPcEEvT_S7_St12__false_type>
    4b31:	90                   	nop
    4b32:	c9                   	leaveq 
    4b33:	c3                   	retq   

0000000000004b34 <_ZNSt11_Tuple_implILm1EJSt14default_deleteIhEEEC1Ev>:
    4b34:	f3 0f 1e fa          	endbr64 
    4b38:	55                   	push   %rbp
    4b39:	48 89 e5             	mov    %rsp,%rbp
    4b3c:	48 83 ec 10          	sub    $0x10,%rsp
    4b40:	48 89 7d f8          	mov    %rdi,-0x8(%rbp)
    4b44:	48 8b 45 f8          	mov    -0x8(%rbp),%rax
    4b48:	48 89 c7             	mov    %rax,%rdi
    4b4b:	e8 9e 08 00 00       	callq  53ee <_ZNSt10_Head_baseILm1ESt14default_deleteIhELb1EEC1Ev>
    4b50:	90                   	nop
    4b51:	c9                   	leaveq 
    4b52:	c3                   	retq   
    4b53:	90                   	nop

0000000000004b54 <_ZNSt10_Head_baseILm0EPhLb0EEC1Ev>:
    4b54:	f3 0f 1e fa          	endbr64 
    4b58:	55                   	push   %rbp
    4b59:	48 89 e5             	mov    %rsp,%rbp
    4b5c:	48 89 7d f8          	mov    %rdi,-0x8(%rbp)
    4b60:	48 8b 45 f8          	mov    -0x8(%rbp),%rax
    4b64:	48 c7 00 00 00 00 00 	movq   $0x0,(%rax)
    4b6b:	90                   	nop
    4b6c:	5d                   	pop    %rbp
    4b6d:	c3                   	retq   

0000000000004b6e <_ZSt3getILm0EJPhSt14default_deleteIhEEERNSt13tuple_elementIXT_ESt5tupleIJDpT0_EEE4typeERS7_>:
    4b6e:	f3 0f 1e fa          	endbr64 
    4b72:	55                   	push   %rbp
    4b73:	48 89 e5             	mov    %rsp,%rbp
    4b76:	48 83 ec 10          	sub    $0x10,%rsp
    4b7a:	48 89 7d f8          	mov    %rdi,-0x8(%rbp)
    4b7e:	48 8b 45 f8          	mov    -0x8(%rbp),%rax
    4b82:	48 89 c7             	mov    %rax,%rdi
    4b85:	e8 73 08 00 00       	callq  53fd <_ZSt12__get_helperILm0EPhJSt14default_deleteIhEEERT0_RSt11_Tuple_implIXT_EJS3_DpT1_EE>
    4b8a:	c9                   	leaveq 
    4b8b:	c3                   	retq   

0000000000004b8c <_ZNSt15__uniq_ptr_implIhSt14default_deleteIhEE10_M_deleterEv>:
    4b8c:	f3 0f 1e fa          	endbr64 
    4b90:	55                   	push   %rbp
    4b91:	48 89 e5             	mov    %rsp,%rbp
    4b94:	48 83 ec 10          	sub    $0x10,%rsp
    4b98:	48 89 7d f8          	mov    %rdi,-0x8(%rbp)
    4b9c:	48 8b 45 f8          	mov    -0x8(%rbp),%rax
    4ba0:	48 89 c7             	mov    %rax,%rdi
    4ba3:	e8 73 08 00 00       	callq  541b <_ZSt3getILm1EJPhSt14default_deleteIhEEERNSt13tuple_elementIXT_ESt5tupleIJDpT0_EEE4typeERS7_>
    4ba8:	c9                   	leaveq 
    4ba9:	c3                   	retq   

0000000000004baa <_ZNSt8__detail14_Node_iteratorISt4pairIKmSt10shared_ptrIN15coroutine_mimic9CoroutineEEELb0ELb0EEC1EPNS_10_Hash_nodeIS7_Lb0EEE>:
    4baa:	f3 0f 1e fa          	endbr64 
    4bae:	55                   	push   %rbp
    4baf:	48 89 e5             	mov    %rsp,%rbp
    4bb2:	48 83 ec 10          	sub    $0x10,%rsp
    4bb6:	48 89 7d f8          	mov    %rdi,-0x8(%rbp)
    4bba:	48 89 75 f0          	mov    %rsi,-0x10(%rbp)
    4bbe:	48 8b 45 f8          	mov    -0x8(%rbp),%rax
    4bc2:	48 8b 55 f0          	mov    -0x10(%rbp),%rdx
    4bc6:	48 89 d6             	mov    %rdx,%rsi
    4bc9:	48 89 c7             	mov    %rax,%rdi
    4bcc:	e8 8b fa ff ff       	callq  465c <_ZNSt8__detail19_Node_iterator_baseISt4pairIKmSt10shared_ptrIN15coroutine_mimic9CoroutineEEELb0EEC1EPNS_10_Hash_nodeIS7_Lb0EEE>
    4bd1:	90                   	nop
    4bd2:	c9                   	leaveq 
    4bd3:	c3                   	retq   

0000000000004bd4 <_ZSt3getILm0EJPhSt14default_deleteIhEEERKNSt13tuple_elementIXT_ESt5tupleIJDpT0_EEE4typeERKS7_>:
    4bd4:	f3 0f 1e fa          	endbr64 
    4bd8:	55                   	push   %rbp
    4bd9:	48 89 e5             	mov    %rsp,%rbp
    4bdc:	48 83 ec 10          	sub    $0x10,%rsp
    4be0:	48 89 7d f8          	mov    %rdi,-0x8(%rbp)
    4be4:	48 8b 45 f8          	mov    -0x8(%rbp),%rax
    4be8:	48 89 c7             	mov    %rax,%rdi
    4beb:	e8 49 08 00 00       	callq  5439 <_ZSt12__get_helperILm0EPhJSt14default_deleteIhEEERKT0_RKSt11_Tuple_implIXT_EJS3_DpT1_EE>
    4bf0:	c9                   	leaveq 
    4bf1:	c3                   	retq   

0000000000004bf2 <_ZNKSt10_HashtableImSt4pairIKmSt10shared_ptrIN15coroutine_mimic9CoroutineEEESaIS6_ENSt8__detail10_Select1stESt8equal_toImESt4hashImENS8_18_Mod_range_hashingENS8_20_Default_ranged_hashENS8_20_Prime_rehash_policyENS8_17_Hashtable_traitsILb0ELb0ELb1EEEE8_M_beginEv>:
    4bf2:	f3 0f 1e fa          	endbr64 
    4bf6:	55                   	push   %rbp
    4bf7:	48 89 e5             	mov    %rsp,%rbp
    4bfa:	48 89 7d f8          	mov    %rdi,-0x8(%rbp)
    4bfe:	48 8b 45 f8          	mov    -0x8(%rbp),%rax
    4c02:	48 8b 40 10          	mov    0x10(%rax),%rax
    4c06:	5d                   	pop    %rbp
    4c07:	c3                   	retq   

0000000000004c08 <_ZNSt8__detail16_Hashtable_allocISaINS_10_Hash_nodeISt4pairIKmSt10shared_ptrIN15coroutine_mimic9CoroutineEEELb0EEEEE19_M_deallocate_nodesEPS9_>:
    4c08:	f3 0f 1e fa          	endbr64 
    4c0c:	55                   	push   %rbp
    4c0d:	48 89 e5             	mov    %rsp,%rbp
    4c10:	48 83 ec 20          	sub    $0x20,%rsp
    4c14:	48 89 7d e8          	mov    %rdi,-0x18(%rbp)
    4c18:	48 89 75 e0          	mov    %rsi,-0x20(%rbp)
    4c1c:	48 83 7d e0 00       	cmpq   $0x0,-0x20(%rbp)
    4c21:	74 2d                	je     4c50 <_ZNSt8__detail16_Hashtable_allocISaINS_10_Hash_nodeISt4pairIKmSt10shared_ptrIN15coroutine_mimic9CoroutineEEELb0EEEEE19_M_deallocate_nodesEPS9_+0x48>
    4c23:	48 8b 45 e0          	mov    -0x20(%rbp),%rax
    4c27:	48 89 45 f8          	mov    %rax,-0x8(%rbp)
    4c2b:	48 8b 45 e0          	mov    -0x20(%rbp),%rax
    4c2f:	48 89 c7             	mov    %rax,%rdi
    4c32:	e8 21 08 00 00       	callq  5458 <_ZNKSt8__detail10_Hash_nodeISt4pairIKmSt10shared_ptrIN15coroutine_mimic9CoroutineEEELb0EE7_M_nextEv>
    4c37:	48 89 45 e0          	mov    %rax,-0x20(%rbp)
    4c3b:	48 8b 55 f8          	mov    -0x8(%rbp),%rdx
    4c3f:	48 8b 45 e8          	mov    -0x18(%rbp),%rax
    4c43:	48 89 d6             	mov    %rdx,%rsi
    4c46:	48 89 c7             	mov    %rax,%rdi
    4c49:	e8 20 08 00 00       	callq  546e <_ZNSt8__detail16_Hashtable_allocISaINS_10_Hash_nodeISt4pairIKmSt10shared_ptrIN15coroutine_mimic9CoroutineEEELb0EEEEE18_M_deallocate_nodeEPS9_>
    4c4e:	eb cc                	jmp    4c1c <_ZNSt8__detail16_Hashtable_allocISaINS_10_Hash_nodeISt4pairIKmSt10shared_ptrIN15coroutine_mimic9CoroutineEEELb0EEEEE19_M_deallocate_nodesEPS9_+0x14>
    4c50:	90                   	nop
    4c51:	c9                   	leaveq 
    4c52:	c3                   	retq   
    4c53:	90                   	nop

0000000000004c54 <_ZNSt10_HashtableImSt4pairIKmSt10shared_ptrIN15coroutine_mimic9CoroutineEEESaIS6_ENSt8__detail10_Select1stESt8equal_toImESt4hashImENS8_18_Mod_range_hashingENS8_20_Default_ranged_hashENS8_20_Prime_rehash_policyENS8_17_Hashtable_traitsILb0ELb0ELb1EEEE21_M_deallocate_bucketsEPPNS8_15_Hash_node_baseEm>:
    4c54:	f3 0f 1e fa          	endbr64 
    4c58:	55                   	push   %rbp
    4c59:	48 89 e5             	mov    %rsp,%rbp
    4c5c:	48 83 ec 20          	sub    $0x20,%rsp
    4c60:	48 89 7d f8          	mov    %rdi,-0x8(%rbp)
    4c64:	48 89 75 f0          	mov    %rsi,-0x10(%rbp)
    4c68:	48 89 55 e8          	mov    %rdx,-0x18(%rbp)
    4c6c:	48 8b 55 f0          	mov    -0x10(%rbp),%rdx
    4c70:	48 8b 45 f8          	mov    -0x8(%rbp),%rax
    4c74:	48 89 d6             	mov    %rdx,%rsi
    4c77:	48 89 c7             	mov    %rax,%rdi
    4c7a:	e8 45 08 00 00       	callq  54c4 <_ZNKSt10_HashtableImSt4pairIKmSt10shared_ptrIN15coroutine_mimic9CoroutineEEESaIS6_ENSt8__detail10_Select1stESt8equal_toImESt4hashImENS8_18_Mod_range_hashingENS8_20_Default_ranged_hashENS8_20_Prime_rehash_policyENS8_17_Hashtable_traitsILb0ELb0ELb1EEEE21_M_uses_single_bucketEPPNS8_15_Hash_node_baseE>
    4c7f:	84 c0                	test   %al,%al
    4c81:	75 19                	jne    4c9c <_ZNSt10_HashtableImSt4pairIKmSt10shared_ptrIN15coroutine_mimic9CoroutineEEESaIS6_ENSt8__detail10_Select1stESt8equal_toImESt4hashImENS8_18_Mod_range_hashingENS8_20_Default_ranged_hashENS8_20_Prime_rehash_policyENS8_17_Hashtable_traitsILb0ELb0ELb1EEEE21_M_deallocate_bucketsEPPNS8_15_Hash_node_baseEm+0x48>
    4c83:	48 8b 55 e8          	mov    -0x18(%rbp),%rdx
    4c87:	48 8b 4d f0          	mov    -0x10(%rbp),%rcx
    4c8b:	48 8b 45 f8          	mov    -0x8(%rbp),%rax
    4c8f:	48 89 ce             	mov    %rcx,%rsi
    4c92:	48 89 c7             	mov    %rax,%rdi
    4c95:	e8 54 08 00 00       	callq  54ee <_ZNSt8__detail16_Hashtable_allocISaINS_10_Hash_nodeISt4pairIKmSt10shared_ptrIN15coroutine_mimic9CoroutineEEELb0EEEEE21_M_deallocate_bucketsEPPNS_15_Hash_node_baseEm>
    4c9a:	eb 01                	jmp    4c9d <_ZNSt10_HashtableImSt4pairIKmSt10shared_ptrIN15coroutine_mimic9CoroutineEEESaIS6_ENSt8__detail10_Select1stESt8equal_toImESt4hashImENS8_18_Mod_range_hashingENS8_20_Default_ranged_hashENS8_20_Prime_rehash_policyENS8_17_Hashtable_traitsILb0ELb0ELb1EEEE21_M_deallocate_bucketsEPPNS8_15_Hash_node_baseEm+0x49>
    4c9c:	90                   	nop
    4c9d:	c9                   	leaveq 
    4c9e:	c3                   	retq   
    4c9f:	90                   	nop

0000000000004ca0 <_ZN9__gnu_cxx13new_allocatorIN15coroutine_mimic9CoroutineEEC1Ev>:
    4ca0:	f3 0f 1e fa          	endbr64 
    4ca4:	55                   	push   %rbp
    4ca5:	48 89 e5             	mov    %rsp,%rbp
    4ca8:	48 89 7d f8          	mov    %rdi,-0x8(%rbp)
    4cac:	90                   	nop
    4cad:	5d                   	pop    %rbp
    4cae:	c3                   	retq   
    4caf:	90                   	nop

0000000000004cb0 <_ZN9__gnu_cxx13new_allocatorIN15coroutine_mimic9CoroutineEED1Ev>:
    4cb0:	f3 0f 1e fa          	endbr64 
    4cb4:	55                   	push   %rbp
    4cb5:	48 89 e5             	mov    %rsp,%rbp
    4cb8:	48 89 7d f8          	mov    %rdi,-0x8(%rbp)
    4cbc:	90                   	nop
    4cbd:	5d                   	pop    %rbp
    4cbe:	c3                   	retq   
    4cbf:	90                   	nop

0000000000004cc0 <_ZNSt10shared_ptrIN15coroutine_mimic9CoroutineEEC1ISaIS1_EJPNS0_9SchedulerERSt8functionIFvS6_St3anyEERS8_EEESt20_Sp_alloc_shared_tagIT_EDpOT0_>:
    4cc0:	f3 0f 1e fa          	endbr64 
    4cc4:	55                   	push   %rbp
    4cc5:	48 89 e5             	mov    %rsp,%rbp
    4cc8:	41 55                	push   %r13
    4cca:	41 54                	push   %r12
    4ccc:	53                   	push   %rbx
    4ccd:	48 83 ec 38          	sub    $0x38,%rsp
    4cd1:	48 89 7d d8          	mov    %rdi,-0x28(%rbp)
    4cd5:	48 89 75 d0          	mov    %rsi,-0x30(%rbp)
    4cd9:	48 89 55 c8          	mov    %rdx,-0x38(%rbp)
    4cdd:	48 89 4d c0          	mov    %rcx,-0x40(%rbp)
    4ce1:	4c 89 45 b8          	mov    %r8,-0x48(%rbp)
    4ce5:	48 8b 5d d8          	mov    -0x28(%rbp),%rbx
    4ce9:	48 8b 45 b8          	mov    -0x48(%rbp),%rax
    4ced:	48 89 c7             	mov    %rax,%rdi
    4cf0:	e8 e8 f9 ff ff       	callq  46dd <_ZSt7forwardIRSt3anyEOT_RNSt16remove_referenceIS2_E4typeE>
    4cf5:	49 89 c5             	mov    %rax,%r13
    4cf8:	48 8b 45 c0          	mov    -0x40(%rbp),%rax
    4cfc:	48 89 c7             	mov    %rax,%rdi
    4cff:	e8 c7 f9 ff ff       	callq  46cb <_ZSt7forwardIRSt8functionIFvPN15coroutine_mimic9SchedulerESt3anyEEEOT_RNSt16remove_referenceIS8_E4typeE>
    4d04:	49 89 c4             	mov    %rax,%r12
    4d07:	48 8b 45 c8          	mov    -0x38(%rbp),%rax
    4d0b:	48 89 c7             	mov    %rax,%rdi
    4d0e:	e8 a6 f9 ff ff       	callq  46b9 <_ZSt7forwardIPN15coroutine_mimic9SchedulerEEOT_RNSt16remove_referenceIS3_E4typeE>
    4d13:	48 89 c2             	mov    %rax,%rdx
    4d16:	48 8b 45 d0          	mov    -0x30(%rbp),%rax
    4d1a:	4d 89 e8             	mov    %r13,%r8
    4d1d:	4c 89 e1             	mov    %r12,%rcx
    4d20:	48 89 c6             	mov    %rax,%rsi
    4d23:	48 89 df             	mov    %rbx,%rdi
    4d26:	e8 79 08 00 00       	callq  55a4 <_ZNSt12__shared_ptrIN15coroutine_mimic9CoroutineELN9__gnu_cxx12_Lock_policyE2EEC1ISaIS1_EJPNS0_9SchedulerERSt8functionIFvS8_St3anyEERSA_EEESt20_Sp_alloc_shared_tagIT_EDpOT0_>
    4d2b:	90                   	nop
    4d2c:	48 83 c4 38          	add    $0x38,%rsp
    4d30:	5b                   	pop    %rbx
    4d31:	41 5c                	pop    %r12
    4d33:	41 5d                	pop    %r13
    4d35:	5d                   	pop    %rbp
    4d36:	c3                   	retq   
    4d37:	90                   	nop

0000000000004d38 <_ZNSt16_Sp_counted_baseILN9__gnu_cxx12_Lock_policyE2EE10_M_destroyEv>:
    4d38:	f3 0f 1e fa          	endbr64 
    4d3c:	55                   	push   %rbp
    4d3d:	48 89 e5             	mov    %rsp,%rbp
    4d40:	48 83 ec 10          	sub    $0x10,%rsp
    4d44:	48 89 7d f8          	mov    %rdi,-0x8(%rbp)
    4d48:	48 83 7d f8 00       	cmpq   $0x0,-0x8(%rbp)
    4d4d:	74 17                	je     4d66 <_ZNSt16_Sp_counted_baseILN9__gnu_cxx12_Lock_policyE2EE10_M_destroyEv+0x2e>
    4d4f:	48 8b 45 f8          	mov    -0x8(%rbp),%rax
    4d53:	48 8b 00             	mov    (%rax),%rax
    4d56:	48 83 c0 08          	add    $0x8,%rax
    4d5a:	48 8b 10             	mov    (%rax),%rdx
    4d5d:	48 8b 45 f8          	mov    -0x8(%rbp),%rax
    4d61:	48 89 c7             	mov    %rax,%rdi
    4d64:	ff d2                	callq  *%rdx
    4d66:	90                   	nop
    4d67:	c9                   	leaveq 
    4d68:	c3                   	retq   
    4d69:	90                   	nop

0000000000004d6a <_ZNKSt8__detail15_Hash_code_baseImSt4pairIKmSt10shared_ptrIN15coroutine_mimic9CoroutineEEENS_10_Select1stESt4hashImENS_18_Mod_range_hashingENS_20_Default_ranged_hashELb0EE12_M_hash_codeERS2_>:
    4d6a:	f3 0f 1e fa          	endbr64 
    4d6e:	55                   	push   %rbp
    4d6f:	48 89 e5             	mov    %rsp,%rbp
    4d72:	48 83 ec 10          	sub    $0x10,%rsp
    4d76:	48 89 7d f8          	mov    %rdi,-0x8(%rbp)
    4d7a:	48 89 75 f0          	mov    %rsi,-0x10(%rbp)
    4d7e:	48 8b 45 f8          	mov    -0x8(%rbp),%rax
    4d82:	48 89 c7             	mov    %rax,%rdi
    4d85:	e8 08 09 00 00       	callq  5692 <_ZNKSt8__detail15_Hash_code_baseImSt4pairIKmSt10shared_ptrIN15coroutine_mimic9CoroutineEEENS_10_Select1stESt4hashImENS_18_Mod_range_hashingENS_20_Default_ranged_hashELb0EE5_M_h1Ev>
    4d8a:	48 89 c2             	mov    %rax,%rdx
    4d8d:	48 8b 45 f0          	mov    -0x10(%rbp),%rax
    4d91:	48 8b 00             	mov    (%rax),%rax
    4d94:	48 89 c6             	mov    %rax,%rsi
    4d97:	48 89 d7             	mov    %rdx,%rdi
    4d9a:	e8 5b e8 ff ff       	callq  35fa <_ZNKSt4hashImEclEm>
    4d9f:	c9                   	leaveq 
    4da0:	c3                   	retq   
    4da1:	90                   	nop

0000000000004da2 <_ZNKSt10_HashtableImSt4pairIKmSt10shared_ptrIN15coroutine_mimic9CoroutineEEESaIS6_ENSt8__detail10_Select1stESt8equal_toImESt4hashImENS8_18_Mod_range_hashingENS8_20_Default_ranged_hashENS8_20_Prime_rehash_policyENS8_17_Hashtable_traitsILb0ELb0ELb1EEEE15_M_bucket_indexERS1_m>:
    4da2:	f3 0f 1e fa          	endbr64 
    4da6:	55                   	push   %rbp
    4da7:	48 89 e5             	mov    %rsp,%rbp
    4daa:	48 83 ec 20          	sub    $0x20,%rsp
    4dae:	48 89 7d f8          	mov    %rdi,-0x8(%rbp)
    4db2:	48 89 75 f0          	mov    %rsi,-0x10(%rbp)
    4db6:	48 89 55 e8          	mov    %rdx,-0x18(%rbp)
    4dba:	48 8b 45 f8          	mov    -0x8(%rbp),%rax
    4dbe:	48 8b 48 08          	mov    0x8(%rax),%rcx
    4dc2:	48 8b 55 e8          	mov    -0x18(%rbp),%rdx
    4dc6:	48 8b 75 f0          	mov    -0x10(%rbp),%rsi
    4dca:	48 8b 45 f8          	mov    -0x8(%rbp),%rax
    4dce:	48 89 c7             	mov    %rax,%rdi
    4dd1:	e8 da 08 00 00       	callq  56b0 <_ZNKSt8__detail15_Hash_code_baseImSt4pairIKmSt10shared_ptrIN15coroutine_mimic9CoroutineEEENS_10_Select1stESt4hashImENS_18_Mod_range_hashingENS_20_Default_ranged_hashELb0EE15_M_bucket_indexERS2_mm>
    4dd6:	c9                   	leaveq 
    4dd7:	c3                   	retq   

0000000000004dd8 <_ZNKSt10_HashtableImSt4pairIKmSt10shared_ptrIN15coroutine_mimic9CoroutineEEESaIS6_ENSt8__detail10_Select1stESt8equal_toImESt4hashImENS8_18_Mod_range_hashingENS8_20_Default_ranged_hashENS8_20_Prime_rehash_policyENS8_17_Hashtable_traitsILb0ELb0ELb1EEEE12_M_find_nodeEmRS1_m>:
    4dd8:	f3 0f 1e fa          	endbr64 
    4ddc:	55                   	push   %rbp
    4ddd:	48 89 e5             	mov    %rsp,%rbp
    4de0:	48 83 ec 30          	sub    $0x30,%rsp
    4de4:	48 89 7d e8          	mov    %rdi,-0x18(%rbp)
    4de8:	48 89 75 e0          	mov    %rsi,-0x20(%rbp)
    4dec:	48 89 55 d8          	mov    %rdx,-0x28(%rbp)
    4df0:	48 89 4d d0          	mov    %rcx,-0x30(%rbp)
    4df4:	48 8b 4d d0          	mov    -0x30(%rbp),%rcx
    4df8:	48 8b 55 d8          	mov    -0x28(%rbp),%rdx
    4dfc:	48 8b 75 e0          	mov    -0x20(%rbp),%rsi
    4e00:	48 8b 45 e8          	mov    -0x18(%rbp),%rax
    4e04:	48 89 c7             	mov    %rax,%rdi
    4e07:	e8 e4 08 00 00       	callq  56f0 <_ZNKSt10_HashtableImSt4pairIKmSt10shared_ptrIN15coroutine_mimic9CoroutineEEESaIS6_ENSt8__detail10_Select1stESt8equal_toImESt4hashImENS8_18_Mod_range_hashingENS8_20_Default_ranged_hashENS8_20_Prime_rehash_policyENS8_17_Hashtable_traitsILb0ELb0ELb1EEEE19_M_find_before_nodeEmRS1_m>
    4e0c:	48 89 45 f8          	mov    %rax,-0x8(%rbp)
    4e10:	48 83 7d f8 00       	cmpq   $0x0,-0x8(%rbp)
    4e15:	74 09                	je     4e20 <_ZNKSt10_HashtableImSt4pairIKmSt10shared_ptrIN15coroutine_mimic9CoroutineEEESaIS6_ENSt8__detail10_Select1stESt8equal_toImESt4hashImENS8_18_Mod_range_hashingENS8_20_Default_ranged_hashENS8_20_Prime_rehash_policyENS8_17_Hashtable_traitsILb0ELb0ELb1EEEE12_M_find_nodeEmRS1_m+0x48>
    4e17:	48 8b 45 f8          	mov    -0x8(%rbp),%rax
    4e1b:	48 8b 00             	mov    (%rax),%rax
    4e1e:	eb 05                	jmp    4e25 <_ZNKSt10_HashtableImSt4pairIKmSt10shared_ptrIN15coroutine_mimic9CoroutineEEESaIS6_ENSt8__detail10_Select1stESt8equal_toImESt4hashImENS8_18_Mod_range_hashingENS8_20_Default_ranged_hashENS8_20_Prime_rehash_policyENS8_17_Hashtable_traitsILb0ELb0ELb1EEEE12_M_find_nodeEmRS1_m+0x4d>
    4e20:	b8 00 00 00 00       	mov    $0x0,%eax
    4e25:	c9                   	leaveq 
    4e26:	c3                   	retq   
    4e27:	90                   	nop

0000000000004e28 <_ZNSt5tupleIJRKmEEC1IvLb1EEES1_>:
    4e28:	f3 0f 1e fa          	endbr64 
    4e2c:	55                   	push   %rbp
    4e2d:	48 89 e5             	mov    %rsp,%rbp
    4e30:	48 83 ec 10          	sub    $0x10,%rsp
    4e34:	48 89 7d f8          	mov    %rdi,-0x8(%rbp)
    4e38:	48 89 75 f0          	mov    %rsi,-0x10(%rbp)
    4e3c:	48 8b 45 f8          	mov    -0x8(%rbp),%rax
    4e40:	48 8b 55 f0          	mov    -0x10(%rbp),%rdx
    4e44:	48 89 d6             	mov    %rdx,%rsi
    4e47:	48 89 c7             	mov    %rax,%rdi
    4e4a:	e8 77 09 00 00       	callq  57c6 <_ZNSt11_Tuple_implILm0EJRKmEEC1ES1_>
    4e4f:	90                   	nop
    4e50:	c9                   	leaveq 
    4e51:	c3                   	retq   

0000000000004e52 <_ZNSt8__detail21_Hash_node_value_baseISt4pairIKmSt10shared_ptrIN15coroutine_mimic9CoroutineEEEEC1Ev>:
    4e52:	f3 0f 1e fa          	endbr64 
    4e56:	55                   	push   %rbp
    4e57:	48 89 e5             	mov    %rsp,%rbp
    4e5a:	48 83 ec 10          	sub    $0x10,%rsp
    4e5e:	48 89 7d f8          	mov    %rdi,-0x8(%rbp)
    4e62:	48 8b 45 f8          	mov    -0x8(%rbp),%rax
    4e66:	48 89 c7             	mov    %rax,%rdi
    4e69:	e8 1a e8 ff ff       	callq  3688 <_ZNSt8__detail15_Hash_node_baseC1Ev>
    4e6e:	90                   	nop
    4e6f:	c9                   	leaveq 
    4e70:	c3                   	retq   
    4e71:	90                   	nop

0000000000004e72 <_ZNSt8__detail10_Hash_nodeISt4pairIKmSt10shared_ptrIN15coroutine_mimic9CoroutineEEELb0EEC1Ev>:
    4e72:	f3 0f 1e fa          	endbr64 
    4e76:	55                   	push   %rbp
    4e77:	48 89 e5             	mov    %rsp,%rbp
    4e7a:	48 83 ec 10          	sub    $0x10,%rsp
    4e7e:	48 89 7d f8          	mov    %rdi,-0x8(%rbp)
    4e82:	48 8b 45 f8          	mov    -0x8(%rbp),%rax
    4e86:	48 89 c7             	mov    %rax,%rdi
    4e89:	e8 c4 ff ff ff       	callq  4e52 <_ZNSt8__detail21_Hash_node_value_baseISt4pairIKmSt10shared_ptrIN15coroutine_mimic9CoroutineEEEEC1Ev>
    4e8e:	90                   	nop
    4e8f:	c9                   	leaveq 
    4e90:	c3                   	retq   
    4e91:	90                   	nop

0000000000004e92 <_ZNSt8__detail16_Hashtable_allocISaINS_10_Hash_nodeISt4pairIKmSt10shared_ptrIN15coroutine_mimic9CoroutineEEELb0EEEEE16_M_allocate_nodeIJRKSt21piecewise_construct_tSt5tupleIJRS3_EESG_IJEEEEEPS9_DpOT_>:
    4e92:	f3 0f 1e fa          	endbr64 
    4e96:	55                   	push   %rbp
    4e97:	48 89 e5             	mov    %rsp,%rbp
    4e9a:	41 56                	push   %r14
    4e9c:	41 55                	push   %r13
    4e9e:	41 54                	push   %r12
    4ea0:	53                   	push   %rbx
    4ea1:	48 83 ec 30          	sub    $0x30,%rsp
    4ea5:	48 89 7d c8          	mov    %rdi,-0x38(%rbp)
    4ea9:	48 89 75 c0          	mov    %rsi,-0x40(%rbp)
    4ead:	48 89 55 b8          	mov    %rdx,-0x48(%rbp)
    4eb1:	48 89 4d b0          	mov    %rcx,-0x50(%rbp)
    4eb5:	48 8b 45 c8          	mov    -0x38(%rbp),%rax
    4eb9:	48 89 c7             	mov    %rax,%rdi
    4ebc:	e8 2f 09 00 00       	callq  57f0 <_ZNSt8__detail16_Hashtable_allocISaINS_10_Hash_nodeISt4pairIKmSt10shared_ptrIN15coroutine_mimic9CoroutineEEELb0EEEEE17_M_node_allocatorEv>
    4ec1:	be 01 00 00 00       	mov    $0x1,%esi
    4ec6:	48 89 c7             	mov    %rax,%rdi
    4ec9:	e8 40 09 00 00       	callq  580e <_ZNSt16allocator_traitsISaINSt8__detail10_Hash_nodeISt4pairIKmSt10shared_ptrIN15coroutine_mimic9CoroutineEEELb0EEEEE8allocateERSA_m>
    4ece:	48 89 45 d0          	mov    %rax,-0x30(%rbp)
    4ed2:	48 8b 45 d0          	mov    -0x30(%rbp),%rax
    4ed6:	48 89 c7             	mov    %rax,%rdi
    4ed9:	e8 5e 09 00 00       	callq  583c <_ZSt12__to_addressINSt8__detail10_Hash_nodeISt4pairIKmSt10shared_ptrIN15coroutine_mimic9CoroutineEEELb0EEEEPT_SB_>
    4ede:	48 89 45 d8          	mov    %rax,-0x28(%rbp)
    4ee2:	48 8b 45 d8          	mov    -0x28(%rbp),%rax
    4ee6:	48 89 c6             	mov    %rax,%rsi
    4ee9:	bf 20 00 00 00       	mov    $0x20,%edi
    4eee:	e8 da e5 ff ff       	callq  34cd <_ZnwmPv>
    4ef3:	48 89 c7             	mov    %rax,%rdi
    4ef6:	e8 77 ff ff ff       	callq  4e72 <_ZNSt8__detail10_Hash_nodeISt4pairIKmSt10shared_ptrIN15coroutine_mimic9CoroutineEEELb0EEC1Ev>
    4efb:	48 8b 45 b0          	mov    -0x50(%rbp),%rax
    4eff:	48 89 c7             	mov    %rax,%rdi
    4f02:	e8 6b 09 00 00       	callq  5872 <_ZSt7forwardISt5tupleIJEEEOT_RNSt16remove_referenceIS2_E4typeE>
    4f07:	49 89 c6             	mov    %rax,%r14
    4f0a:	48 8b 45 b8          	mov    -0x48(%rbp),%rax
    4f0e:	48 89 c7             	mov    %rax,%rdi
    4f11:	e8 4a 09 00 00       	callq  5860 <_ZSt7forwardISt5tupleIJRKmEEEOT_RNSt16remove_referenceIS4_E4typeE>
    4f16:	49 89 c5             	mov    %rax,%r13
    4f19:	48 8b 45 c0          	mov    -0x40(%rbp),%rax
    4f1d:	48 89 c7             	mov    %rax,%rdi
    4f20:	e8 29 09 00 00       	callq  584e <_ZSt7forwardIRKSt21piecewise_construct_tEOT_RNSt16remove_referenceIS3_E4typeE>
    4f25:	49 89 c4             	mov    %rax,%r12
    4f28:	48 8b 45 d8          	mov    -0x28(%rbp),%rax
    4f2c:	48 89 c7             	mov    %rax,%rdi
    4f2f:	e8 b8 fa ff ff       	callq  49ec <_ZNSt8__detail21_Hash_node_value_baseISt4pairIKmSt10shared_ptrIN15coroutine_mimic9CoroutineEEEE9_M_valptrEv>
    4f34:	48 89 c3             	mov    %rax,%rbx
    4f37:	48 8b 45 c8          	mov    -0x38(%rbp),%rax
    4f3b:	48 89 c7             	mov    %rax,%rdi
    4f3e:	e8 ad 08 00 00       	callq  57f0 <_ZNSt8__detail16_Hashtable_allocISaINS_10_Hash_nodeISt4pairIKmSt10shared_ptrIN15coroutine_mimic9CoroutineEEELb0EEEEE17_M_node_allocatorEv>
    4f43:	4d 89 f0             	mov    %r14,%r8
    4f46:	4c 89 e9             	mov    %r13,%rcx
    4f49:	4c 89 e2             	mov    %r12,%rdx
    4f4c:	48 89 de             	mov    %rbx,%rsi
    4f4f:	48 89 c7             	mov    %rax,%rdi
    4f52:	e8 2d 09 00 00       	callq  5884 <_ZNSt16allocator_traitsISaINSt8__detail10_Hash_nodeISt4pairIKmSt10shared_ptrIN15coroutine_mimic9CoroutineEEELb0EEEEE9constructIS8_JRKSt21piecewise_construct_tSt5tupleIJRS3_EESG_IJEEEEEvRSA_PT_DpOT0_>
    4f57:	48 8b 45 d8          	mov    -0x28(%rbp),%rax
    4f5b:	eb 4b                	jmp    4fa8 <_ZNSt8__detail16_Hashtable_allocISaINS_10_Hash_nodeISt4pairIKmSt10shared_ptrIN15coroutine_mimic9CoroutineEEELb0EEEEE16_M_allocate_nodeIJRKSt21piecewise_construct_tSt5tupleIJRS3_EESG_IJEEEEEPS9_DpOT_+0x116>
    4f5d:	f3 0f 1e fa          	endbr64 
    4f61:	48 89 c7             	mov    %rax,%rdi
    4f64:	e8 27 d4 ff ff       	callq  2390 <__cxa_begin_catch@plt>
    4f69:	48 8b 45 c8          	mov    -0x38(%rbp),%rax
    4f6d:	48 89 c7             	mov    %rax,%rdi
    4f70:	e8 7b 08 00 00       	callq  57f0 <_ZNSt8__detail16_Hashtable_allocISaINS_10_Hash_nodeISt4pairIKmSt10shared_ptrIN15coroutine_mimic9CoroutineEEELb0EEEEE17_M_node_allocatorEv>
    4f75:	48 89 c1             	mov    %rax,%rcx
    4f78:	48 8b 45 d0          	mov    -0x30(%rbp),%rax
    4f7c:	ba 01 00 00 00       	mov    $0x1,%edx
    4f81:	48 89 c6             	mov    %rax,%rsi
    4f84:	48 89 cf             	mov    %rcx,%rdi
    4f87:	e8 68 09 00 00       	callq  58f4 <_ZNSt16allocator_traitsISaINSt8__detail10_Hash_nodeISt4pairIKmSt10shared_ptrIN15coroutine_mimic9CoroutineEEELb0EEEEE10deallocateERSA_PS9_m>
    4f8c:	e8 9f d5 ff ff       	callq  2530 <__cxa_rethrow@plt>
    4f91:	f3 0f 1e fa          	endbr64 
    4f95:	48 89 c3             	mov    %rax,%rbx
    4f98:	e8 e3 d5 ff ff       	callq  2580 <__cxa_end_catch@plt>
    4f9d:	48 89 d8             	mov    %rbx,%rax
    4fa0:	48 89 c7             	mov    %rax,%rdi
    4fa3:	e8 f8 d5 ff ff       	callq  25a0 <_Unwind_Resume@plt>
    4fa8:	48 83 c4 30          	add    $0x30,%rsp
    4fac:	5b                   	pop    %rbx
    4fad:	41 5c                	pop    %r12
    4faf:	41 5d                	pop    %r13
    4fb1:	41 5e                	pop    %r14
    4fb3:	5d                   	pop    %rbp
    4fb4:	c3                   	retq   
    4fb5:	90                   	nop

0000000000004fb6 <_ZNSt10_HashtableImSt4pairIKmSt10shared_ptrIN15coroutine_mimic9CoroutineEEESaIS6_ENSt8__detail10_Select1stESt8equal_toImESt4hashImENS8_18_Mod_range_hashingENS8_20_Default_ranged_hashENS8_20_Prime_rehash_policyENS8_17_Hashtable_traitsILb0ELb0ELb1EEEE21_M_insert_unique_nodeEmmPNS8_10_Hash_nodeIS6_Lb0EEEm>:
    4fb6:	f3 0f 1e fa          	endbr64 
    4fba:	55                   	push   %rbp
    4fbb:	48 89 e5             	mov    %rsp,%rbp
    4fbe:	53                   	push   %rbx
    4fbf:	48 83 ec 78          	sub    $0x78,%rsp
    4fc3:	48 89 7d a8          	mov    %rdi,-0x58(%rbp)
    4fc7:	48 89 75 a0          	mov    %rsi,-0x60(%rbp)
    4fcb:	48 89 55 98          	mov    %rdx,-0x68(%rbp)
    4fcf:	48 89 4d 90          	mov    %rcx,-0x70(%rbp)
    4fd3:	4c 89 45 88          	mov    %r8,-0x78(%rbp)
    4fd7:	64 48 8b 04 25 28 00 	mov    %fs:0x28,%rax
    4fde:	00 00 
    4fe0:	48 89 45 e8          	mov    %rax,-0x18(%rbp)
    4fe4:	31 c0                	xor    %eax,%eax
    4fe6:	48 8b 45 a8          	mov    -0x58(%rbp),%rax
    4fea:	48 83 c0 20          	add    $0x20,%rax
    4fee:	48 89 c7             	mov    %rax,%rdi
    4ff1:	e8 00 e7 ff ff       	callq  36f6 <_ZNKSt8__detail20_Prime_rehash_policy8_M_stateEv>
    4ff6:	48 89 45 c0          	mov    %rax,-0x40(%rbp)
    4ffa:	48 8d 45 c0          	lea    -0x40(%rbp),%rax
    4ffe:	48 89 45 c8          	mov    %rax,-0x38(%rbp)
    5002:	48 8b 45 a8          	mov    -0x58(%rbp),%rax
    5006:	48 8d 78 20          	lea    0x20(%rax),%rdi
    500a:	48 8b 45 a8          	mov    -0x58(%rbp),%rax
    500e:	48 8b 50 18          	mov    0x18(%rax),%rdx
    5012:	48 8b 45 a8          	mov    -0x58(%rbp),%rax
    5016:	48 8b 40 08          	mov    0x8(%rax),%rax
    501a:	48 8b 4d 88          	mov    -0x78(%rbp),%rcx
    501e:	48 89 c6             	mov    %rax,%rsi
    5021:	e8 ea d4 ff ff       	callq  2510 <_ZNKSt8__detail20_Prime_rehash_policy14_M_need_rehashEmmm@plt>
    5026:	89 c1                	mov    %eax,%ecx
    5028:	48 89 d0             	mov    %rdx,%rax
    502b:	89 4d d0             	mov    %ecx,-0x30(%rbp)
    502e:	48 89 45 d8          	mov    %rax,-0x28(%rbp)
    5032:	0f b6 45 d0          	movzbl -0x30(%rbp),%eax
    5036:	84 c0                	test   %al,%al
    5038:	74 57                	je     5091 <_ZNSt10_HashtableImSt4pairIKmSt10shared_ptrIN15coroutine_mimic9CoroutineEEESaIS6_ENSt8__detail10_Select1stESt8equal_toImESt4hashImENS8_18_Mod_range_hashingENS8_20_Default_ranged_hashENS8_20_Prime_rehash_policyENS8_17_Hashtable_traitsILb0ELb0ELb1EEEE21_M_insert_unique_nodeEmmPNS8_10_Hash_nodeIS6_Lb0EEEm+0xdb>
    503a:	48 8b 4d d8          	mov    -0x28(%rbp),%rcx
    503e:	48 8b 55 c8          	mov    -0x38(%rbp),%rdx
    5042:	48 8b 45 a8          	mov    -0x58(%rbp),%rax
    5046:	48 89 ce             	mov    %rcx,%rsi
    5049:	48 89 c7             	mov    %rax,%rdi
    504c:	e8 d5 08 00 00       	callq  5926 <_ZNSt10_HashtableImSt4pairIKmSt10shared_ptrIN15coroutine_mimic9CoroutineEEESaIS6_ENSt8__detail10_Select1stESt8equal_toImESt4hashImENS8_18_Mod_range_hashingENS8_20_Default_ranged_hashENS8_20_Prime_rehash_policyENS8_17_Hashtable_traitsILb0ELb0ELb1EEEE9_M_rehashEmRS1_>
    5051:	48 8b 45 a8          	mov    -0x58(%rbp),%rax
    5055:	48 89 c7             	mov    %rax,%rdi
    5058:	e8 63 09 00 00       	callq  59c0 <_ZNSt8__detail15_Hash_code_baseImSt4pairIKmSt10shared_ptrIN15coroutine_mimic9CoroutineEEENS_10_Select1stESt4hashImENS_18_Mod_range_hashingENS_20_Default_ranged_hashELb0EE10_M_extractEv>
    505d:	48 89 c3             	mov    %rax,%rbx
    5060:	48 8b 45 90          	mov    -0x70(%rbp),%rax
    5064:	48 89 c7             	mov    %rax,%rdi
    5067:	e8 f8 00 00 00       	callq  5164 <_ZNSt8__detail21_Hash_node_value_baseISt4pairIKmSt10shared_ptrIN15coroutine_mimic9CoroutineEEEE4_M_vEv>
    506c:	48 89 c6             	mov    %rax,%rsi
    506f:	48 89 df             	mov    %rbx,%rdi
    5072:	e8 67 09 00 00       	callq  59de <_ZNKSt8__detail10_Select1stclIRSt4pairIKmSt10shared_ptrIN15coroutine_mimic9CoroutineEEEEEDTcl3getILi0EEcl7forwardIT_Efp_EEEOSA_>
    5077:	48 89 c1             	mov    %rax,%rcx
    507a:	48 8b 55 98          	mov    -0x68(%rbp),%rdx
    507e:	48 8b 45 a8          	mov    -0x58(%rbp),%rax
    5082:	48 89 ce             	mov    %rcx,%rsi
    5085:	48 89 c7             	mov    %rax,%rdi
    5088:	e8 15 fd ff ff       	callq  4da2 <_ZNKSt10_HashtableImSt4pairIKmSt10shared_ptrIN15coroutine_mimic9CoroutineEEESaIS6_ENSt8__detail10_Select1stESt8equal_toImESt4hashImENS8_18_Mod_range_hashingENS8_20_Default_ranged_hashENS8_20_Prime_rehash_policyENS8_17_Hashtable_traitsILb0ELb0ELb1EEEE15_M_bucket_indexERS1_m>
    508d:	48 89 45 a0          	mov    %rax,-0x60(%rbp)
    5091:	48 8b 55 98          	mov    -0x68(%rbp),%rdx
    5095:	48 8b 4d 90          	mov    -0x70(%rbp),%rcx
    5099:	48 8b 45 a8          	mov    -0x58(%rbp),%rax
    509d:	48 89 ce             	mov    %rcx,%rsi
    50a0:	48 89 c7             	mov    %rax,%rdi
    50a3:	e8 60 09 00 00       	callq  5a08 <_ZNKSt8__detail15_Hash_code_baseImSt4pairIKmSt10shared_ptrIN15coroutine_mimic9CoroutineEEENS_10_Select1stESt4hashImENS_18_Mod_range_hashingENS_20_Default_ranged_hashELb0EE13_M_store_codeEPNS_10_Hash_nodeIS7_Lb0EEEm>
    50a8:	48 8b 55 90          	mov    -0x70(%rbp),%rdx
    50ac:	48 8b 4d a0          	mov    -0x60(%rbp),%rcx
    50b0:	48 8b 45 a8          	mov    -0x58(%rbp),%rax
    50b4:	48 89 ce             	mov    %rcx,%rsi
    50b7:	48 89 c7             	mov    %rax,%rdi
    50ba:	e8 61 09 00 00       	callq  5a20 <_ZNSt10_HashtableImSt4pairIKmSt10shared_ptrIN15coroutine_mimic9CoroutineEEESaIS6_ENSt8__detail10_Select1stESt8equal_toImESt4hashImENS8_18_Mod_range_hashingENS8_20_Default_ranged_hashENS8_20_Prime_rehash_policyENS8_17_Hashtable_traitsILb0ELb0ELb1EEEE22_M_insert_bucket_beginEmPNS8_10_Hash_nodeIS6_Lb0EEE>
    50bf:	48 8b 45 a8          	mov    -0x58(%rbp),%rax
    50c3:	48 8b 40 18          	mov    0x18(%rax),%rax
    50c7:	48 8d 50 01          	lea    0x1(%rax),%rdx
    50cb:	48 8b 45 a8          	mov    -0x58(%rbp),%rax
    50cf:	48 89 50 18          	mov    %rdx,0x18(%rax)
    50d3:	48 8b 55 90          	mov    -0x70(%rbp),%rdx
    50d7:	48 8d 45 b8          	lea    -0x48(%rbp),%rax
    50db:	48 89 d6             	mov    %rdx,%rsi
    50de:	48 89 c7             	mov    %rax,%rdi
    50e1:	e8 c4 fa ff ff       	callq  4baa <_ZNSt8__detail14_Node_iteratorISt4pairIKmSt10shared_ptrIN15coroutine_mimic9CoroutineEEELb0ELb0EEC1EPNS_10_Hash_nodeIS7_Lb0EEE>
    50e6:	48 8b 45 b8          	mov    -0x48(%rbp),%rax
    50ea:	48 8b 5d e8          	mov    -0x18(%rbp),%rbx
    50ee:	64 48 33 1c 25 28 00 	xor    %fs:0x28,%rbx
    50f5:	00 00 
    50f7:	74 42                	je     513b <_ZNSt10_HashtableImSt4pairIKmSt10shared_ptrIN15coroutine_mimic9CoroutineEEESaIS6_ENSt8__detail10_Select1stESt8equal_toImESt4hashImENS8_18_Mod_range_hashingENS8_20_Default_ranged_hashENS8_20_Prime_rehash_policyENS8_17_Hashtable_traitsILb0ELb0ELb1EEEE21_M_insert_unique_nodeEmmPNS8_10_Hash_nodeIS6_Lb0EEEm+0x185>
    50f9:	eb 3b                	jmp    5136 <_ZNSt10_HashtableImSt4pairIKmSt10shared_ptrIN15coroutine_mimic9CoroutineEEESaIS6_ENSt8__detail10_Select1stESt8equal_toImESt4hashImENS8_18_Mod_range_hashingENS8_20_Default_ranged_hashENS8_20_Prime_rehash_policyENS8_17_Hashtable_traitsILb0ELb0ELb1EEEE21_M_insert_unique_nodeEmmPNS8_10_Hash_nodeIS6_Lb0EEEm+0x180>
    50fb:	f3 0f 1e fa          	endbr64 
    50ff:	48 89 c7             	mov    %rax,%rdi
    5102:	e8 89 d2 ff ff       	callq  2390 <__cxa_begin_catch@plt>
    5107:	48 8b 55 90          	mov    -0x70(%rbp),%rdx
    510b:	48 8b 45 a8          	mov    -0x58(%rbp),%rax
    510f:	48 89 d6             	mov    %rdx,%rsi
    5112:	48 89 c7             	mov    %rax,%rdi
    5115:	e8 54 03 00 00       	callq  546e <_ZNSt8__detail16_Hashtable_allocISaINS_10_Hash_nodeISt4pairIKmSt10shared_ptrIN15coroutine_mimic9CoroutineEEELb0EEEEE18_M_deallocate_nodeEPS9_>
    511a:	e8 11 d4 ff ff       	callq  2530 <__cxa_rethrow@plt>
    511f:	f3 0f 1e fa          	endbr64 
    5123:	48 89 c3             	mov    %rax,%rbx
    5126:	e8 55 d4 ff ff       	callq  2580 <__cxa_end_catch@plt>
    512b:	48 89 d8             	mov    %rbx,%rax
    512e:	48 89 c7             	mov    %rax,%rdi
    5131:	e8 6a d4 ff ff       	callq  25a0 <_Unwind_Resume@plt>
    5136:	e8 b5 d3 ff ff       	callq  24f0 <__stack_chk_fail@plt>
    513b:	48 83 c4 78          	add    $0x78,%rsp
    513f:	5b                   	pop    %rbx
    5140:	5d                   	pop    %rbp
    5141:	c3                   	retq   

0000000000005142 <_ZNKSt8__detail14_Node_iteratorISt4pairIKmSt10shared_ptrIN15coroutine_mimic9CoroutineEEELb0ELb0EEptEv>:
    5142:	f3 0f 1e fa          	endbr64 
    5146:	55                   	push   %rbp
    5147:	48 89 e5             	mov    %rsp,%rbp
    514a:	48 83 ec 10          	sub    $0x10,%rsp
    514e:	48 89 7d f8          	mov    %rdi,-0x8(%rbp)
    5152:	48 8b 45 f8          	mov    -0x8(%rbp),%rax
    5156:	48 8b 00             	mov    (%rax),%rax
    5159:	48 89 c7             	mov    %rax,%rdi
    515c:	e8 8b f8 ff ff       	callq  49ec <_ZNSt8__detail21_Hash_node_value_baseISt4pairIKmSt10shared_ptrIN15coroutine_mimic9CoroutineEEEE9_M_valptrEv>
    5161:	c9                   	leaveq 
    5162:	c3                   	retq   
    5163:	90                   	nop

0000000000005164 <_ZNSt8__detail21_Hash_node_value_baseISt4pairIKmSt10shared_ptrIN15coroutine_mimic9CoroutineEEEE4_M_vEv>:
    5164:	f3 0f 1e fa          	endbr64 
    5168:	55                   	push   %rbp
    5169:	48 89 e5             	mov    %rsp,%rbp
    516c:	48 83 ec 10          	sub    $0x10,%rsp
    5170:	48 89 7d f8          	mov    %rdi,-0x8(%rbp)
    5174:	48 8b 45 f8          	mov    -0x8(%rbp),%rax
    5178:	48 89 c7             	mov    %rax,%rdi
    517b:	e8 6c f8 ff ff       	callq  49ec <_ZNSt8__detail21_Hash_node_value_baseISt4pairIKmSt10shared_ptrIN15coroutine_mimic9CoroutineEEEE9_M_valptrEv>
    5180:	c9                   	leaveq 
    5181:	c3                   	retq   

0000000000005182 <_ZNKSt12__shared_ptrIN15coroutine_mimic9CoroutineELN9__gnu_cxx12_Lock_policyE2EE3getEv>:
    5182:	f3 0f 1e fa          	endbr64 
    5186:	55                   	push   %rbp
    5187:	48 89 e5             	mov    %rsp,%rbp
    518a:	48 89 7d f8          	mov    %rdi,-0x8(%rbp)
    518e:	48 8b 45 f8          	mov    -0x8(%rbp),%rax
    5192:	48 8b 00             	mov    (%rax),%rax
    5195:	5d                   	pop    %rbp
    5196:	c3                   	retq   
    5197:	90                   	nop

0000000000005198 <_ZN9__gnu_cxx16__aligned_bufferISt4pairIKmSt10shared_ptrIN15coroutine_mimic9CoroutineEEEE6_M_ptrEv>:
    5198:	f3 0f 1e fa          	endbr64 
    519c:	55                   	push   %rbp
    519d:	48 89 e5             	mov    %rsp,%rbp
    51a0:	48 83 ec 10          	sub    $0x10,%rsp
    51a4:	48 89 7d f8          	mov    %rdi,-0x8(%rbp)
    51a8:	48 8b 45 f8          	mov    -0x8(%rbp),%rax
    51ac:	48 89 c7             	mov    %rax,%rdi
    51af:	e8 60 09 00 00       	callq  5b14 <_ZN9__gnu_cxx16__aligned_bufferISt4pairIKmSt10shared_ptrIN15coroutine_mimic9CoroutineEEEE7_M_addrEv>
    51b4:	c9                   	leaveq 
    51b5:	c3                   	retq   

00000000000051b6 <_ZNKSt10_HashtableImSt4pairIKmSt10shared_ptrIN15coroutine_mimic9CoroutineEEESaIS6_ENSt8__detail10_Select1stESt8equal_toImESt4hashImENS8_18_Mod_range_hashingENS8_20_Default_ranged_hashENS8_20_Prime_rehash_policyENS8_17_Hashtable_traitsILb0ELb0ELb1EEEE15_M_bucket_indexEPNS8_10_Hash_nodeIS6_Lb0EEE>:
    51b6:	f3 0f 1e fa          	endbr64 
    51ba:	55                   	push   %rbp
    51bb:	48 89 e5             	mov    %rsp,%rbp
    51be:	48 83 ec 10          	sub    $0x10,%rsp
    51c2:	48 89 7d f8          	mov    %rdi,-0x8(%rbp)
    51c6:	48 89 75 f0          	mov    %rsi,-0x10(%rbp)
    51ca:	48 8b 45 f8          	mov    -0x8(%rbp),%rax
    51ce:	48 8b 50 08          	mov    0x8(%rax),%rdx
    51d2:	48 8b 4d f0          	mov    -0x10(%rbp),%rcx
    51d6:	48 8b 45 f8          	mov    -0x8(%rbp),%rax
    51da:	48 89 ce             	mov    %rcx,%rsi
    51dd:	48 89 c7             	mov    %rax,%rdi
    51e0:	e8 41 09 00 00       	callq  5b26 <_ZNKSt8__detail15_Hash_code_baseImSt4pairIKmSt10shared_ptrIN15coroutine_mimic9CoroutineEEENS_10_Select1stESt4hashImENS_18_Mod_range_hashingENS_20_Default_ranged_hashELb0EE15_M_bucket_indexEPKNS_10_Hash_nodeIS7_Lb0EEEm>
    51e5:	c9                   	leaveq 
    51e6:	c3                   	retq   
    51e7:	90                   	nop

00000000000051e8 <_ZNSt10_HashtableImSt4pairIKmSt10shared_ptrIN15coroutine_mimic9CoroutineEEESaIS6_ENSt8__detail10_Select1stESt8equal_toImESt4hashImENS8_18_Mod_range_hashingENS8_20_Default_ranged_hashENS8_20_Prime_rehash_policyENS8_17_Hashtable_traitsILb0ELb0ELb1EEEE20_M_get_previous_nodeEmPNS8_15_Hash_node_baseE>:
    51e8:	f3 0f 1e fa          	endbr64 
    51ec:	55                   	push   %rbp
    51ed:	48 89 e5             	mov    %rsp,%rbp
    51f0:	48 89 7d e8          	mov    %rdi,-0x18(%rbp)
    51f4:	48 89 75 e0          	mov    %rsi,-0x20(%rbp)
    51f8:	48 89 55 d8          	mov    %rdx,-0x28(%rbp)
    51fc:	48 8b 45 e8          	mov    -0x18(%rbp),%rax
    5200:	48 8b 00             	mov    (%rax),%rax
    5203:	48 8b 55 e0          	mov    -0x20(%rbp),%rdx
    5207:	48 c1 e2 03          	shl    $0x3,%rdx
    520b:	48 01 d0             	add    %rdx,%rax
    520e:	48 8b 00             	mov    (%rax),%rax
    5211:	48 89 45 f8          	mov    %rax,-0x8(%rbp)
    5215:	48 8b 45 f8          	mov    -0x8(%rbp),%rax
    5219:	48 8b 00             	mov    (%rax),%rax
    521c:	48 39 45 d8          	cmp    %rax,-0x28(%rbp)
    5220:	74 0d                	je     522f <_ZNSt10_HashtableImSt4pairIKmSt10shared_ptrIN15coroutine_mimic9CoroutineEEESaIS6_ENSt8__detail10_Select1stESt8equal_toImESt4hashImENS8_18_Mod_range_hashingENS8_20_Default_ranged_hashENS8_20_Prime_rehash_policyENS8_17_Hashtable_traitsILb0ELb0ELb1EEEE20_M_get_previous_nodeEmPNS8_15_Hash_node_baseE+0x47>
    5222:	48 8b 45 f8          	mov    -0x8(%rbp),%rax
    5226:	48 8b 00             	mov    (%rax),%rax
    5229:	48 89 45 f8          	mov    %rax,-0x8(%rbp)
    522d:	eb e6                	jmp    5215 <_ZNSt10_HashtableImSt4pairIKmSt10shared_ptrIN15coroutine_mimic9CoroutineEEESaIS6_ENSt8__detail10_Select1stESt8equal_toImESt4hashImENS8_18_Mod_range_hashingENS8_20_Default_ranged_hashENS8_20_Prime_rehash_policyENS8_17_Hashtable_traitsILb0ELb0ELb1EEEE20_M_get_previous_nodeEmPNS8_15_Hash_node_baseE+0x2d>
    522f:	48 8b 45 f8          	mov    -0x8(%rbp),%rax
    5233:	5d                   	pop    %rbp
    5234:	c3                   	retq   
    5235:	90                   	nop

0000000000005236 <_ZNSt10_HashtableImSt4pairIKmSt10shared_ptrIN15coroutine_mimic9CoroutineEEESaIS6_ENSt8__detail10_Select1stESt8equal_toImESt4hashImENS8_18_Mod_range_hashingENS8_20_Default_ranged_hashENS8_20_Prime_rehash_policyENS8_17_Hashtable_traitsILb0ELb0ELb1EEEE8_M_eraseEmPNS8_15_Hash_node_baseEPNS8_10_Hash_nodeIS6_Lb0EEE>:
    5236:	f3 0f 1e fa          	endbr64 
    523a:	55                   	push   %rbp
    523b:	48 89 e5             	mov    %rsp,%rbp
    523e:	53                   	push   %rbx
    523f:	48 83 ec 48          	sub    $0x48,%rsp
    5243:	48 89 7d c8          	mov    %rdi,-0x38(%rbp)
    5247:	48 89 75 c0          	mov    %rsi,-0x40(%rbp)
    524b:	48 89 55 b8          	mov    %rdx,-0x48(%rbp)
    524f:	48 89 4d b0          	mov    %rcx,-0x50(%rbp)
    5253:	64 48 8b 04 25 28 00 	mov    %fs:0x28,%rax
    525a:	00 00 
    525c:	48 89 45 e8          	mov    %rax,-0x18(%rbp)
    5260:	31 c0                	xor    %eax,%eax
    5262:	48 8b 45 c8          	mov    -0x38(%rbp),%rax
    5266:	48 8b 00             	mov    (%rax),%rax
    5269:	48 8b 55 c0          	mov    -0x40(%rbp),%rdx
    526d:	48 c1 e2 03          	shl    $0x3,%rdx
    5271:	48 01 d0             	add    %rdx,%rax
    5274:	48 8b 00             	mov    (%rax),%rax
    5277:	48 39 45 b8          	cmp    %rax,-0x48(%rbp)
    527b:	75 58                	jne    52d5 <_ZNSt10_HashtableImSt4pairIKmSt10shared_ptrIN15coroutine_mimic9CoroutineEEESaIS6_ENSt8__detail10_Select1stESt8equal_toImESt4hashImENS8_18_Mod_range_hashingENS8_20_Default_ranged_hashENS8_20_Prime_rehash_policyENS8_17_Hashtable_traitsILb0ELb0ELb1EEEE8_M_eraseEmPNS8_15_Hash_node_baseEPNS8_10_Hash_nodeIS6_Lb0EEE+0x9f>
    527d:	48 8b 45 b0          	mov    -0x50(%rbp),%rax
    5281:	48 8b 00             	mov    (%rax),%rax
    5284:	48 85 c0             	test   %rax,%rax
    5287:	74 23                	je     52ac <_ZNSt10_HashtableImSt4pairIKmSt10shared_ptrIN15coroutine_mimic9CoroutineEEESaIS6_ENSt8__detail10_Select1stESt8equal_toImESt4hashImENS8_18_Mod_range_hashingENS8_20_Default_ranged_hashENS8_20_Prime_rehash_policyENS8_17_Hashtable_traitsILb0ELb0ELb1EEEE8_M_eraseEmPNS8_15_Hash_node_baseEPNS8_10_Hash_nodeIS6_Lb0EEE+0x76>
    5289:	48 8b 45 b0          	mov    -0x50(%rbp),%rax
    528d:	48 89 c7             	mov    %rax,%rdi
    5290:	e8 c3 01 00 00       	callq  5458 <_ZNKSt8__detail10_Hash_nodeISt4pairIKmSt10shared_ptrIN15coroutine_mimic9CoroutineEEELb0EE7_M_nextEv>
    5295:	48 89 c2             	mov    %rax,%rdx
    5298:	48 8b 45 c8          	mov    -0x38(%rbp),%rax
    529c:	48 89 d6             	mov    %rdx,%rsi
    529f:	48 89 c7             	mov    %rax,%rdi
    52a2:	e8 0f ff ff ff       	callq  51b6 <_ZNKSt10_HashtableImSt4pairIKmSt10shared_ptrIN15coroutine_mimic9CoroutineEEESaIS6_ENSt8__detail10_Select1stESt8equal_toImESt4hashImENS8_18_Mod_range_hashingENS8_20_Default_ranged_hashENS8_20_Prime_rehash_policyENS8_17_Hashtable_traitsILb0ELb0ELb1EEEE15_M_bucket_indexEPNS8_10_Hash_nodeIS6_Lb0EEE>
    52a7:	48 89 c3             	mov    %rax,%rbx
    52aa:	eb 05                	jmp    52b1 <_ZNSt10_HashtableImSt4pairIKmSt10shared_ptrIN15coroutine_mimic9CoroutineEEESaIS6_ENSt8__detail10_Select1stESt8equal_toImESt4hashImENS8_18_Mod_range_hashingENS8_20_Default_ranged_hashENS8_20_Prime_rehash_policyENS8_17_Hashtable_traitsILb0ELb0ELb1EEEE8_M_eraseEmPNS8_15_Hash_node_baseEPNS8_10_Hash_nodeIS6_Lb0EEE+0x7b>
    52ac:	bb 00 00 00 00       	mov    $0x0,%ebx
    52b1:	48 8b 45 b0          	mov    -0x50(%rbp),%rax
    52b5:	48 89 c7             	mov    %rax,%rdi
    52b8:	e8 9b 01 00 00       	callq  5458 <_ZNKSt8__detail10_Hash_nodeISt4pairIKmSt10shared_ptrIN15coroutine_mimic9CoroutineEEELb0EE7_M_nextEv>
    52bd:	48 89 c2             	mov    %rax,%rdx
    52c0:	48 8b 75 c0          	mov    -0x40(%rbp),%rsi
    52c4:	48 8b 45 c8          	mov    -0x38(%rbp),%rax
    52c8:	48 89 d9             	mov    %rbx,%rcx
    52cb:	48 89 c7             	mov    %rax,%rdi
    52ce:	e8 e3 08 00 00       	callq  5bb6 <_ZNSt10_HashtableImSt4pairIKmSt10shared_ptrIN15coroutine_mimic9CoroutineEEESaIS6_ENSt8__detail10_Select1stESt8equal_toImESt4hashImENS8_18_Mod_range_hashingENS8_20_Default_ranged_hashENS8_20_Prime_rehash_policyENS8_17_Hashtable_traitsILb0ELb0ELb1EEEE22_M_remove_bucket_beginEmPNS8_10_Hash_nodeIS6_Lb0EEEm>
    52d3:	eb 51                	jmp    5326 <_ZNSt10_HashtableImSt4pairIKmSt10shared_ptrIN15coroutine_mimic9CoroutineEEESaIS6_ENSt8__detail10_Select1stESt8equal_toImESt4hashImENS8_18_Mod_range_hashingENS8_20_Default_ranged_hashENS8_20_Prime_rehash_policyENS8_17_Hashtable_traitsILb0ELb0ELb1EEEE8_M_eraseEmPNS8_15_Hash_node_baseEPNS8_10_Hash_nodeIS6_Lb0EEE+0xf0>
    52d5:	48 8b 45 b0          	mov    -0x50(%rbp),%rax
    52d9:	48 8b 00             	mov    (%rax),%rax
    52dc:	48 85 c0             	test   %rax,%rax
    52df:	74 45                	je     5326 <_ZNSt10_HashtableImSt4pairIKmSt10shared_ptrIN15coroutine_mimic9CoroutineEEESaIS6_ENSt8__detail10_Select1stESt8equal_toImESt4hashImENS8_18_Mod_range_hashingENS8_20_Default_ranged_hashENS8_20_Prime_rehash_policyENS8_17_Hashtable_traitsILb0ELb0ELb1EEEE8_M_eraseEmPNS8_15_Hash_node_baseEPNS8_10_Hash_nodeIS6_Lb0EEE+0xf0>
    52e1:	48 8b 45 b0          	mov    -0x50(%rbp),%rax
    52e5:	48 89 c7             	mov    %rax,%rdi
    52e8:	e8 6b 01 00 00       	callq  5458 <_ZNKSt8__detail10_Hash_nodeISt4pairIKmSt10shared_ptrIN15coroutine_mimic9CoroutineEEELb0EE7_M_nextEv>
    52ed:	48 89 c2             	mov    %rax,%rdx
    52f0:	48 8b 45 c8          	mov    -0x38(%rbp),%rax
    52f4:	48 89 d6             	mov    %rdx,%rsi
    52f7:	48 89 c7             	mov    %rax,%rdi
    52fa:	e8 b7 fe ff ff       	callq  51b6 <_ZNKSt10_HashtableImSt4pairIKmSt10shared_ptrIN15coroutine_mimic9CoroutineEEESaIS6_ENSt8__detail10_Select1stESt8equal_toImESt4hashImENS8_18_Mod_range_hashingENS8_20_Default_ranged_hashENS8_20_Prime_rehash_policyENS8_17_Hashtable_traitsILb0ELb0ELb1EEEE15_M_bucket_indexEPNS8_10_Hash_nodeIS6_Lb0EEE>
    52ff:	48 89 45 e0          	mov    %rax,-0x20(%rbp)
    5303:	48 8b 45 e0          	mov    -0x20(%rbp),%rax
    5307:	48 3b 45 c0          	cmp    -0x40(%rbp),%rax
    530b:	74 19                	je     5326 <_ZNSt10_HashtableImSt4pairIKmSt10shared_ptrIN15coroutine_mimic9CoroutineEEESaIS6_ENSt8__detail10_Select1stESt8equal_toImESt4hashImENS8_18_Mod_range_hashingENS8_20_Default_ranged_hashENS8_20_Prime_rehash_policyENS8_17_Hashtable_traitsILb0ELb0ELb1EEEE8_M_eraseEmPNS8_15_Hash_node_baseEPNS8_10_Hash_nodeIS6_Lb0EEE+0xf0>
    530d:	48 8b 45 c8          	mov    -0x38(%rbp),%rax
    5311:	48 8b 00             	mov    (%rax),%rax
    5314:	48 8b 55 e0          	mov    -0x20(%rbp),%rdx
    5318:	48 c1 e2 03          	shl    $0x3,%rdx
    531c:	48 01 c2             	add    %rax,%rdx
    531f:	48 8b 45 b8          	mov    -0x48(%rbp),%rax
    5323:	48 89 02             	mov    %rax,(%rdx)
    5326:	48 8b 45 b0          	mov    -0x50(%rbp),%rax
    532a:	48 8b 10             	mov    (%rax),%rdx
    532d:	48 8b 45 b8          	mov    -0x48(%rbp),%rax
    5331:	48 89 10             	mov    %rdx,(%rax)
    5334:	48 8b 45 b0          	mov    -0x50(%rbp),%rax
    5338:	48 89 c7             	mov    %rax,%rdi
    533b:	e8 18 01 00 00       	callq  5458 <_ZNKSt8__detail10_Hash_nodeISt4pairIKmSt10shared_ptrIN15coroutine_mimic9CoroutineEEELb0EE7_M_nextEv>
    5340:	48 89 c2             	mov    %rax,%rdx
    5343:	48 8d 45 d8          	lea    -0x28(%rbp),%rax
    5347:	48 89 d6             	mov    %rdx,%rsi
    534a:	48 89 c7             	mov    %rax,%rdi
    534d:	e8 58 f8 ff ff       	callq  4baa <_ZNSt8__detail14_Node_iteratorISt4pairIKmSt10shared_ptrIN15coroutine_mimic9CoroutineEEELb0ELb0EEC1EPNS_10_Hash_nodeIS7_Lb0EEE>
    5352:	48 8b 55 b0          	mov    -0x50(%rbp),%rdx
    5356:	48 8b 45 c8          	mov    -0x38(%rbp),%rax
    535a:	48 89 d6             	mov    %rdx,%rsi
    535d:	48 89 c7             	mov    %rax,%rdi
    5360:	e8 09 01 00 00       	callq  546e <_ZNSt8__detail16_Hashtable_allocISaINS_10_Hash_nodeISt4pairIKmSt10shared_ptrIN15coroutine_mimic9CoroutineEEELb0EEEEE18_M_deallocate_nodeEPS9_>
    5365:	48 8b 45 c8          	mov    -0x38(%rbp),%rax
    5369:	48 8b 40 18          	mov    0x18(%rax),%rax
    536d:	48 8d 50 ff          	lea    -0x1(%rax),%rdx
    5371:	48 8b 45 c8          	mov    -0x38(%rbp),%rax
    5375:	48 89 50 18          	mov    %rdx,0x18(%rax)
    5379:	48 8b 45 d8          	mov    -0x28(%rbp),%rax
    537d:	48 8b 4d e8          	mov    -0x18(%rbp),%rcx
    5381:	64 48 33 0c 25 28 00 	xor    %fs:0x28,%rcx
    5388:	00 00 
    538a:	74 05                	je     5391 <_ZNSt10_HashtableImSt4pairIKmSt10shared_ptrIN15coroutine_mimic9CoroutineEEESaIS6_ENSt8__detail10_Select1stESt8equal_toImESt4hashImENS8_18_Mod_range_hashingENS8_20_Default_ranged_hashENS8_20_Prime_rehash_policyENS8_17_Hashtable_traitsILb0ELb0ELb1EEEE8_M_eraseEmPNS8_15_Hash_node_baseEPNS8_10_Hash_nodeIS6_Lb0EEE+0x15b>
    538c:	e8 5f d1 ff ff       	callq  24f0 <__stack_chk_fail@plt>
    5391:	48 83 c4 48          	add    $0x48,%rsp
    5395:	5b                   	pop    %rbx
    5396:	5d                   	pop    %rbp
    5397:	c3                   	retq   

0000000000005398 <_ZNSt7__cxx1112basic_stringIcSt11char_traitsIcESaIcEE16_M_construct_auxIPcEEvT_S7_St12__false_type>:
    5398:	f3 0f 1e fa          	endbr64 
    539c:	55                   	push   %rbp
    539d:	48 89 e5             	mov    %rsp,%rbp
    53a0:	48 83 ec 30          	sub    $0x30,%rsp
    53a4:	48 89 7d e8          	mov    %rdi,-0x18(%rbp)
    53a8:	48 89 75 e0          	mov    %rsi,-0x20(%rbp)
    53ac:	48 89 55 d8          	mov    %rdx,-0x28(%rbp)
    53b0:	64 48 8b 04 25 28 00 	mov    %fs:0x28,%rax
    53b7:	00 00 
    53b9:	48 89 45 f8          	mov    %rax,-0x8(%rbp)
    53bd:	31 c0                	xor    %eax,%eax
    53bf:	48 8b 55 d8          	mov    -0x28(%rbp),%rdx
    53c3:	48 8b 4d e0          	mov    -0x20(%rbp),%rcx
    53c7:	48 8b 45 e8          	mov    -0x18(%rbp),%rax
    53cb:	48 89 ce             	mov    %rcx,%rsi
    53ce:	48 89 c7             	mov    %rax,%rdi
