
coroutine_test:     file format elf64-x86-64


Disassembly of section .init:

0000000000002000 <_init>:
    2000:	f3 0f 1e fa          	endbr64 
    2004:	48 83 ec 08          	sub    $0x8,%rsp
    2008:	48 8b 05 d1 df 00 00 	mov    0xdfd1(%rip),%rax        # ffe0 <__gmon_start__>
    200f:	48 85 c0             	test   %rax,%rax
    2012:	74 02                	je     2016 <_init+0x16>
    2014:	ff d0                	callq  *%rax
    2016:	48 83 c4 08          	add    $0x8,%rsp
    201a:	c3                   	retq   

Disassembly of section .plt:

0000000000002020 <.plt>:
    2020:	ff 35 12 de 00 00    	pushq  0xde12(%rip)        # fe38 <_GLOBAL_OFFSET_TABLE_+0x8>
    2026:	f2 ff 25 13 de 00 00 	bnd jmpq *0xde13(%rip)        # fe40 <_GLOBAL_OFFSET_TABLE_+0x10>
    202d:	0f 1f 00             	nopl   (%rax)
    2030:	f3 0f 1e fa          	endbr64 
    2034:	68 00 00 00 00       	pushq  $0x0
    2039:	f2 e9 e1 ff ff ff    	bnd jmpq 2020 <.plt>
    203f:	90                   	nop
    2040:	f3 0f 1e fa          	endbr64 
    2044:	68 01 00 00 00       	pushq  $0x1
    2049:	f2 e9 d1 ff ff ff    	bnd jmpq 2020 <.plt>
    204f:	90                   	nop
    2050:	f3 0f 1e fa          	endbr64 
    2054:	68 02 00 00 00       	pushq  $0x2
    2059:	f2 e9 c1 ff ff ff    	bnd jmpq 2020 <.plt>
    205f:	90                   	nop
    2060:	f3 0f 1e fa          	endbr64 
    2064:	68 03 00 00 00       	pushq  $0x3
    2069:	f2 e9 b1 ff ff ff    	bnd jmpq 2020 <.plt>
    206f:	90                   	nop
    2070:	f3 0f 1e fa          	endbr64 
    2074:	68 04 00 00 00       	pushq  $0x4
    2079:	f2 e9 a1 ff ff ff    	bnd jmpq 2020 <.plt>
    207f:	90                   	nop
    2080:	f3 0f 1e fa          	endbr64 
    2084:	68 05 00 00 00       	pushq  $0x5
    2089:	f2 e9 91 ff ff ff    	bnd jmpq 2020 <.plt>
    208f:	90                   	nop
    2090:	f3 0f 1e fa          	endbr64 
    2094:	68 06 00 00 00       	pushq  $0x6
    2099:	f2 e9 81 ff ff ff    	bnd jmpq 2020 <.plt>
    209f:	90                   	nop
    20a0:	f3 0f 1e fa          	endbr64 
    20a4:	68 07 00 00 00       	pushq  $0x7
    20a9:	f2 e9 71 ff ff ff    	bnd jmpq 2020 <.plt>
    20af:	90                   	nop
    20b0:	f3 0f 1e fa          	endbr64 
    20b4:	68 08 00 00 00       	pushq  $0x8
    20b9:	f2 e9 61 ff ff ff    	bnd jmpq 2020 <.plt>
    20bf:	90                   	nop
    20c0:	f3 0f 1e fa          	endbr64 
    20c4:	68 09 00 00 00       	pushq  $0x9
    20c9:	f2 e9 51 ff ff ff    	bnd jmpq 2020 <.plt>
    20cf:	90                   	nop
    20d0:	f3 0f 1e fa          	endbr64 
    20d4:	68 0a 00 00 00       	pushq  $0xa
    20d9:	f2 e9 41 ff ff ff    	bnd jmpq 2020 <.plt>
    20df:	90                   	nop
    20e0:	f3 0f 1e fa          	endbr64 
    20e4:	68 0b 00 00 00       	pushq  $0xb
    20e9:	f2 e9 31 ff ff ff    	bnd jmpq 2020 <.plt>
    20ef:	90                   	nop
    20f0:	f3 0f 1e fa          	endbr64 
    20f4:	68 0c 00 00 00       	pushq  $0xc
    20f9:	f2 e9 21 ff ff ff    	bnd jmpq 2020 <.plt>
    20ff:	90                   	nop
    2100:	f3 0f 1e fa          	endbr64 
    2104:	68 0d 00 00 00       	pushq  $0xd
    2109:	f2 e9 11 ff ff ff    	bnd jmpq 2020 <.plt>
    210f:	90                   	nop
    2110:	f3 0f 1e fa          	endbr64 
    2114:	68 0e 00 00 00       	pushq  $0xe
    2119:	f2 e9 01 ff ff ff    	bnd jmpq 2020 <.plt>
    211f:	90                   	nop
    2120:	f3 0f 1e fa          	endbr64 
    2124:	68 0f 00 00 00       	pushq  $0xf
    2129:	f2 e9 f1 fe ff ff    	bnd jmpq 2020 <.plt>
    212f:	90                   	nop
    2130:	f3 0f 1e fa          	endbr64 
    2134:	68 10 00 00 00       	pushq  $0x10
    2139:	f2 e9 e1 fe ff ff    	bnd jmpq 2020 <.plt>
    213f:	90                   	nop
    2140:	f3 0f 1e fa          	endbr64 
    2144:	68 11 00 00 00       	pushq  $0x11
    2149:	f2 e9 d1 fe ff ff    	bnd jmpq 2020 <.plt>
    214f:	90                   	nop
    2150:	f3 0f 1e fa          	endbr64 
    2154:	68 12 00 00 00       	pushq  $0x12
    2159:	f2 e9 c1 fe ff ff    	bnd jmpq 2020 <.plt>
    215f:	90                   	nop
    2160:	f3 0f 1e fa          	endbr64 
    2164:	68 13 00 00 00       	pushq  $0x13
    2169:	f2 e9 b1 fe ff ff    	bnd jmpq 2020 <.plt>
    216f:	90                   	nop
    2170:	f3 0f 1e fa          	endbr64 
    2174:	68 14 00 00 00       	pushq  $0x14
    2179:	f2 e9 a1 fe ff ff    	bnd jmpq 2020 <.plt>
    217f:	90                   	nop
    2180:	f3 0f 1e fa          	endbr64 
    2184:	68 15 00 00 00       	pushq  $0x15
    2189:	f2 e9 91 fe ff ff    	bnd jmpq 2020 <.plt>
    218f:	90                   	nop
    2190:	f3 0f 1e fa          	endbr64 
    2194:	68 16 00 00 00       	pushq  $0x16
    2199:	f2 e9 81 fe ff ff    	bnd jmpq 2020 <.plt>
    219f:	90                   	nop
    21a0:	f3 0f 1e fa          	endbr64 
    21a4:	68 17 00 00 00       	pushq  $0x17
    21a9:	f2 e9 71 fe ff ff    	bnd jmpq 2020 <.plt>
    21af:	90                   	nop
    21b0:	f3 0f 1e fa          	endbr64 
    21b4:	68 18 00 00 00       	pushq  $0x18
    21b9:	f2 e9 61 fe ff ff    	bnd jmpq 2020 <.plt>
    21bf:	90                   	nop
    21c0:	f3 0f 1e fa          	endbr64 
    21c4:	68 19 00 00 00       	pushq  $0x19
    21c9:	f2 e9 51 fe ff ff    	bnd jmpq 2020 <.plt>
    21cf:	90                   	nop
    21d0:	f3 0f 1e fa          	endbr64 
    21d4:	68 1a 00 00 00       	pushq  $0x1a
    21d9:	f2 e9 41 fe ff ff    	bnd jmpq 2020 <.plt>
    21df:	90                   	nop
    21e0:	f3 0f 1e fa          	endbr64 
    21e4:	68 1b 00 00 00       	pushq  $0x1b
    21e9:	f2 e9 31 fe ff ff    	bnd jmpq 2020 <.plt>
    21ef:	90                   	nop
    21f0:	f3 0f 1e fa          	endbr64 
    21f4:	68 1c 00 00 00       	pushq  $0x1c
    21f9:	f2 e9 21 fe ff ff    	bnd jmpq 2020 <.plt>
    21ff:	90                   	nop
    2200:	f3 0f 1e fa          	endbr64 
    2204:	68 1d 00 00 00       	pushq  $0x1d
    2209:	f2 e9 11 fe ff ff    	bnd jmpq 2020 <.plt>
    220f:	90                   	nop
    2210:	f3 0f 1e fa          	endbr64 
    2214:	68 1e 00 00 00       	pushq  $0x1e
    2219:	f2 e9 01 fe ff ff    	bnd jmpq 2020 <.plt>
    221f:	90                   	nop
    2220:	f3 0f 1e fa          	endbr64 
    2224:	68 1f 00 00 00       	pushq  $0x1f
    2229:	f2 e9 f1 fd ff ff    	bnd jmpq 2020 <.plt>
    222f:	90                   	nop
    2230:	f3 0f 1e fa          	endbr64 
    2234:	68 20 00 00 00       	pushq  $0x20
    2239:	f2 e9 e1 fd ff ff    	bnd jmpq 2020 <.plt>
    223f:	90                   	nop
    2240:	f3 0f 1e fa          	endbr64 
    2244:	68 21 00 00 00       	pushq  $0x21
    2249:	f2 e9 d1 fd ff ff    	bnd jmpq 2020 <.plt>
    224f:	90                   	nop
    2250:	f3 0f 1e fa          	endbr64 
    2254:	68 22 00 00 00       	pushq  $0x22
    2259:	f2 e9 c1 fd ff ff    	bnd jmpq 2020 <.plt>
    225f:	90                   	nop
    2260:	f3 0f 1e fa          	endbr64 
    2264:	68 23 00 00 00       	pushq  $0x23
    2269:	f2 e9 b1 fd ff ff    	bnd jmpq 2020 <.plt>
    226f:	90                   	nop
    2270:	f3 0f 1e fa          	endbr64 
    2274:	68 24 00 00 00       	pushq  $0x24
    2279:	f2 e9 a1 fd ff ff    	bnd jmpq 2020 <.plt>
    227f:	90                   	nop
    2280:	f3 0f 1e fa          	endbr64 
    2284:	68 25 00 00 00       	pushq  $0x25
    2289:	f2 e9 91 fd ff ff    	bnd jmpq 2020 <.plt>
    228f:	90                   	nop
    2290:	f3 0f 1e fa          	endbr64 
    2294:	68 26 00 00 00       	pushq  $0x26
    2299:	f2 e9 81 fd ff ff    	bnd jmpq 2020 <.plt>
    229f:	90                   	nop
    22a0:	f3 0f 1e fa          	endbr64 
    22a4:	68 27 00 00 00       	pushq  $0x27
    22a9:	f2 e9 71 fd ff ff    	bnd jmpq 2020 <.plt>
    22af:	90                   	nop
    22b0:	f3 0f 1e fa          	endbr64 
    22b4:	68 28 00 00 00       	pushq  $0x28
    22b9:	f2 e9 61 fd ff ff    	bnd jmpq 2020 <.plt>
    22bf:	90                   	nop
    22c0:	f3 0f 1e fa          	endbr64 
    22c4:	68 29 00 00 00       	pushq  $0x29
    22c9:	f2 e9 51 fd ff ff    	bnd jmpq 2020 <.plt>
    22cf:	90                   	nop
    22d0:	f3 0f 1e fa          	endbr64 
    22d4:	68 2a 00 00 00       	pushq  $0x2a
    22d9:	f2 e9 41 fd ff ff    	bnd jmpq 2020 <.plt>
    22df:	90                   	nop
    22e0:	f3 0f 1e fa          	endbr64 
    22e4:	68 2b 00 00 00       	pushq  $0x2b
    22e9:	f2 e9 31 fd ff ff    	bnd jmpq 2020 <.plt>
    22ef:	90                   	nop
    22f0:	f3 0f 1e fa          	endbr64 
    22f4:	68 2c 00 00 00       	pushq  $0x2c
    22f9:	f2 e9 21 fd ff ff    	bnd jmpq 2020 <.plt>
    22ff:	90                   	nop

Disassembly of section .plt.got:

0000000000002300 <__cxa_finalize@plt>:
    2300:	f3 0f 1e fa          	endbr64 
    2304:	f2 ff 25 a5 dc 00 00 	bnd jmpq *0xdca5(%rip)        # ffb0 <__cxa_finalize@GLIBC_2.2.5>
    230b:	0f 1f 44 00 00       	nopl   0x0(%rax,%rax,1)

Disassembly of section .plt.sec:

0000000000002310 <_Znam@plt>:
    2310:	f3 0f 1e fa          	endbr64 
    2314:	f2 ff 25 2d db 00 00 	bnd jmpq *0xdb2d(%rip)        # fe48 <_Znam@GLIBCXX_3.4>
    231b:	0f 1f 44 00 00       	nopl   0x0(%rax,%rax,1)

0000000000002320 <printf@plt>:
    2320:	f3 0f 1e fa          	endbr64 
    2324:	f2 ff 25 25 db 00 00 	bnd jmpq *0xdb25(%rip)        # fe50 <printf@GLIBC_2.2.5>
    232b:	0f 1f 44 00 00       	nopl   0x0(%rax,%rax,1)

0000000000002330 <_ZNSaIcED2Ev@plt>:
    2330:	f3 0f 1e fa          	endbr64 
    2334:	f2 ff 25 1d db 00 00 	bnd jmpq *0xdb1d(%rip)        # fe58 <_ZNSaIcED2Ev@GLIBCXX_3.4>
    233b:	0f 1f 44 00 00       	nopl   0x0(%rax,%rax,1)

0000000000002340 <swapcontext@plt>:
    2340:	f3 0f 1e fa          	endbr64 
    2344:	f2 ff 25 15 db 00 00 	bnd jmpq *0xdb15(%rip)        # fe60 <swapcontext@GLIBC_2.2.5>
    234b:	0f 1f 44 00 00       	nopl   0x0(%rax,%rax,1)

0000000000002350 <_ZNSt7__cxx1112basic_stringIcSt11char_traitsIcESaIcEE13_S_copy_charsEPcS5_S5_@plt>:
    2350:	f3 0f 1e fa          	endbr64 
    2354:	f2 ff 25 0d db 00 00 	bnd jmpq *0xdb0d(%rip)        # fe68 <_ZNSt7__cxx1112basic_stringIcSt11char_traitsIcESaIcEE13_S_copy_charsEPcS5_S5_@GLIBCXX_3.4.21>
    235b:	0f 1f 44 00 00       	nopl   0x0(%rax,%rax,1)

0000000000002360 <makecontext@plt>:
    2360:	f3 0f 1e fa          	endbr64 
    2364:	f2 ff 25 05 db 00 00 	bnd jmpq *0xdb05(%rip)        # fe70 <makecontext@GLIBC_2.2.5>
    236b:	0f 1f 44 00 00       	nopl   0x0(%rax,%rax,1)

0000000000002370 <_ZSt17__throw_bad_allocv@plt>:
    2370:	f3 0f 1e fa          	endbr64 
    2374:	f2 ff 25 fd da 00 00 	bnd jmpq *0xdafd(%rip)        # fe78 <_ZSt17__throw_bad_allocv@GLIBCXX_3.4>
    237b:	0f 1f 44 00 00       	nopl   0x0(%rax,%rax,1)

0000000000002380 <_ZSt25__throw_bad_function_callv@plt>:
    2380:	f3 0f 1e fa          	endbr64 
    2384:	f2 ff 25 f5 da 00 00 	bnd jmpq *0xdaf5(%rip)        # fe80 <_ZSt25__throw_bad_function_callv@GLIBCXX_3.4.14>
    238b:	0f 1f 44 00 00       	nopl   0x0(%rax,%rax,1)

0000000000002390 <__cxa_begin_catch@plt>:
    2390:	f3 0f 1e fa          	endbr64 
    2394:	f2 ff 25 ed da 00 00 	bnd jmpq *0xdaed(%rip)        # fe88 <__cxa_begin_catch@CXXABI_1.3>
    239b:	0f 1f 44 00 00       	nopl   0x0(%rax,%rax,1)

00000000000023a0 <_ZNKSt7__cxx1112basic_stringIcSt11char_traitsIcESaIcEE5c_strEv@plt>:
    23a0:	f3 0f 1e fa          	endbr64 
    23a4:	f2 ff 25 e5 da 00 00 	bnd jmpq *0xdae5(%rip)        # fe90 <_ZNKSt7__cxx1112basic_stringIcSt11char_traitsIcESaIcEE5c_strEv@GLIBCXX_3.4.21>
    23ab:	0f 1f 44 00 00       	nopl   0x0(%rax,%rax,1)

00000000000023b0 <__cxa_allocate_exception@plt>:
    23b0:	f3 0f 1e fa          	endbr64 
    23b4:	f2 ff 25 dd da 00 00 	bnd jmpq *0xdadd(%rip)        # fe98 <__cxa_allocate_exception@CXXABI_1.3>
    23bb:	0f 1f 44 00 00       	nopl   0x0(%rax,%rax,1)

00000000000023c0 <_ZSt20__throw_length_errorPKc@plt>:
    23c0:	f3 0f 1e fa          	endbr64 
    23c4:	f2 ff 25 d5 da 00 00 	bnd jmpq *0xdad5(%rip)        # fea0 <_ZSt20__throw_length_errorPKc@GLIBCXX_3.4>
    23cb:	0f 1f 44 00 00       	nopl   0x0(%rax,%rax,1)

00000000000023d0 <memset@plt>:
    23d0:	f3 0f 1e fa          	endbr64 
    23d4:	f2 ff 25 cd da 00 00 	bnd jmpq *0xdacd(%rip)        # fea8 <memset@GLIBC_2.2.5>
    23db:	0f 1f 44 00 00       	nopl   0x0(%rax,%rax,1)

00000000000023e0 <_ZNSt7__cxx1112basic_stringIcSt11char_traitsIcESaIcEED1Ev@plt>:
    23e0:	f3 0f 1e fa          	endbr64 
    23e4:	f2 ff 25 c5 da 00 00 	bnd jmpq *0xdac5(%rip)        # feb0 <_ZNSt7__cxx1112basic_stringIcSt11char_traitsIcESaIcEED1Ev@GLIBCXX_3.4.21>
    23eb:	0f 1f 44 00 00       	nopl   0x0(%rax,%rax,1)

00000000000023f0 <__assert_fail@plt>:
    23f0:	f3 0f 1e fa          	endbr64 
    23f4:	f2 ff 25 bd da 00 00 	bnd jmpq *0xdabd(%rip)        # feb8 <__assert_fail@GLIBC_2.2.5>
    23fb:	0f 1f 44 00 00       	nopl   0x0(%rax,%rax,1)

0000000000002400 <getcontext@plt>:
    2400:	f3 0f 1e fa          	endbr64 
    2404:	f2 ff 25 b5 da 00 00 	bnd jmpq *0xdab5(%rip)        # fec0 <getcontext@GLIBC_2.2.5>
    240b:	0f 1f 44 00 00       	nopl   0x0(%rax,%rax,1)

0000000000002410 <_ZNSt7__cxx1112basic_stringIcSt11char_traitsIcESaIcEE13_M_set_lengthEm@plt>:
    2410:	f3 0f 1e fa          	endbr64 
    2414:	f2 ff 25 ad da 00 00 	bnd jmpq *0xdaad(%rip)        # fec8 <_ZNSt7__cxx1112basic_stringIcSt11char_traitsIcESaIcEE13_M_set_lengthEm@GLIBCXX_3.4.21>
    241b:	0f 1f 44 00 00       	nopl   0x0(%rax,%rax,1)

0000000000002420 <_ZSt19__throw_logic_errorPKc@plt>:
    2420:	f3 0f 1e fa          	endbr64 
    2424:	f2 ff 25 a5 da 00 00 	bnd jmpq *0xdaa5(%rip)        # fed0 <_ZSt19__throw_logic_errorPKc@GLIBCXX_3.4>
    242b:	0f 1f 44 00 00       	nopl   0x0(%rax,%rax,1)

0000000000002430 <_ZNSt7__cxx1112basic_stringIcSt11char_traitsIcESaIcEE13_M_local_dataEv@plt>:
    2430:	f3 0f 1e fa          	endbr64 
    2434:	f2 ff 25 9d da 00 00 	bnd jmpq *0xda9d(%rip)        # fed8 <_ZNSt7__cxx1112basic_stringIcSt11char_traitsIcESaIcEE13_M_local_dataEv@GLIBCXX_3.4.21>
    243b:	0f 1f 44 00 00       	nopl   0x0(%rax,%rax,1)

0000000000002440 <memcpy@plt>:
    2440:	f3 0f 1e fa          	endbr64 
    2444:	f2 ff 25 95 da 00 00 	bnd jmpq *0xda95(%rip)        # fee0 <memcpy@GLIBC_2.14>
    244b:	0f 1f 44 00 00       	nopl   0x0(%rax,%rax,1)

0000000000002450 <_ZNSt7__cxx1112basic_stringIcSt11char_traitsIcESaIcEE7_M_dataEPc@plt>:
    2450:	f3 0f 1e fa          	endbr64 
    2454:	f2 ff 25 8d da 00 00 	bnd jmpq *0xda8d(%rip)        # fee8 <_ZNSt7__cxx1112basic_stringIcSt11char_traitsIcESaIcEE7_M_dataEPc@GLIBCXX_3.4.21>
    245b:	0f 1f 44 00 00       	nopl   0x0(%rax,%rax,1)

0000000000002460 <__cxa_atexit@plt>:
    2460:	f3 0f 1e fa          	endbr64 
    2464:	f2 ff 25 85 da 00 00 	bnd jmpq *0xda85(%rip)        # fef0 <__cxa_atexit@GLIBC_2.2.5>
    246b:	0f 1f 44 00 00       	nopl   0x0(%rax,%rax,1)

0000000000002470 <_ZdlPv@plt>:
    2470:	f3 0f 1e fa          	endbr64 
    2474:	f2 ff 25 7d da 00 00 	bnd jmpq *0xda7d(%rip)        # fef8 <_ZdlPv@GLIBCXX_3.4>
    247b:	0f 1f 44 00 00       	nopl   0x0(%rax,%rax,1)

0000000000002480 <_ZStlsISt11char_traitsIcEERSt13basic_ostreamIcT_ES5_PKc@plt>:
    2480:	f3 0f 1e fa          	endbr64 
    2484:	f2 ff 25 75 da 00 00 	bnd jmpq *0xda75(%rip)        # ff00 <_ZStlsISt11char_traitsIcEERSt13basic_ostreamIcT_ES5_PKc@GLIBCXX_3.4>
    248b:	0f 1f 44 00 00       	nopl   0x0(%rax,%rax,1)

0000000000002490 <_Znwm@plt>:
    2490:	f3 0f 1e fa          	endbr64 
    2494:	f2 ff 25 6d da 00 00 	bnd jmpq *0xda6d(%rip)        # ff08 <_Znwm@GLIBCXX_3.4>
    249b:	0f 1f 44 00 00       	nopl   0x0(%rax,%rax,1)

00000000000024a0 <_ZdlPvm@plt>:
    24a0:	f3 0f 1e fa          	endbr64 
    24a4:	f2 ff 25 65 da 00 00 	bnd jmpq *0xda65(%rip)        # ff10 <_ZdlPvm@CXXABI_1.3.9>
    24ab:	0f 1f 44 00 00       	nopl   0x0(%rax,%rax,1)

00000000000024b0 <_ZNSolsEPFRSoS_E@plt>:
    24b0:	f3 0f 1e fa          	endbr64 
    24b4:	f2 ff 25 5d da 00 00 	bnd jmpq *0xda5d(%rip)        # ff18 <_ZNSolsEPFRSoS_E@GLIBCXX_3.4>
    24bb:	0f 1f 44 00 00       	nopl   0x0(%rax,%rax,1)

00000000000024c0 <_ZNSt7__cxx1112basic_stringIcSt11char_traitsIcESaIcEE12_Alloc_hiderC1EPcRKS3_@plt>:
    24c0:	f3 0f 1e fa          	endbr64 
    24c4:	f2 ff 25 55 da 00 00 	bnd jmpq *0xda55(%rip)        # ff20 <_ZNSt7__cxx1112basic_stringIcSt11char_traitsIcESaIcEE12_Alloc_hiderC1EPcRKS3_@GLIBCXX_3.4.21>
    24cb:	0f 1f 44 00 00       	nopl   0x0(%rax,%rax,1)

00000000000024d0 <_ZNSaIcED1Ev@plt>:
    24d0:	f3 0f 1e fa          	endbr64 
    24d4:	f2 ff 25 4d da 00 00 	bnd jmpq *0xda4d(%rip)        # ff28 <_ZNSaIcED1Ev@GLIBCXX_3.4>
    24db:	0f 1f 44 00 00       	nopl   0x0(%rax,%rax,1)

00000000000024e0 <_ZNKSt7__cxx1112basic_stringIcSt11char_traitsIcESaIcEE7_M_dataEv@plt>:
    24e0:	f3 0f 1e fa          	endbr64 
    24e4:	f2 ff 25 45 da 00 00 	bnd jmpq *0xda45(%rip)        # ff30 <_ZNKSt7__cxx1112basic_stringIcSt11char_traitsIcESaIcEE7_M_dataEv@GLIBCXX_3.4.21>
    24eb:	0f 1f 44 00 00       	nopl   0x0(%rax,%rax,1)

00000000000024f0 <__stack_chk_fail@plt>:
    24f0:	f3 0f 1e fa          	endbr64 
    24f4:	f2 ff 25 3d da 00 00 	bnd jmpq *0xda3d(%rip)        # ff38 <__stack_chk_fail@GLIBC_2.4>
    24fb:	0f 1f 44 00 00       	nopl   0x0(%rax,%rax,1)

0000000000002500 <_ZNSt7__cxx1112basic_stringIcSt11char_traitsIcESaIcEE10_M_disposeEv@plt>:
    2500:	f3 0f 1e fa          	endbr64 
    2504:	f2 ff 25 35 da 00 00 	bnd jmpq *0xda35(%rip)        # ff40 <_ZNSt7__cxx1112basic_stringIcSt11char_traitsIcESaIcEE10_M_disposeEv@GLIBCXX_3.4.21>
    250b:	0f 1f 44 00 00       	nopl   0x0(%rax,%rax,1)

0000000000002510 <_ZNKSt8__detail20_Prime_rehash_policy14_M_need_rehashEmmm@plt>:
    2510:	f3 0f 1e fa          	endbr64 
    2514:	f2 ff 25 2d da 00 00 	bnd jmpq *0xda2d(%rip)        # ff48 <_ZNKSt8__detail20_Prime_rehash_policy14_M_need_rehashEmmm@GLIBCXX_3.4.18>
    251b:	0f 1f 44 00 00       	nopl   0x0(%rax,%rax,1)

0000000000002520 <strcmp@plt>:
    2520:	f3 0f 1e fa          	endbr64 
    2524:	f2 ff 25 25 da 00 00 	bnd jmpq *0xda25(%rip)        # ff50 <strcmp@GLIBC_2.2.5>
    252b:	0f 1f 44 00 00       	nopl   0x0(%rax,%rax,1)

0000000000002530 <__cxa_rethrow@plt>:
    2530:	f3 0f 1e fa          	endbr64 
    2534:	f2 ff 25 1d da 00 00 	bnd jmpq *0xda1d(%rip)        # ff58 <__cxa_rethrow@CXXABI_1.3>
    253b:	0f 1f 44 00 00       	nopl   0x0(%rax,%rax,1)

0000000000002540 <_ZNSt8ios_base4InitC1Ev@plt>:
    2540:	f3 0f 1e fa          	endbr64 
    2544:	f2 ff 25 15 da 00 00 	bnd jmpq *0xda15(%rip)        # ff60 <_ZNSt8ios_base4InitC1Ev@GLIBCXX_3.4>
    254b:	0f 1f 44 00 00       	nopl   0x0(%rax,%rax,1)

0000000000002550 <puts@plt>:
    2550:	f3 0f 1e fa          	endbr64 
    2554:	f2 ff 25 0d da 00 00 	bnd jmpq *0xda0d(%rip)        # ff68 <puts@GLIBC_2.2.5>
    255b:	0f 1f 44 00 00       	nopl   0x0(%rax,%rax,1)

0000000000002560 <_ZNSt8bad_castD2Ev@plt>:
    2560:	f3 0f 1e fa          	endbr64 
    2564:	f2 ff 25 05 da 00 00 	bnd jmpq *0xda05(%rip)        # ff70 <_ZNSt8bad_castD2Ev@GLIBCXX_3.4>
    256b:	0f 1f 44 00 00       	nopl   0x0(%rax,%rax,1)

0000000000002570 <memmove@plt>:
    2570:	f3 0f 1e fa          	endbr64 
    2574:	f2 ff 25 fd d9 00 00 	bnd jmpq *0xd9fd(%rip)        # ff78 <memmove@GLIBC_2.2.5>
    257b:	0f 1f 44 00 00       	nopl   0x0(%rax,%rax,1)

0000000000002580 <__cxa_end_catch@plt>:
    2580:	f3 0f 1e fa          	endbr64 
    2584:	f2 ff 25 f5 d9 00 00 	bnd jmpq *0xd9f5(%rip)        # ff80 <__cxa_end_catch@CXXABI_1.3>
    258b:	0f 1f 44 00 00       	nopl   0x0(%rax,%rax,1)

0000000000002590 <__cxa_throw@plt>:
    2590:	f3 0f 1e fa          	endbr64 
    2594:	f2 ff 25 ed d9 00 00 	bnd jmpq *0xd9ed(%rip)        # ff88 <__cxa_throw@CXXABI_1.3>
    259b:	0f 1f 44 00 00       	nopl   0x0(%rax,%rax,1)

00000000000025a0 <_Unwind_Resume@plt>:
    25a0:	f3 0f 1e fa          	endbr64 
    25a4:	f2 ff 25 e5 d9 00 00 	bnd jmpq *0xd9e5(%rip)        # ff90 <_Unwind_Resume@GCC_3.0>
    25ab:	0f 1f 44 00 00       	nopl   0x0(%rax,%rax,1)

00000000000025b0 <_ZNSaIcEC1Ev@plt>:
    25b0:	f3 0f 1e fa          	endbr64 
    25b4:	f2 ff 25 dd d9 00 00 	bnd jmpq *0xd9dd(%rip)        # ff98 <_ZNSaIcEC1Ev@GLIBCXX_3.4>
    25bb:	0f 1f 44 00 00       	nopl   0x0(%rax,%rax,1)

00000000000025c0 <_ZNSt7__cxx1112basic_stringIcSt11char_traitsIcESaIcEE9_M_createERmm@plt>:
    25c0:	f3 0f 1e fa          	endbr64 
    25c4:	f2 ff 25 d5 d9 00 00 	bnd jmpq *0xd9d5(%rip)        # ffa0 <_ZNSt7__cxx1112basic_stringIcSt11char_traitsIcESaIcEE9_M_createERmm@GLIBCXX_3.4.21>
    25cb:	0f 1f 44 00 00       	nopl   0x0(%rax,%rax,1)

00000000000025d0 <_ZNSt7__cxx1112basic_stringIcSt11char_traitsIcESaIcEE11_M_capacityEm@plt>:
    25d0:	f3 0f 1e fa          	endbr64 
    25d4:	f2 ff 25 cd d9 00 00 	bnd jmpq *0xd9cd(%rip)        # ffa8 <_ZNSt7__cxx1112basic_stringIcSt11char_traitsIcESaIcEE11_M_capacityEm@GLIBCXX_3.4.21>
    25db:	0f 1f 44 00 00       	nopl   0x0(%rax,%rax,1)

Disassembly of section .text:

00000000000025e0 <_start>:
    25e0:	f3 0f 1e fa          	endbr64 
    25e4:	31 ed                	xor    %ebp,%ebp
    25e6:	49 89 d1             	mov    %rdx,%r9
    25e9:	5e                   	pop    %rsi
    25ea:	48 89 e2             	mov    %rsp,%rdx
    25ed:	48 83 e4 f0          	and    $0xfffffffffffffff0,%rsp
    25f1:	50                   	push   %rax
    25f2:	54                   	push   %rsp
    25f3:	4c 8d 05 66 76 00 00 	lea    0x7666(%rip),%r8        # 9c60 <__libc_csu_fini>
    25fa:	48 8d 0d ef 75 00 00 	lea    0x75ef(%rip),%rcx        # 9bf0 <__libc_csu_init>
    2601:	48 8d 3d 5d 54 00 00 	lea    0x545d(%rip),%rdi        # 7a65 <main>
    2608:	ff 15 ca d9 00 00    	callq  *0xd9ca(%rip)        # ffd8 <__libc_start_main@GLIBC_2.2.5>
    260e:	f4                   	hlt    
    260f:	90                   	nop

0000000000002610 <deregister_tm_clones>:
    2610:	48 8d 3d 01 da 00 00 	lea    0xda01(%rip),%rdi        # 10018 <__TMC_END__>
    2617:	48 8d 05 fa d9 00 00 	lea    0xd9fa(%rip),%rax        # 10018 <__TMC_END__>
    261e:	48 39 f8             	cmp    %rdi,%rax
    2621:	74 15                	je     2638 <deregister_tm_clones+0x28>
    2623:	48 8b 05 a6 d9 00 00 	mov    0xd9a6(%rip),%rax        # ffd0 <_ITM_deregisterTMCloneTable>
    262a:	48 85 c0             	test   %rax,%rax
    262d:	74 09                	je     2638 <deregister_tm_clones+0x28>
    262f:	ff e0                	jmpq   *%rax
    2631:	0f 1f 80 00 00 00 00 	nopl   0x0(%rax)
    2638:	c3                   	retq   
    2639:	0f 1f 80 00 00 00 00 	nopl   0x0(%rax)

0000000000002640 <register_tm_clones>:
    2640:	48 8d 3d d1 d9 00 00 	lea    0xd9d1(%rip),%rdi        # 10018 <__TMC_END__>
    2647:	48 8d 35 ca d9 00 00 	lea    0xd9ca(%rip),%rsi        # 10018 <__TMC_END__>
    264e:	48 29 fe             	sub    %rdi,%rsi
    2651:	48 89 f0             	mov    %rsi,%rax
    2654:	48 c1 ee 3f          	shr    $0x3f,%rsi
    2658:	48 c1 f8 03          	sar    $0x3,%rax
    265c:	48 01 c6             	add    %rax,%rsi
    265f:	48 d1 fe             	sar    %rsi
    2662:	74 14                	je     2678 <register_tm_clones+0x38>
    2664:	48 8b 05 7d d9 00 00 	mov    0xd97d(%rip),%rax        # ffe8 <_ITM_registerTMCloneTable>
    266b:	48 85 c0             	test   %rax,%rax
    266e:	74 08                	je     2678 <register_tm_clones+0x38>
    2670:	ff e0                	jmpq   *%rax
    2672:	66 0f 1f 44 00 00    	nopw   0x0(%rax,%rax,1)
    2678:	c3                   	retq   
    2679:	0f 1f 80 00 00 00 00 	nopl   0x0(%rax)

0000000000002680 <__do_global_dtors_aux>:
    2680:	f3 0f 1e fa          	endbr64 
    2684:	80 3d c5 da 00 00 00 	cmpb   $0x0,0xdac5(%rip)        # 10150 <completed.8061>
    268b:	75 2b                	jne    26b8 <__do_global_dtors_aux+0x38>
    268d:	55                   	push   %rbp
    268e:	48 83 3d 1a d9 00 00 	cmpq   $0x0,0xd91a(%rip)        # ffb0 <__cxa_finalize@GLIBC_2.2.5>
    2695:	00 
    2696:	48 89 e5             	mov    %rsp,%rbp
    2699:	74 0c                	je     26a7 <__do_global_dtors_aux+0x27>
    269b:	48 8b 3d 66 d9 00 00 	mov    0xd966(%rip),%rdi        # 10008 <__dso_handle>
    26a2:	e8 59 fc ff ff       	callq  2300 <__cxa_finalize@plt>
    26a7:	e8 64 ff ff ff       	callq  2610 <deregister_tm_clones>
    26ac:	c6 05 9d da 00 00 01 	movb   $0x1,0xda9d(%rip)        # 10150 <completed.8061>
    26b3:	5d                   	pop    %rbp
    26b4:	c3                   	retq   
    26b5:	0f 1f 00             	nopl   (%rax)
    26b8:	c3                   	retq   
    26b9:	0f 1f 80 00 00 00 00 	nopl   0x0(%rax)

00000000000026c0 <frame_dummy>:
    26c0:	f3 0f 1e fa          	endbr64 
    26c4:	e9 77 ff ff ff       	jmpq   2640 <register_tm_clones>
    26c9:	90                   	nop

00000000000026ca <_ZL18__gthread_active_pv>:
    26ca:	55                   	push   %rbp
    26cb:	48 89 e5             	mov    %rsp,%rbp
    26ce:	ba 01 00 00 00       	mov    $0x1,%edx
    26d3:	48 8b 05 ee d8 00 00 	mov    0xd8ee(%rip),%rax        # ffc8 <__pthread_key_create>
    26da:	48 85 c0             	test   %rax,%rax
    26dd:	75 05                	jne    26e4 <_ZL18__gthread_active_pv+0x1a>
    26df:	ba 00 00 00 00       	mov    $0x0,%edx
    26e4:	0f b6 c2             	movzbl %dl,%eax
    26e7:	5d                   	pop    %rbp
    26e8:	c3                   	retq   
    26e9:	90                   	nop

00000000000026ea <_ZN15coroutine_mimic9CoroutineC1EPNS_9SchedulerESt8functionIFvS2_St3anyEES4_>:
    26ea:	f3 0f 1e fa          	endbr64 
    26ee:	55                   	push   %rbp
    26ef:	48 89 e5             	mov    %rsp,%rbp
    26f2:	53                   	push   %rbx
    26f3:	48 83 ec 38          	sub    $0x38,%rsp
    26f7:	48 89 7d d8          	mov    %rdi,-0x28(%rbp)
    26fb:	48 89 75 d0          	mov    %rsi,-0x30(%rbp)
    26ff:	48 89 55 c8          	mov    %rdx,-0x38(%rbp)
    2703:	48 89 4d c0          	mov    %rcx,-0x40(%rbp)
    2707:	64 48 8b 04 25 28 00 	mov    %fs:0x28,%rax
    270e:	00 00 
    2710:	48 89 45 e8          	mov    %rax,-0x18(%rbp)
    2714:	31 c0                	xor    %eax,%eax
    2716:	48 8b 45 d8          	mov    -0x28(%rbp),%rax
    271a:	48 8b 55 d0          	mov    -0x30(%rbp),%rdx
    271e:	48 89 10             	mov    %rdx,(%rax)
    2721:	48 8b 45 d8          	mov    -0x28(%rbp),%rax
    2725:	48 8d 50 08          	lea    0x8(%rax),%rdx
    2729:	b8 00 00 00 00       	mov    $0x0,%eax
    272e:	b9 79 00 00 00       	mov    $0x79,%ecx
    2733:	48 89 d7             	mov    %rdx,%rdi
    2736:	f3 48 ab             	rep stos %rax,%es:(%rdi)
    2739:	48 8b 45 d8          	mov    -0x28(%rbp),%rax
    273d:	48 c7 80 d0 03 00 00 	movq   $0x0,0x3d0(%rax)
    2744:	00 00 00 00 
    2748:	48 8b 45 d8          	mov    -0x28(%rbp),%rax
    274c:	48 c7 80 d8 03 00 00 	movq   $0x0,0x3d8(%rax)
    2753:	00 00 00 00 
    2757:	48 8b 45 d8          	mov    -0x28(%rbp),%rax
    275b:	48 05 e0 03 00 00    	add    $0x3e0,%rax
    2761:	be 00 00 00 00       	mov    $0x0,%esi
    2766:	48 89 c7             	mov    %rax,%rdi
    2769:	e8 4e 16 00 00       	callq  3dbc <_ZNSt10unique_ptrIhSt14default_deleteIhEEC1IS1_vEEDn>
    276e:	48 8b 45 d8          	mov    -0x28(%rbp),%rax
    2772:	c7 80 e8 03 00 00 01 	movl   $0x1,0x3e8(%rax)
    2779:	00 00 00 
    277c:	48 8b 45 d8          	mov    -0x28(%rbp),%rax
    2780:	48 8d 90 f0 03 00 00 	lea    0x3f0(%rax),%rdx
    2787:	48 8b 45 c8          	mov    -0x38(%rbp),%rax
    278b:	48 89 c6             	mov    %rax,%rsi
    278e:	48 89 d7             	mov    %rdx,%rdi
    2791:	e8 be 16 00 00       	callq  3e54 <_ZNSt8functionIFvPN15coroutine_mimic9SchedulerESt3anyEEC1ERKS5_>
    2796:	48 8b 45 d8          	mov    -0x28(%rbp),%rax
    279a:	48 8d 90 10 04 00 00 	lea    0x410(%rax),%rdx
    27a1:	48 8b 45 c0          	mov    -0x40(%rbp),%rax
    27a5:	48 89 c6             	mov    %rax,%rsi
    27a8:	48 89 d7             	mov    %rdx,%rdi
    27ab:	e8 0c 10 00 00       	callq  37bc <_ZNSt3anyC1ERKS_>
    27b0:	8b 05 9e d9 00 00    	mov    0xd99e(%rip),%eax        # 10154 <_ZN15coroutine_mimic9Coroutine3_idE>
    27b6:	48 8b 55 d8          	mov    -0x28(%rbp),%rdx
    27ba:	48 81 c2 20 04 00 00 	add    $0x420,%rdx
    27c1:	89 c6                	mov    %eax,%esi
    27c3:	48 89 d7             	mov    %rdx,%rdi
    27c6:	e8 45 0e 00 00       	callq  3610 <_ZNSt7__cxx119to_stringEi>
    27cb:	8b 05 83 d9 00 00    	mov    0xd983(%rip),%eax        # 10154 <_ZN15coroutine_mimic9Coroutine3_idE>
    27d1:	83 c0 01             	add    $0x1,%eax
    27d4:	89 05 7a d9 00 00    	mov    %eax,0xd97a(%rip)        # 10154 <_ZN15coroutine_mimic9Coroutine3_idE>
    27da:	90                   	nop
    27db:	48 8b 45 e8          	mov    -0x18(%rbp),%rax
    27df:	64 48 33 04 25 28 00 	xor    %fs:0x28,%rax
    27e6:	00 00 
    27e8:	74 61                	je     284b <_ZN15coroutine_mimic9CoroutineC1EPNS_9SchedulerESt8functionIFvS2_St3anyEES4_+0x161>
    27ea:	eb 5a                	jmp    2846 <_ZN15coroutine_mimic9CoroutineC1EPNS_9SchedulerESt8functionIFvS2_St3anyEES4_+0x15c>
    27ec:	f3 0f 1e fa          	endbr64 
    27f0:	48 89 c3             	mov    %rax,%rbx
    27f3:	48 8b 45 d8          	mov    -0x28(%rbp),%rax
    27f7:	48 05 10 04 00 00    	add    $0x410,%rax
    27fd:	48 89 c7             	mov    %rax,%rdi
    2800:	e8 43 10 00 00       	callq  3848 <_ZNSt3anyD1Ev>
    2805:	eb 07                	jmp    280e <_ZN15coroutine_mimic9CoroutineC1EPNS_9SchedulerESt8functionIFvS2_St3anyEES4_+0x124>
    2807:	f3 0f 1e fa          	endbr64 
    280b:	48 89 c3             	mov    %rax,%rbx
    280e:	48 8b 45 d8          	mov    -0x28(%rbp),%rax
    2812:	48 05 f0 03 00 00    	add    $0x3f0,%rax
    2818:	48 89 c7             	mov    %rax,%rdi
    281b:	e8 c4 10 00 00       	callq  38e4 <_ZNSt8functionIFvPN15coroutine_mimic9SchedulerESt3anyEED1Ev>
    2820:	eb 07                	jmp    2829 <_ZN15coroutine_mimic9CoroutineC1EPNS_9SchedulerESt8functionIFvS2_St3anyEES4_+0x13f>
    2822:	f3 0f 1e fa          	endbr64 
    2826:	48 89 c3             	mov    %rax,%rbx
    2829:	48 8b 45 d8          	mov    -0x28(%rbp),%rax
    282d:	48 05 e0 03 00 00    	add    $0x3e0,%rax
    2833:	48 89 c7             	mov    %rax,%rdi
    2836:	e8 af 15 00 00       	callq  3dea <_ZNSt10unique_ptrIhSt14default_deleteIhEED1Ev>
    283b:	48 89 d8             	mov    %rbx,%rax
    283e:	48 89 c7             	mov    %rax,%rdi
    2841:	e8 5a fd ff ff       	callq  25a0 <_Unwind_Resume@plt>
    2846:	e8 a5 fc ff ff       	callq  24f0 <__stack_chk_fail@plt>
    284b:	48 83 c4 38          	add    $0x38,%rsp
    284f:	5b                   	pop    %rbx
    2850:	5d                   	pop    %rbp
    2851:	c3                   	retq   

0000000000002852 <_ZN15coroutine_mimic9CoroutineD1Ev>:
    2852:	f3 0f 1e fa          	endbr64 
    2856:	55                   	push   %rbp
    2857:	48 89 e5             	mov    %rsp,%rbp
    285a:	48 83 ec 10          	sub    $0x10,%rsp
    285e:	48 89 7d f8          	mov    %rdi,-0x8(%rbp)
    2862:	48 8b 45 f8          	mov    -0x8(%rbp),%rax
    2866:	48 05 20 04 00 00    	add    $0x420,%rax
    286c:	48 89 c7             	mov    %rax,%rdi
    286f:	e8 6c fb ff ff       	callq  23e0 <_ZNSt7__cxx1112basic_stringIcSt11char_traitsIcESaIcEED1Ev@plt>
    2874:	48 8b 45 f8          	mov    -0x8(%rbp),%rax
    2878:	48 05 10 04 00 00    	add    $0x410,%rax
    287e:	48 89 c7             	mov    %rax,%rdi
    2881:	e8 c2 0f 00 00       	callq  3848 <_ZNSt3anyD1Ev>
    2886:	48 8b 45 f8          	mov    -0x8(%rbp),%rax
    288a:	48 05 f0 03 00 00    	add    $0x3f0,%rax
    2890:	48 89 c7             	mov    %rax,%rdi
    2893:	e8 4c 10 00 00       	callq  38e4 <_ZNSt8functionIFvPN15coroutine_mimic9SchedulerESt3anyEED1Ev>
    2898:	48 8b 45 f8          	mov    -0x8(%rbp),%rax
    289c:	48 05 e0 03 00 00    	add    $0x3e0,%rax
    28a2:	48 89 c7             	mov    %rax,%rdi
    28a5:	e8 40 15 00 00       	callq  3dea <_ZNSt10unique_ptrIhSt14default_deleteIhEED1Ev>
    28aa:	90                   	nop
    28ab:	c9                   	leaveq 
    28ac:	c3                   	retq   
    28ad:	90                   	nop

00000000000028ae <_ZN15coroutine_mimic9SchedulerC1Ev>:
    28ae:	f3 0f 1e fa          	endbr64 
    28b2:	55                   	push   %rbp
    28b3:	48 89 e5             	mov    %rsp,%rbp
    28b6:	53                   	push   %rbx
    28b7:	48 83 ec 28          	sub    $0x28,%rsp
    28bb:	48 89 7d d8          	mov    %rdi,-0x28(%rbp)
    28bf:	64 48 8b 04 25 28 00 	mov    %fs:0x28,%rax
    28c6:	00 00 
    28c8:	48 89 45 e8          	mov    %rax,-0x18(%rbp)
    28cc:	31 c0                	xor    %eax,%eax
    28ce:	48 8b 45 d8          	mov    -0x28(%rbp),%rax
    28d2:	48 c7 00 00 00 00 00 	movq   $0x0,(%rax)
    28d9:	48 c7 40 08 00 00 00 	movq   $0x0,0x8(%rax)
    28e0:	00 
    28e1:	48 c7 40 10 00 00 00 	movq   $0x0,0x10(%rax)
    28e8:	00 
    28e9:	48 c7 40 18 00 00 00 	movq   $0x0,0x18(%rax)
    28f0:	00 
    28f1:	48 c7 40 20 00 00 00 	movq   $0x0,0x20(%rax)
    28f8:	00 
    28f9:	48 c7 40 28 00 00 00 	movq   $0x0,0x28(%rax)
    2900:	00 
    2901:	48 c7 40 30 00 00 00 	movq   $0x0,0x30(%rax)
    2908:	00 
    2909:	48 8b 45 d8          	mov    -0x28(%rbp),%rax
    290d:	48 89 c7             	mov    %rax,%rdi
    2910:	e8 e9 10 00 00       	callq  39fe <_ZNSt13unordered_mapImSt10shared_ptrIN15coroutine_mimic9CoroutineEESt4hashImESt8equal_toImESaISt4pairIKmS3_EEEC1Ev>
    2915:	48 8b 45 d8          	mov    -0x28(%rbp),%rax
    2919:	48 8d 58 38          	lea    0x38(%rax),%rbx
    291d:	bf 00 00 20 00       	mov    $0x200000,%edi
    2922:	e8 e9 f9 ff ff       	callq  2310 <_Znam@plt>
    2927:	48 89 c6             	mov    %rax,%rsi
    292a:	48 89 df             	mov    %rbx,%rdi
    292d:	e8 6e 16 00 00       	callq  3fa0 <_ZNSt10unique_ptrIhSt14default_deleteIhEEC1IS1_vEEPh>
    2932:	48 8b 45 d8          	mov    -0x28(%rbp),%rax
    2936:	48 8d 58 40          	lea    0x40(%rax),%rbx
    293a:	48 8b 45 d8          	mov    -0x28(%rbp),%rax
    293e:	48 89 c7             	mov    %rax,%rdi
    2941:	e8 a6 15 00 00       	callq  3eec <_ZNSt13unordered_mapImSt10shared_ptrIN15coroutine_mimic9CoroutineEESt4hashImESt8equal_toImESaISt4pairIKmS3_EEE3endEv>
    2946:	48 89 45 e0          	mov    %rax,-0x20(%rbp)
    294a:	48 8d 45 e0          	lea    -0x20(%rbp),%rax
    294e:	48 89 c6             	mov    %rax,%rsi
    2951:	48 89 df             	mov    %rbx,%rdi
    2954:	e8 71 16 00 00       	callq  3fca <_ZNSt8__detail20_Node_const_iteratorISt4pairIKmSt10shared_ptrIN15coroutine_mimic9CoroutineEEELb0ELb0EEC1ERKNS_14_Node_iteratorIS7_Lb0ELb0EEE>
    2959:	48 8b 45 d8          	mov    -0x28(%rbp),%rax
    295d:	48 8d 50 48          	lea    0x48(%rax),%rdx
    2961:	b8 00 00 00 00       	mov    $0x0,%eax
    2966:	b9 79 00 00 00       	mov    $0x79,%ecx
    296b:	48 89 d7             	mov    %rdx,%rdi
    296e:	f3 48 ab             	rep stos %rax,%es:(%rdi)
    2971:	48 8b 45 d8          	mov    -0x28(%rbp),%rax
    2975:	48 c7 80 10 04 00 00 	movq   $0x0,0x410(%rax)
    297c:	00 00 00 00 
    2980:	48 8b 45 d8          	mov    -0x28(%rbp),%rax
    2984:	48 83 c0 38          	add    $0x38,%rax
    2988:	48 89 c7             	mov    %rax,%rdi
    298b:	e8 7a 15 00 00       	callq  3f0a <_ZNKSt10unique_ptrIhSt14default_deleteIhEE3getEv>
    2990:	48 05 00 00 20 00    	add    $0x200000,%rax
    2996:	48 89 c2             	mov    %rax,%rdx
    2999:	48 8b 45 d8          	mov    -0x28(%rbp),%rax
    299d:	48 89 90 18 04 00 00 	mov    %rdx,0x418(%rax)
    29a4:	90                   	nop
    29a5:	48 8b 45 e8          	mov    -0x18(%rbp),%rax
    29a9:	64 48 33 04 25 28 00 	xor    %fs:0x28,%rax
    29b0:	00 00 
    29b2:	74 25                	je     29d9 <_ZN15coroutine_mimic9SchedulerC1Ev+0x12b>
    29b4:	eb 1e                	jmp    29d4 <_ZN15coroutine_mimic9SchedulerC1Ev+0x126>
    29b6:	f3 0f 1e fa          	endbr64 
    29ba:	48 89 c3             	mov    %rax,%rbx
    29bd:	48 8b 45 d8          	mov    -0x28(%rbp),%rax
    29c1:	48 89 c7             	mov    %rax,%rdi
    29c4:	e8 55 10 00 00       	callq  3a1e <_ZNSt13unordered_mapImSt10shared_ptrIN15coroutine_mimic9CoroutineEESt4hashImESt8equal_toImESaISt4pairIKmS3_EEED1Ev>
    29c9:	48 89 d8             	mov    %rbx,%rax
    29cc:	48 89 c7             	mov    %rax,%rdi
    29cf:	e8 cc fb ff ff       	callq  25a0 <_Unwind_Resume@plt>
    29d4:	e8 17 fb ff ff       	callq  24f0 <__stack_chk_fail@plt>
    29d9:	48 83 c4 28          	add    $0x28,%rsp
    29dd:	5b                   	pop    %rbx
    29de:	5d                   	pop    %rbp
    29df:	c3                   	retq   

00000000000029e0 <_ZN15coroutine_mimic9SchedulerD1Ev>:
    29e0:	f3 0f 1e fa          	endbr64 
    29e4:	55                   	push   %rbp
    29e5:	48 89 e5             	mov    %rsp,%rbp
    29e8:	48 83 ec 10          	sub    $0x10,%rsp
    29ec:	48 89 7d f8          	mov    %rdi,-0x8(%rbp)
    29f0:	48 8b 45 f8          	mov    -0x8(%rbp),%rax
    29f4:	48 89 c7             	mov    %rax,%rdi
    29f7:	e8 fc 15 00 00       	callq  3ff8 <_ZNSt13unordered_mapImSt10shared_ptrIN15coroutine_mimic9CoroutineEESt4hashImESt8equal_toImESaISt4pairIKmS3_EEE5clearEv>
    29fc:	48 8b 45 f8          	mov    -0x8(%rbp),%rax
    2a00:	48 83 c0 38          	add    $0x38,%rax
    2a04:	48 89 c7             	mov    %rax,%rdi
    2a07:	e8 de 13 00 00       	callq  3dea <_ZNSt10unique_ptrIhSt14default_deleteIhEED1Ev>
    2a0c:	48 8b 45 f8          	mov    -0x8(%rbp),%rax
    2a10:	48 89 c7             	mov    %rax,%rdi
    2a13:	e8 06 10 00 00       	callq  3a1e <_ZNSt13unordered_mapImSt10shared_ptrIN15coroutine_mimic9CoroutineEESt4hashImESt8equal_toImESaISt4pairIKmS3_EEED1Ev>
    2a18:	90                   	nop
    2a19:	c9                   	leaveq 
    2a1a:	c3                   	retq   
    2a1b:	90                   	nop

0000000000002a1c <_ZN15coroutine_mimic9Scheduler15CoroutineCreateESt8functionIFvPS0_St3anyEES3_>:
    2a1c:	f3 0f 1e fa          	endbr64 
    2a20:	55                   	push   %rbp
    2a21:	48 89 e5             	mov    %rsp,%rbp
    2a24:	53                   	push   %rbx
    2a25:	48 83 ec 58          	sub    $0x58,%rsp
    2a29:	48 89 7d b8          	mov    %rdi,-0x48(%rbp)
    2a2d:	48 89 75 b0          	mov    %rsi,-0x50(%rbp)
    2a31:	48 89 55 a8          	mov    %rdx,-0x58(%rbp)
    2a35:	64 48 8b 04 25 28 00 	mov    %fs:0x28,%rax
    2a3c:	00 00 
    2a3e:	48 89 45 e8          	mov    %rax,-0x18(%rbp)
    2a42:	31 c0                	xor    %eax,%eax
    2a44:	48 8b 45 b8          	mov    -0x48(%rbp),%rax
    2a48:	48 8b 80 10 04 00 00 	mov    0x410(%rax),%rax
    2a4f:	48 8d 48 01          	lea    0x1(%rax),%rcx
    2a53:	48 8b 55 b8          	mov    -0x48(%rbp),%rdx
    2a57:	48 89 8a 10 04 00 00 	mov    %rcx,0x410(%rdx)
    2a5e:	48 89 45 c0          	mov    %rax,-0x40(%rbp)
    2a62:	48 8b 45 b8          	mov    -0x48(%rbp),%rax
    2a66:	48 89 45 c8          	mov    %rax,-0x38(%rbp)
    2a6a:	48 8d 45 d0          	lea    -0x30(%rbp),%rax
    2a6e:	48 8b 4d a8          	mov    -0x58(%rbp),%rcx
    2a72:	48 8b 55 b0          	mov    -0x50(%rbp),%rdx
    2a76:	48 8d 75 c8          	lea    -0x38(%rbp),%rsi
    2a7a:	48 89 c7             	mov    %rax,%rdi
    2a7d:	e8 95 15 00 00       	callq  4017 <_ZSt11make_sharedIN15coroutine_mimic9CoroutineEJPNS0_9SchedulerERSt8functionIFvS3_St3anyEERS5_EESt10shared_ptrIT_EDpOT0_>
    2a82:	48 8b 45 b8          	mov    -0x48(%rbp),%rax
    2a86:	48 8d 55 c0          	lea    -0x40(%rbp),%rdx
    2a8a:	48 89 d6             	mov    %rdx,%rsi
    2a8d:	48 89 c7             	mov    %rax,%rdi
    2a90:	e8 81 16 00 00       	callq  4116 <_ZNSt13unordered_mapImSt10shared_ptrIN15coroutine_mimic9CoroutineEESt4hashImESt8equal_toImESaISt4pairIKmS3_EEEixERS9_>
    2a95:	48 89 c2             	mov    %rax,%rdx
    2a98:	48 8d 45 d0          	lea    -0x30(%rbp),%rax
    2a9c:	48 89 c6             	mov    %rax,%rsi
    2a9f:	48 89 d7             	mov    %rdx,%rdi
    2aa2:	e8 1f 10 00 00       	callq  3ac6 <_ZNSt10shared_ptrIN15coroutine_mimic9CoroutineEEaSERKS2_>
    2aa7:	48 8b 5d c0          	mov    -0x40(%rbp),%rbx
    2aab:	48 8d 45 d0          	lea    -0x30(%rbp),%rax
    2aaf:	48 89 c7             	mov    %rax,%rdi
    2ab2:	e8 ab 0f 00 00       	callq  3a62 <_ZNSt10shared_ptrIN15coroutine_mimic9CoroutineEED1Ev>
    2ab7:	48 89 d8             	mov    %rbx,%rax
    2aba:	48 8b 5d e8          	mov    -0x18(%rbp),%rbx
    2abe:	64 48 33 1c 25 28 00 	xor    %fs:0x28,%rbx
    2ac5:	00 00 
    2ac7:	74 25                	je     2aee <_ZN15coroutine_mimic9Scheduler15CoroutineCreateESt8functionIFvPS0_St3anyEES3_+0xd2>
    2ac9:	eb 1e                	jmp    2ae9 <_ZN15coroutine_mimic9Scheduler15CoroutineCreateESt8functionIFvPS0_St3anyEES3_+0xcd>
    2acb:	f3 0f 1e fa          	endbr64 
    2acf:	48 89 c3             	mov    %rax,%rbx
    2ad2:	48 8d 45 d0          	lea    -0x30(%rbp),%rax
    2ad6:	48 89 c7             	mov    %rax,%rdi
    2ad9:	e8 84 0f 00 00       	callq  3a62 <_ZNSt10shared_ptrIN15coroutine_mimic9CoroutineEED1Ev>
    2ade:	48 89 d8             	mov    %rbx,%rax
    2ae1:	48 89 c7             	mov    %rax,%rdi
    2ae4:	e8 b7 fa ff ff       	callq  25a0 <_Unwind_Resume@plt>
    2ae9:	e8 02 fa ff ff       	callq  24f0 <__stack_chk_fail@plt>
    2aee:	48 83 c4 58          	add    $0x58,%rsp
    2af2:	5b                   	pop    %rbx
    2af3:	5d                   	pop    %rbp
    2af4:	c3                   	retq   
    2af5:	90                   	nop

0000000000002af6 <_ZN15coroutine_mimic9Scheduler15CoroutineResumeEm>:
    2af6:	f3 0f 1e fa          	endbr64 
    2afa:	55                   	push   %rbp
    2afb:	48 89 e5             	mov    %rsp,%rbp
    2afe:	41 55                	push   %r13
    2b00:	41 54                	push   %r12
    2b02:	53                   	push   %rbx
    2b03:	48 83 ec 78          	sub    $0x78,%rsp
    2b07:	48 89 bd 78 ff ff ff 	mov    %rdi,-0x88(%rbp)
    2b0e:	48 89 b5 70 ff ff ff 	mov    %rsi,-0x90(%rbp)
    2b15:	64 48 8b 04 25 28 00 	mov    %fs:0x28,%rax
    2b1c:	00 00 
    2b1e:	48 89 45 d8          	mov    %rax,-0x28(%rbp)
    2b22:	31 c0                	xor    %eax,%eax
    2b24:	48 8b 85 78 ff ff ff 	mov    -0x88(%rbp),%rax
    2b2b:	48 89 c7             	mov    %rax,%rdi
    2b2e:	e8 b9 13 00 00       	callq  3eec <_ZNSt13unordered_mapImSt10shared_ptrIN15coroutine_mimic9CoroutineEESt4hashImESt8equal_toImESaISt4pairIKmS3_EEE3endEv>
    2b33:	48 89 45 98          	mov    %rax,-0x68(%rbp)
    2b37:	48 8b 85 78 ff ff ff 	mov    -0x88(%rbp),%rax
    2b3e:	48 8d 95 70 ff ff ff 	lea    -0x90(%rbp),%rdx
    2b45:	48 89 d6             	mov    %rdx,%rsi
    2b48:	48 89 c7             	mov    %rax,%rdi
    2b4b:	e8 5c 16 00 00       	callq  41ac <_ZNSt13unordered_mapImSt10shared_ptrIN15coroutine_mimic9CoroutineEESt4hashImESt8equal_toImESaISt4pairIKmS3_EEE4findERS9_>
    2b50:	48 89 45 90          	mov    %rax,-0x70(%rbp)
    2b54:	48 8d 55 98          	lea    -0x68(%rbp),%rdx
    2b58:	48 8d 45 90          	lea    -0x70(%rbp),%rax
    2b5c:	48 89 d6             	mov    %rdx,%rsi
    2b5f:	48 89 c7             	mov    %rax,%rdi
    2b62:	e8 6e 16 00 00       	callq  41d5 <_ZNSt8__detailneISt4pairIKmSt10shared_ptrIN15coroutine_mimic9CoroutineEEELb0EEEbRKNS_19_Node_iterator_baseIT_XT0_EEESC_>
    2b67:	84 c0                	test   %al,%al
    2b69:	75 1f                	jne    2b8a <_ZN15coroutine_mimic9Scheduler15CoroutineResumeEm+0x94>
    2b6b:	48 8d 0d a6 74 00 00 	lea    0x74a6(%rip),%rcx        # a018 <_ZN6__pstl9execution2v1L5unseqE+0x6>
    2b72:	ba 3d 00 00 00       	mov    $0x3d,%edx
    2b77:	48 8d 35 e9 74 00 00 	lea    0x74e9(%rip),%rsi        # a067 <_ZN6__pstl9execution2v1L5unseqE+0x55>
    2b7e:	48 8d 3d f0 74 00 00 	lea    0x74f0(%rip),%rdi        # a075 <_ZN6__pstl9execution2v1L5unseqE+0x63>
    2b85:	e8 66 f8 ff ff       	callq  23f0 <__assert_fail@plt>
    2b8a:	48 8b 85 78 ff ff ff 	mov    -0x88(%rbp),%rax
    2b91:	48 8d 95 70 ff ff ff 	lea    -0x90(%rbp),%rdx
    2b98:	48 89 d6             	mov    %rdx,%rsi
    2b9b:	48 89 c7             	mov    %rax,%rdi
    2b9e:	e8 73 15 00 00       	callq  4116 <_ZNSt13unordered_mapImSt10shared_ptrIN15coroutine_mimic9CoroutineEESt4hashImESt8equal_toImESaISt4pairIKmS3_EEEixERS9_>
    2ba3:	48 89 c2             	mov    %rax,%rdx
    2ba6:	48 8d 45 c0          	lea    -0x40(%rbp),%rax
    2baa:	48 89 d6             	mov    %rdx,%rsi
    2bad:	48 89 c7             	mov    %rax,%rdi
    2bb0:	e8 7f 0f 00 00       	callq  3b34 <_ZNSt10shared_ptrIN15coroutine_mimic9CoroutineEEC1ERKS2_>
    2bb5:	48 8d 45 c0          	lea    -0x40(%rbp),%rax
    2bb9:	48 89 c7             	mov    %rax,%rdi
    2bbc:	e8 7b 16 00 00       	callq  423c <_ZNKSt19__shared_ptr_accessIN15coroutine_mimic9CoroutineELN9__gnu_cxx12_Lock_policyE2ELb0ELb0EEptEv>
    2bc1:	48 89 c7             	mov    %rax,%rdi
    2bc4:	e8 03 0d 00 00       	callq  38cc <_ZN15coroutine_mimic9Coroutine8getStateEv>
    2bc9:	89 45 84             	mov    %eax,-0x7c(%rbp)
    2bcc:	8b 45 84             	mov    -0x7c(%rbp),%eax
    2bcf:	83 f8 01             	cmp    $0x1,%eax
    2bd2:	74 0e                	je     2be2 <_ZN15coroutine_mimic9Scheduler15CoroutineResumeEm+0xec>
    2bd4:	83 f8 03             	cmp    $0x3,%eax
    2bd7:	0f 84 43 01 00 00    	je     2d20 <_ZN15coroutine_mimic9Scheduler15CoroutineResumeEm+0x22a>
    2bdd:	e9 35 02 00 00       	jmpq   2e17 <_ZN15coroutine_mimic9Scheduler15CoroutineResumeEm+0x321>
    2be2:	48 8d 45 c0          	lea    -0x40(%rbp),%rax
    2be6:	48 89 c7             	mov    %rax,%rdi
    2be9:	e8 4e 16 00 00       	callq  423c <_ZNKSt19__shared_ptr_accessIN15coroutine_mimic9CoroutineELN9__gnu_cxx12_Lock_policyE2ELb0ELb0EEptEv>
    2bee:	48 83 c0 08          	add    $0x8,%rax
    2bf2:	48 89 c7             	mov    %rax,%rdi
    2bf5:	e8 06 f8 ff ff       	callq  2400 <getcontext@plt>
    2bfa:	f3 0f 1e fa          	endbr64 
    2bfe:	48 8b 85 78 ff ff ff 	mov    -0x88(%rbp),%rax
    2c05:	48 83 c0 38          	add    $0x38,%rax
    2c09:	48 89 c7             	mov    %rax,%rdi
    2c0c:	e8 f9 12 00 00       	callq  3f0a <_ZNKSt10unique_ptrIhSt14default_deleteIhEE3getEv>
    2c11:	48 89 c3             	mov    %rax,%rbx
    2c14:	48 8d 45 c0          	lea    -0x40(%rbp),%rax
    2c18:	48 89 c7             	mov    %rax,%rdi
    2c1b:	e8 1c 16 00 00       	callq  423c <_ZNKSt19__shared_ptr_accessIN15coroutine_mimic9CoroutineELN9__gnu_cxx12_Lock_policyE2ELb0ELb0EEptEv>
    2c20:	48 89 58 18          	mov    %rbx,0x18(%rax)
    2c24:	48 8d 45 c0          	lea    -0x40(%rbp),%rax
    2c28:	48 89 c7             	mov    %rax,%rdi
    2c2b:	e8 0c 16 00 00       	callq  423c <_ZNKSt19__shared_ptr_accessIN15coroutine_mimic9CoroutineELN9__gnu_cxx12_Lock_policyE2ELb0ELb0EEptEv>
    2c30:	48 c7 40 28 00 00 20 	movq   $0x200000,0x28(%rax)
    2c37:	00 
    2c38:	48 8b 85 78 ff ff ff 	mov    -0x88(%rbp),%rax
    2c3f:	48 8d 58 48          	lea    0x48(%rax),%rbx
    2c43:	48 8d 45 c0          	lea    -0x40(%rbp),%rax
    2c47:	48 89 c7             	mov    %rax,%rdi
    2c4a:	e8 ed 15 00 00       	callq  423c <_ZNKSt19__shared_ptr_accessIN15coroutine_mimic9CoroutineELN9__gnu_cxx12_Lock_policyE2ELb0ELb0EEptEv>
    2c4f:	48 89 58 10          	mov    %rbx,0x10(%rax)
    2c53:	48 8d 45 c0          	lea    -0x40(%rbp),%rax
    2c57:	48 89 c7             	mov    %rax,%rdi
    2c5a:	e8 dd 15 00 00       	callq  423c <_ZNKSt19__shared_ptr_accessIN15coroutine_mimic9CoroutineELN9__gnu_cxx12_Lock_policyE2ELb0ELb0EEptEv>
    2c5f:	c7 80 e8 03 00 00 02 	movl   $0x2,0x3e8(%rax)
    2c66:	00 00 00 
    2c69:	48 8b 85 78 ff ff ff 	mov    -0x88(%rbp),%rax
    2c70:	48 8d 95 70 ff ff ff 	lea    -0x90(%rbp),%rdx
    2c77:	48 89 d6             	mov    %rdx,%rsi
    2c7a:	48 89 c7             	mov    %rax,%rdi
    2c7d:	e8 2a 15 00 00       	callq  41ac <_ZNSt13unordered_mapImSt10shared_ptrIN15coroutine_mimic9CoroutineEESt4hashImESt8equal_toImESaISt4pairIKmS3_EEE4findERS9_>
    2c82:	48 89 45 a0          	mov    %rax,-0x60(%rbp)
    2c86:	48 8d 55 a0          	lea    -0x60(%rbp),%rdx
    2c8a:	48 8d 45 a8          	lea    -0x58(%rbp),%rax
    2c8e:	48 89 d6             	mov    %rdx,%rsi
    2c91:	48 89 c7             	mov    %rax,%rdi
    2c94:	e8 31 13 00 00       	callq  3fca <_ZNSt8__detail20_Node_const_iteratorISt4pairIKmSt10shared_ptrIN15coroutine_mimic9CoroutineEEELb0ELb0EEC1ERKNS_14_Node_iteratorIS7_Lb0ELb0EEE>
    2c99:	48 8b 85 78 ff ff ff 	mov    -0x88(%rbp),%rax
    2ca0:	48 8b 55 a8          	mov    -0x58(%rbp),%rdx
    2ca4:	48 89 50 40          	mov    %rdx,0x40(%rax)
    2ca8:	48 8b 85 78 ff ff ff 	mov    -0x88(%rbp),%rax
    2caf:	89 45 88             	mov    %eax,-0x78(%rbp)
    2cb2:	48 8b 85 78 ff ff ff 	mov    -0x88(%rbp),%rax
    2cb9:	48 c1 e8 20          	shr    $0x20,%rax
    2cbd:	89 45 8c             	mov    %eax,-0x74(%rbp)
    2cc0:	48 8d 45 c0          	lea    -0x40(%rbp),%rax
    2cc4:	48 89 c7             	mov    %rax,%rdi
    2cc7:	e8 70 15 00 00       	callq  423c <_ZNKSt19__shared_ptr_accessIN15coroutine_mimic9CoroutineELN9__gnu_cxx12_Lock_policyE2ELb0ELb0EEptEv>
    2ccc:	48 8d 78 08          	lea    0x8(%rax),%rdi
    2cd0:	8b 55 8c             	mov    -0x74(%rbp),%edx
    2cd3:	8b 45 88             	mov    -0x78(%rbp),%eax
    2cd6:	41 89 d0             	mov    %edx,%r8d
    2cd9:	89 c1                	mov    %eax,%ecx
    2cdb:	ba 02 00 00 00       	mov    $0x2,%edx
    2ce0:	48 8d 35 27 05 00 00 	lea    0x527(%rip),%rsi        # 320e <_ZN15coroutine_mimic9Scheduler8ScheduleEjj>
    2ce7:	b8 00 00 00 00       	mov    $0x0,%eax
    2cec:	e8 6f f6 ff ff       	callq  2360 <makecontext@plt>
    2cf1:	48 8d 45 c0          	lea    -0x40(%rbp),%rax
    2cf5:	48 89 c7             	mov    %rax,%rdi
    2cf8:	e8 3f 15 00 00       	callq  423c <_ZNKSt19__shared_ptr_accessIN15coroutine_mimic9CoroutineELN9__gnu_cxx12_Lock_policyE2ELb0ELb0EEptEv>
    2cfd:	48 8d 50 08          	lea    0x8(%rax),%rdx
    2d01:	48 8b 85 78 ff ff ff 	mov    -0x88(%rbp),%rax
    2d08:	48 83 c0 48          	add    $0x48,%rax
    2d0c:	48 89 d6             	mov    %rdx,%rsi
    2d0f:	48 89 c7             	mov    %rax,%rdi
    2d12:	e8 29 f6 ff ff       	callq  2340 <swapcontext@plt>
    2d17:	f3 0f 1e fa          	endbr64 
    2d1b:	e9 f8 00 00 00       	jmpq   2e18 <_ZN15coroutine_mimic9Scheduler15CoroutineResumeEm+0x322>
    2d20:	48 8d 45 c0          	lea    -0x40(%rbp),%rax
    2d24:	48 89 c7             	mov    %rax,%rdi
    2d27:	e8 10 15 00 00       	callq  423c <_ZNKSt19__shared_ptr_accessIN15coroutine_mimic9CoroutineELN9__gnu_cxx12_Lock_policyE2ELb0ELb0EEptEv>
    2d2c:	48 8b 80 d0 03 00 00 	mov    0x3d0(%rax),%rax
    2d33:	49 89 c5             	mov    %rax,%r13
    2d36:	48 8d 45 c0          	lea    -0x40(%rbp),%rax
    2d3a:	48 89 c7             	mov    %rax,%rdi
    2d3d:	e8 fa 14 00 00       	callq  423c <_ZNKSt19__shared_ptr_accessIN15coroutine_mimic9CoroutineELN9__gnu_cxx12_Lock_policyE2ELb0ELb0EEptEv>
    2d42:	48 05 e0 03 00 00    	add    $0x3e0,%rax
    2d48:	48 89 c7             	mov    %rax,%rdi
    2d4b:	e8 ba 11 00 00       	callq  3f0a <_ZNKSt10unique_ptrIhSt14default_deleteIhEE3getEv>
    2d50:	49 89 c4             	mov    %rax,%r12
    2d53:	48 8b 85 78 ff ff ff 	mov    -0x88(%rbp),%rax
    2d5a:	48 83 c0 38          	add    $0x38,%rax
    2d5e:	48 89 c7             	mov    %rax,%rdi
    2d61:	e8 a4 11 00 00       	callq  3f0a <_ZNKSt10unique_ptrIhSt14default_deleteIhEE3getEv>
    2d66:	48 89 c3             	mov    %rax,%rbx
    2d69:	48 8d 45 c0          	lea    -0x40(%rbp),%rax
    2d6d:	48 89 c7             	mov    %rax,%rdi
    2d70:	e8 c7 14 00 00       	callq  423c <_ZNKSt19__shared_ptr_accessIN15coroutine_mimic9CoroutineELN9__gnu_cxx12_Lock_policyE2ELb0ELb0EEptEv>
    2d75:	48 8b 80 d0 03 00 00 	mov    0x3d0(%rax),%rax
    2d7c:	ba 00 00 20 00       	mov    $0x200000,%edx
    2d81:	48 29 c2             	sub    %rax,%rdx
    2d84:	48 89 d0             	mov    %rdx,%rax
    2d87:	48 01 d8             	add    %rbx,%rax
    2d8a:	4c 89 ea             	mov    %r13,%rdx
    2d8d:	4c 89 e6             	mov    %r12,%rsi
    2d90:	48 89 c7             	mov    %rax,%rdi
    2d93:	e8 a8 f6 ff ff       	callq  2440 <memcpy@plt>
    2d98:	48 8b 85 78 ff ff ff 	mov    -0x88(%rbp),%rax
    2d9f:	48 8d 95 70 ff ff ff 	lea    -0x90(%rbp),%rdx
    2da6:	48 89 d6             	mov    %rdx,%rsi
    2da9:	48 89 c7             	mov    %rax,%rdi
    2dac:	e8 fb 13 00 00       	callq  41ac <_ZNSt13unordered_mapImSt10shared_ptrIN15coroutine_mimic9CoroutineEESt4hashImESt8equal_toImESaISt4pairIKmS3_EEE4findERS9_>
    2db1:	48 89 45 b0          	mov    %rax,-0x50(%rbp)
    2db5:	48 8d 55 b0          	lea    -0x50(%rbp),%rdx
    2db9:	48 8d 45 b8          	lea    -0x48(%rbp),%rax
    2dbd:	48 89 d6             	mov    %rdx,%rsi
    2dc0:	48 89 c7             	mov    %rax,%rdi
    2dc3:	e8 02 12 00 00       	callq  3fca <_ZNSt8__detail20_Node_const_iteratorISt4pairIKmSt10shared_ptrIN15coroutine_mimic9CoroutineEEELb0ELb0EEC1ERKNS_14_Node_iteratorIS7_Lb0ELb0EEE>
    2dc8:	48 8b 85 78 ff ff ff 	mov    -0x88(%rbp),%rax
    2dcf:	48 8b 55 b8          	mov    -0x48(%rbp),%rdx
    2dd3:	48 89 50 40          	mov    %rdx,0x40(%rax)
    2dd7:	48 8d 45 c0          	lea    -0x40(%rbp),%rax
    2ddb:	48 89 c7             	mov    %rax,%rdi
    2dde:	e8 59 14 00 00       	callq  423c <_ZNKSt19__shared_ptr_accessIN15coroutine_mimic9CoroutineELN9__gnu_cxx12_Lock_policyE2ELb0ELb0EEptEv>
    2de3:	c7 80 e8 03 00 00 02 	movl   $0x2,0x3e8(%rax)
    2dea:	00 00 00 
    2ded:	48 8d 45 c0          	lea    -0x40(%rbp),%rax
    2df1:	48 89 c7             	mov    %rax,%rdi
    2df4:	e8 43 14 00 00       	callq  423c <_ZNKSt19__shared_ptr_accessIN15coroutine_mimic9CoroutineELN9__gnu_cxx12_Lock_policyE2ELb0ELb0EEptEv>
    2df9:	48 8d 50 08          	lea    0x8(%rax),%rdx
    2dfd:	48 8b 85 78 ff ff ff 	mov    -0x88(%rbp),%rax
    2e04:	48 83 c0 48          	add    $0x48,%rax
    2e08:	48 89 d6             	mov    %rdx,%rsi
    2e0b:	48 89 c7             	mov    %rax,%rdi
    2e0e:	e8 2d f5 ff ff       	callq  2340 <swapcontext@plt>
    2e13:	f3 0f 1e fa          	endbr64 
    2e17:	90                   	nop
    2e18:	48 8d 45 c0          	lea    -0x40(%rbp),%rax
    2e1c:	48 89 c7             	mov    %rax,%rdi
    2e1f:	e8 3e 0c 00 00       	callq  3a62 <_ZNSt10shared_ptrIN15coroutine_mimic9CoroutineEED1Ev>
    2e24:	90                   	nop
    2e25:	48 8b 45 d8          	mov    -0x28(%rbp),%rax
    2e29:	64 48 33 04 25 28 00 	xor    %fs:0x28,%rax
    2e30:	00 00 
    2e32:	74 25                	je     2e59 <_ZN15coroutine_mimic9Scheduler15CoroutineResumeEm+0x363>
    2e34:	eb 1e                	jmp    2e54 <_ZN15coroutine_mimic9Scheduler15CoroutineResumeEm+0x35e>
    2e36:	f3 0f 1e fa          	endbr64 
    2e3a:	48 89 c3             	mov    %rax,%rbx
    2e3d:	48 8d 45 c0          	lea    -0x40(%rbp),%rax
    2e41:	48 89 c7             	mov    %rax,%rdi
    2e44:	e8 19 0c 00 00       	callq  3a62 <_ZNSt10shared_ptrIN15coroutine_mimic9CoroutineEED1Ev>
    2e49:	48 89 d8             	mov    %rbx,%rax
    2e4c:	48 89 c7             	mov    %rax,%rdi
    2e4f:	e8 4c f7 ff ff       	callq  25a0 <_Unwind_Resume@plt>
    2e54:	e8 97 f6 ff ff       	callq  24f0 <__stack_chk_fail@plt>
    2e59:	48 83 c4 78          	add    $0x78,%rsp
    2e5d:	5b                   	pop    %rbx
    2e5e:	41 5c                	pop    %r12
    2e60:	41 5d                	pop    %r13
    2e62:	5d                   	pop    %rbp
    2e63:	c3                   	retq   

0000000000002e64 <_ZN15coroutine_mimic9Scheduler14CoroutineYieldEv>:
    2e64:	f3 0f 1e fa          	endbr64 
    2e68:	55                   	push   %rbp
    2e69:	48 89 e5             	mov    %rsp,%rbp
    2e6c:	53                   	push   %rbx
    2e6d:	48 83 ec 58          	sub    $0x58,%rsp
    2e71:	48 89 7d a8          	mov    %rdi,-0x58(%rbp)
    2e75:	64 48 8b 04 25 28 00 	mov    %fs:0x28,%rax
    2e7c:	00 00 
    2e7e:	48 89 45 e8          	mov    %rax,-0x18(%rbp)
    2e82:	31 c0                	xor    %eax,%eax
    2e84:	48 8b 45 a8          	mov    -0x58(%rbp),%rax
    2e88:	48 89 c7             	mov    %rax,%rdi
    2e8b:	e8 5c 10 00 00       	callq  3eec <_ZNSt13unordered_mapImSt10shared_ptrIN15coroutine_mimic9CoroutineEESt4hashImESt8equal_toImESaISt4pairIKmS3_EEE3endEv>
    2e90:	48 89 45 d0          	mov    %rax,-0x30(%rbp)
    2e94:	48 8b 45 a8          	mov    -0x58(%rbp),%rax
    2e98:	48 8d 50 40          	lea    0x40(%rax),%rdx
    2e9c:	48 8d 45 d0          	lea    -0x30(%rbp),%rax
    2ea0:	48 89 c6             	mov    %rax,%rsi
    2ea3:	48 89 d7             	mov    %rdx,%rdi
    2ea6:	e8 2a 13 00 00       	callq  41d5 <_ZNSt8__detailneISt4pairIKmSt10shared_ptrIN15coroutine_mimic9CoroutineEEELb0EEEbRKNS_19_Node_iterator_baseIT_XT0_EEESC_>
    2eab:	84 c0                	test   %al,%al
    2ead:	75 1f                	jne    2ece <_ZN15coroutine_mimic9Scheduler14CoroutineYieldEv+0x6a>
    2eaf:	48 8d 0d da 71 00 00 	lea    0x71da(%rip),%rcx        # a090 <_ZN6__pstl9execution2v1L5unseqE+0x7e>
    2eb6:	ba 74 00 00 00       	mov    $0x74,%edx
    2ebb:	48 8d 35 a5 71 00 00 	lea    0x71a5(%rip),%rsi        # a067 <_ZN6__pstl9execution2v1L5unseqE+0x55>
    2ec2:	48 8d 3d ff 71 00 00 	lea    0x71ff(%rip),%rdi        # a0c8 <_ZN6__pstl9execution2v1L5unseqE+0xb6>
    2ec9:	e8 22 f5 ff ff       	callq  23f0 <__assert_fail@plt>
    2ece:	48 8b 45 a8          	mov    -0x58(%rbp),%rax
    2ed2:	48 83 c0 40          	add    $0x40,%rax
    2ed6:	48 89 c7             	mov    %rax,%rdi
    2ed9:	e8 7c 13 00 00       	callq  425a <_ZNKSt8__detail20_Node_const_iteratorISt4pairIKmSt10shared_ptrIN15coroutine_mimic9CoroutineEEELb0ELb0EEptEv>
    2ede:	48 8d 50 08          	lea    0x8(%rax),%rdx
    2ee2:	48 8d 45 c0          	lea    -0x40(%rbp),%rax
    2ee6:	48 89 d6             	mov    %rdx,%rsi
    2ee9:	48 89 c7             	mov    %rax,%rdi
    2eec:	e8 43 0c 00 00       	callq  3b34 <_ZNSt10shared_ptrIN15coroutine_mimic9CoroutineEEC1ERKS2_>
    2ef1:	48 8d 55 c0          	lea    -0x40(%rbp),%rdx
    2ef5:	48 8d 45 d0          	lea    -0x30(%rbp),%rax
    2ef9:	48 89 d6             	mov    %rdx,%rsi
    2efc:	48 89 c7             	mov    %rax,%rdi
    2eff:	e8 30 0c 00 00       	callq  3b34 <_ZNSt10shared_ptrIN15coroutine_mimic9CoroutineEEC1ERKS2_>
    2f04:	48 8d 55 d0          	lea    -0x30(%rbp),%rdx
    2f08:	48 8b 45 a8          	mov    -0x58(%rbp),%rax
    2f0c:	48 89 d6             	mov    %rdx,%rsi
    2f0f:	48 89 c7             	mov    %rax,%rdi
    2f12:	e8 cd 00 00 00       	callq  2fe4 <_ZN15coroutine_mimic9Scheduler16SaveCurrentStackESt10shared_ptrINS_9CoroutineEE>
    2f17:	48 8d 45 d0          	lea    -0x30(%rbp),%rax
    2f1b:	48 89 c7             	mov    %rax,%rdi
    2f1e:	e8 3f 0b 00 00       	callq  3a62 <_ZNSt10shared_ptrIN15coroutine_mimic9CoroutineEED1Ev>
    2f23:	48 8d 45 c0          	lea    -0x40(%rbp),%rax
    2f27:	48 89 c7             	mov    %rax,%rdi
    2f2a:	e8 0d 13 00 00       	callq  423c <_ZNKSt19__shared_ptr_accessIN15coroutine_mimic9CoroutineELN9__gnu_cxx12_Lock_policyE2ELb0ELb0EEptEv>
    2f2f:	c7 80 e8 03 00 00 03 	movl   $0x3,0x3e8(%rax)
    2f36:	00 00 00 
    2f39:	48 8b 45 a8          	mov    -0x58(%rbp),%rax
    2f3d:	48 89 c7             	mov    %rax,%rdi
    2f40:	e8 a7 0f 00 00       	callq  3eec <_ZNSt13unordered_mapImSt10shared_ptrIN15coroutine_mimic9CoroutineEESt4hashImESt8equal_toImESaISt4pairIKmS3_EEE3endEv>
    2f45:	48 89 45 b8          	mov    %rax,-0x48(%rbp)
    2f49:	48 8d 55 b8          	lea    -0x48(%rbp),%rdx
    2f4d:	48 8d 45 d0          	lea    -0x30(%rbp),%rax
    2f51:	48 89 d6             	mov    %rdx,%rsi
    2f54:	48 89 c7             	mov    %rax,%rdi
    2f57:	e8 6e 10 00 00       	callq  3fca <_ZNSt8__detail20_Node_const_iteratorISt4pairIKmSt10shared_ptrIN15coroutine_mimic9CoroutineEEELb0ELb0EEC1ERKNS_14_Node_iteratorIS7_Lb0ELb0EEE>
    2f5c:	48 8b 45 a8          	mov    -0x58(%rbp),%rax
    2f60:	48 8b 55 d0          	mov    -0x30(%rbp),%rdx
    2f64:	48 89 50 40          	mov    %rdx,0x40(%rax)
    2f68:	48 8b 45 a8          	mov    -0x58(%rbp),%rax
    2f6c:	48 8d 58 48          	lea    0x48(%rax),%rbx
    2f70:	48 8d 45 c0          	lea    -0x40(%rbp),%rax
    2f74:	48 89 c7             	mov    %rax,%rdi
    2f77:	e8 c0 12 00 00       	callq  423c <_ZNKSt19__shared_ptr_accessIN15coroutine_mimic9CoroutineELN9__gnu_cxx12_Lock_policyE2ELb0ELb0EEptEv>
    2f7c:	48 83 c0 08          	add    $0x8,%rax
    2f80:	48 89 de             	mov    %rbx,%rsi
    2f83:	48 89 c7             	mov    %rax,%rdi
    2f86:	e8 b5 f3 ff ff       	callq  2340 <swapcontext@plt>
    2f8b:	f3 0f 1e fa          	endbr64 
    2f8f:	48 8d 45 c0          	lea    -0x40(%rbp),%rax
    2f93:	48 89 c7             	mov    %rax,%rdi
    2f96:	e8 c7 0a 00 00       	callq  3a62 <_ZNSt10shared_ptrIN15coroutine_mimic9CoroutineEED1Ev>
    2f9b:	90                   	nop
    2f9c:	48 8b 45 e8          	mov    -0x18(%rbp),%rax
    2fa0:	64 48 33 04 25 28 00 	xor    %fs:0x28,%rax
    2fa7:	00 00 
    2fa9:	74 31                	je     2fdc <_ZN15coroutine_mimic9Scheduler14CoroutineYieldEv+0x178>
    2fab:	eb 2a                	jmp    2fd7 <_ZN15coroutine_mimic9Scheduler14CoroutineYieldEv+0x173>
    2fad:	f3 0f 1e fa          	endbr64 
    2fb1:	48 89 c3             	mov    %rax,%rbx
    2fb4:	48 8d 45 d0          	lea    -0x30(%rbp),%rax
    2fb8:	48 89 c7             	mov    %rax,%rdi
    2fbb:	e8 a2 0a 00 00       	callq  3a62 <_ZNSt10shared_ptrIN15coroutine_mimic9CoroutineEED1Ev>
    2fc0:	48 8d 45 c0          	lea    -0x40(%rbp),%rax
    2fc4:	48 89 c7             	mov    %rax,%rdi
    2fc7:	e8 96 0a 00 00       	callq  3a62 <_ZNSt10shared_ptrIN15coroutine_mimic9CoroutineEED1Ev>
    2fcc:	48 89 d8             	mov    %rbx,%rax
    2fcf:	48 89 c7             	mov    %rax,%rdi
    2fd2:	e8 c9 f5 ff ff       	callq  25a0 <_Unwind_Resume@plt>
    2fd7:	e8 14 f5 ff ff       	callq  24f0 <__stack_chk_fail@plt>
    2fdc:	48 83 c4 58          	add    $0x58,%rsp
    2fe0:	5b                   	pop    %rbx
    2fe1:	5d                   	pop    %rbp
    2fe2:	c3                   	retq   
    2fe3:	90                   	nop

0000000000002fe4 <_ZN15coroutine_mimic9Scheduler16SaveCurrentStackESt10shared_ptrINS_9CoroutineEE>:
    2fe4:	f3 0f 1e fa          	endbr64 
    2fe8:	55                   	push   %rbp
    2fe9:	48 89 e5             	mov    %rsp,%rbp
    2fec:	41 54                	push   %r12
    2fee:	53                   	push   %rbx
    2fef:	48 83 ec 20          	sub    $0x20,%rsp
    2ff3:	48 89 7d d8          	mov    %rdi,-0x28(%rbp)
    2ff7:	48 89 75 d0          	mov    %rsi,-0x30(%rbp)
    2ffb:	64 48 8b 04 25 28 00 	mov    %fs:0x28,%rax
    3002:	00 00 
    3004:	48 89 45 e8          	mov    %rax,-0x18(%rbp)
    3008:	31 c0                	xor    %eax,%eax
    300a:	c6 45 e7 00          	movb   $0x0,-0x19(%rbp)
    300e:	48 8b 45 d0          	mov    -0x30(%rbp),%rax
    3012:	48 89 c7             	mov    %rax,%rdi
    3015:	e8 22 12 00 00       	callq  423c <_ZNKSt19__shared_ptr_accessIN15coroutine_mimic9CoroutineELN9__gnu_cxx12_Lock_policyE2ELb0ELb0EEptEv>
    301a:	4c 8b a0 d0 03 00 00 	mov    0x3d0(%rax),%r12
    3021:	48 8b 45 d0          	mov    -0x30(%rbp),%rax
    3025:	48 89 c7             	mov    %rax,%rdi
    3028:	e8 0f 12 00 00       	callq  423c <_ZNKSt19__shared_ptr_accessIN15coroutine_mimic9CoroutineELN9__gnu_cxx12_Lock_policyE2ELb0ELb0EEptEv>
    302d:	48 05 e0 03 00 00    	add    $0x3e0,%rax
    3033:	48 89 c7             	mov    %rax,%rdi
    3036:	e8 cf 0e 00 00       	callq  3f0a <_ZNKSt10unique_ptrIhSt14default_deleteIhEE3getEv>
    303b:	48 89 c3             	mov    %rax,%rbx
    303e:	48 8b 45 d0          	mov    -0x30(%rbp),%rax
    3042:	48 89 c7             	mov    %rax,%rdi
    3045:	e8 f2 11 00 00       	callq  423c <_ZNKSt19__shared_ptr_accessIN15coroutine_mimic9CoroutineELN9__gnu_cxx12_Lock_policyE2ELb0ELb0EEptEv>
    304a:	48 05 20 04 00 00    	add    $0x420,%rax
    3050:	48 89 c7             	mov    %rax,%rdi
    3053:	e8 48 f3 ff ff       	callq  23a0 <_ZNKSt7__cxx1112basic_stringIcSt11char_traitsIcESaIcEE5c_strEv@plt>
    3058:	48 89 c6             	mov    %rax,%rsi
    305b:	48 8d 45 e7          	lea    -0x19(%rbp),%rax
    305f:	4d 89 e0             	mov    %r12,%r8
    3062:	48 89 c1             	mov    %rax,%rcx
    3065:	48 89 da             	mov    %rbx,%rdx
    3068:	48 8d 3d 81 70 00 00 	lea    0x7081(%rip),%rdi        # a0f0 <_ZN6__pstl9execution2v1L5unseqE+0xde>
    306f:	b8 00 00 00 00       	mov    $0x0,%eax
    3074:	e8 a7 f2 ff ff       	callq  2320 <printf@plt>
    3079:	48 8b 45 d0          	mov    -0x30(%rbp),%rax
    307d:	48 89 c7             	mov    %rax,%rdi
    3080:	e8 b7 11 00 00       	callq  423c <_ZNKSt19__shared_ptr_accessIN15coroutine_mimic9CoroutineELN9__gnu_cxx12_Lock_policyE2ELb0ELb0EEptEv>
    3085:	48 8b 90 d8 03 00 00 	mov    0x3d8(%rax),%rdx
    308c:	48 8b 45 d8          	mov    -0x28(%rbp),%rax
    3090:	48 8b 88 18 04 00 00 	mov    0x418(%rax),%rcx
    3097:	48 8d 45 e7          	lea    -0x19(%rbp),%rax
    309b:	48 29 c1             	sub    %rax,%rcx
    309e:	48 89 c8             	mov    %rcx,%rax
    30a1:	48 39 c2             	cmp    %rax,%rdx
    30a4:	0f 9c c0             	setl   %al
    30a7:	84 c0                	test   %al,%al
    30a9:	74 6d                	je     3118 <_ZN15coroutine_mimic9Scheduler16SaveCurrentStackESt10shared_ptrINS_9CoroutineEE+0x134>
    30ab:	48 8d 3d 62 70 00 00 	lea    0x7062(%rip),%rdi        # a114 <_ZN6__pstl9execution2v1L5unseqE+0x102>
    30b2:	e8 99 f4 ff ff       	callq  2550 <puts@plt>
    30b7:	48 8b 45 d8          	mov    -0x28(%rbp),%rax
    30bb:	48 8b 90 18 04 00 00 	mov    0x418(%rax),%rdx
    30c2:	48 8d 45 e7          	lea    -0x19(%rbp),%rax
    30c6:	48 29 c2             	sub    %rax,%rdx
    30c9:	48 89 d3             	mov    %rdx,%rbx
    30cc:	48 8b 45 d0          	mov    -0x30(%rbp),%rax
    30d0:	48 89 c7             	mov    %rax,%rdi
    30d3:	e8 64 11 00 00       	callq  423c <_ZNKSt19__shared_ptr_accessIN15coroutine_mimic9CoroutineELN9__gnu_cxx12_Lock_policyE2ELb0ELb0EEptEv>
    30d8:	48 89 98 d8 03 00 00 	mov    %rbx,0x3d8(%rax)
    30df:	48 8b 45 d0          	mov    -0x30(%rbp),%rax
    30e3:	48 89 c7             	mov    %rax,%rdi
    30e6:	e8 51 11 00 00       	callq  423c <_ZNKSt19__shared_ptr_accessIN15coroutine_mimic9CoroutineELN9__gnu_cxx12_Lock_policyE2ELb0ELb0EEptEv>
    30eb:	48 8d 98 e0 03 00 00 	lea    0x3e0(%rax),%rbx
    30f2:	48 8b 45 d0          	mov    -0x30(%rbp),%rax
    30f6:	48 89 c7             	mov    %rax,%rdi
    30f9:	e8 3e 11 00 00       	callq  423c <_ZNKSt19__shared_ptr_accessIN15coroutine_mimic9CoroutineELN9__gnu_cxx12_Lock_policyE2ELb0ELb0EEptEv>
    30fe:	48 8b 80 d8 03 00 00 	mov    0x3d8(%rax),%rax
    3105:	48 89 c7             	mov    %rax,%rdi
    3108:	e8 03 f2 ff ff       	callq  2310 <_Znam@plt>
    310d:	48 89 c6             	mov    %rax,%rsi
    3110:	48 89 df             	mov    %rbx,%rdi
    3113:	e8 64 11 00 00       	callq  427c <_ZNSt10unique_ptrIhSt14default_deleteIhEE5resetEPh>
    3118:	48 8b 45 d8          	mov    -0x28(%rbp),%rax
    311c:	48 8b 90 18 04 00 00 	mov    0x418(%rax),%rdx
    3123:	48 8d 45 e7          	lea    -0x19(%rbp),%rax
    3127:	48 29 c2             	sub    %rax,%rdx
    312a:	48 89 d3             	mov    %rdx,%rbx
    312d:	48 8b 45 d0          	mov    -0x30(%rbp),%rax
    3131:	48 89 c7             	mov    %rax,%rdi
    3134:	e8 03 11 00 00       	callq  423c <_ZNKSt19__shared_ptr_accessIN15coroutine_mimic9CoroutineELN9__gnu_cxx12_Lock_policyE2ELb0ELb0EEptEv>
    3139:	48 89 98 d0 03 00 00 	mov    %rbx,0x3d0(%rax)
    3140:	48 8b 45 d0          	mov    -0x30(%rbp),%rax
    3144:	48 89 c7             	mov    %rax,%rdi
    3147:	e8 f0 10 00 00       	callq  423c <_ZNKSt19__shared_ptr_accessIN15coroutine_mimic9CoroutineELN9__gnu_cxx12_Lock_policyE2ELb0ELb0EEptEv>
    314c:	4c 8b a0 d0 03 00 00 	mov    0x3d0(%rax),%r12
    3153:	48 8b 45 d0          	mov    -0x30(%rbp),%rax
    3157:	48 89 c7             	mov    %rax,%rdi
    315a:	e8 dd 10 00 00       	callq  423c <_ZNKSt19__shared_ptr_accessIN15coroutine_mimic9CoroutineELN9__gnu_cxx12_Lock_policyE2ELb0ELb0EEptEv>
    315f:	48 05 e0 03 00 00    	add    $0x3e0,%rax
    3165:	48 89 c7             	mov    %rax,%rdi
    3168:	e8 9d 0d 00 00       	callq  3f0a <_ZNKSt10unique_ptrIhSt14default_deleteIhEE3getEv>
    316d:	48 89 c3             	mov    %rax,%rbx
    3170:	48 8b 45 d0          	mov    -0x30(%rbp),%rax
    3174:	48 89 c7             	mov    %rax,%rdi
    3177:	e8 c0 10 00 00       	callq  423c <_ZNKSt19__shared_ptr_accessIN15coroutine_mimic9CoroutineELN9__gnu_cxx12_Lock_policyE2ELb0ELb0EEptEv>
    317c:	48 05 20 04 00 00    	add    $0x420,%rax
    3182:	48 89 c7             	mov    %rax,%rdi
    3185:	e8 16 f2 ff ff       	callq  23a0 <_ZNKSt7__cxx1112basic_stringIcSt11char_traitsIcESaIcEE5c_strEv@plt>
    318a:	48 89 c6             	mov    %rax,%rsi
    318d:	48 8d 45 e7          	lea    -0x19(%rbp),%rax
    3191:	4d 89 e0             	mov    %r12,%r8
    3194:	48 89 c1             	mov    %rax,%rcx
    3197:	48 89 da             	mov    %rbx,%rdx
    319a:	48 8d 3d 8f 6f 00 00 	lea    0x6f8f(%rip),%rdi        # a130 <_ZN6__pstl9execution2v1L5unseqE+0x11e>
    31a1:	b8 00 00 00 00       	mov    $0x0,%eax
    31a6:	e8 75 f1 ff ff       	callq  2320 <printf@plt>
    31ab:	48 8b 45 d0          	mov    -0x30(%rbp),%rax
    31af:	48 89 c7             	mov    %rax,%rdi
    31b2:	e8 85 10 00 00       	callq  423c <_ZNKSt19__shared_ptr_accessIN15coroutine_mimic9CoroutineELN9__gnu_cxx12_Lock_policyE2ELb0ELb0EEptEv>
    31b7:	48 8b 80 d0 03 00 00 	mov    0x3d0(%rax),%rax
    31be:	48 89 c3             	mov    %rax,%rbx
    31c1:	48 8b 45 d0          	mov    -0x30(%rbp),%rax
    31c5:	48 89 c7             	mov    %rax,%rdi
    31c8:	e8 6f 10 00 00       	callq  423c <_ZNKSt19__shared_ptr_accessIN15coroutine_mimic9CoroutineELN9__gnu_cxx12_Lock_policyE2ELb0ELb0EEptEv>
    31cd:	48 05 e0 03 00 00    	add    $0x3e0,%rax
    31d3:	48 89 c7             	mov    %rax,%rdi
    31d6:	e8 2f 0d 00 00       	callq  3f0a <_ZNKSt10unique_ptrIhSt14default_deleteIhEE3getEv>
    31db:	48 89 c1             	mov    %rax,%rcx
    31de:	48 8d 45 e7          	lea    -0x19(%rbp),%rax
    31e2:	48 89 da             	mov    %rbx,%rdx
    31e5:	48 89 c6             	mov    %rax,%rsi
    31e8:	48 89 cf             	mov    %rcx,%rdi
    31eb:	e8 50 f2 ff ff       	callq  2440 <memcpy@plt>
    31f0:	90                   	nop
    31f1:	48 8b 45 e8          	mov    -0x18(%rbp),%rax
    31f5:	64 48 33 04 25 28 00 	xor    %fs:0x28,%rax
    31fc:	00 00 
    31fe:	74 05                	je     3205 <_ZN15coroutine_mimic9Scheduler16SaveCurrentStackESt10shared_ptrINS_9CoroutineEE+0x221>
    3200:	e8 eb f2 ff ff       	callq  24f0 <__stack_chk_fail@plt>
    3205:	48 83 c4 20          	add    $0x20,%rsp
    3209:	5b                   	pop    %rbx
    320a:	41 5c                	pop    %r12
    320c:	5d                   	pop    %rbp
    320d:	c3                   	retq   

000000000000320e <_ZN15coroutine_mimic9Scheduler8ScheduleEjj>:
    320e:	f3 0f 1e fa          	endbr64 
    3212:	55                   	push   %rbp
    3213:	48 89 e5             	mov    %rsp,%rbp
    3216:	53                   	push   %rbx
    3217:	48 83 ec 68          	sub    $0x68,%rsp
    321b:	89 7d 9c             	mov    %edi,-0x64(%rbp)
    321e:	89 75 98             	mov    %esi,-0x68(%rbp)
    3221:	64 48 8b 04 25 28 00 	mov    %fs:0x28,%rax
    3228:	00 00 
    322a:	48 89 45 e8          	mov    %rax,-0x18(%rbp)
    322e:	31 c0                	xor    %eax,%eax
    3230:	8b 45 9c             	mov    -0x64(%rbp),%eax
    3233:	8b 55 98             	mov    -0x68(%rbp),%edx
    3236:	48 c1 e2 20          	shl    $0x20,%rdx
    323a:	48 09 d0             	or     %rdx,%rax
    323d:	48 89 45 b8          	mov    %rax,-0x48(%rbp)
    3241:	48 8b 45 b8          	mov    -0x48(%rbp),%rax
    3245:	48 8b 40 40          	mov    0x40(%rax),%rax
    3249:	48 89 45 a0          	mov    %rax,-0x60(%rbp)
    324d:	48 8d 45 a0          	lea    -0x60(%rbp),%rax
    3251:	48 89 c7             	mov    %rax,%rdi
    3254:	e8 01 10 00 00       	callq  425a <_ZNKSt8__detail20_Node_const_iteratorISt4pairIKmSt10shared_ptrIN15coroutine_mimic9CoroutineEEELb0ELb0EEptEv>
    3259:	48 8d 50 08          	lea    0x8(%rax),%rdx
    325d:	48 8d 45 c0          	lea    -0x40(%rbp),%rax
    3261:	48 89 d6             	mov    %rdx,%rsi
    3264:	48 89 c7             	mov    %rax,%rdi
    3267:	e8 c8 08 00 00       	callq  3b34 <_ZNSt10shared_ptrIN15coroutine_mimic9CoroutineEEC1ERKS2_>
    326c:	48 8d 45 c0          	lea    -0x40(%rbp),%rax
    3270:	48 89 c7             	mov    %rax,%rdi
    3273:	e8 c4 0f 00 00       	callq  423c <_ZNKSt19__shared_ptr_accessIN15coroutine_mimic9CoroutineELN9__gnu_cxx12_Lock_policyE2ELb0ELb0EEptEv>
    3278:	48 8d 98 f0 03 00 00 	lea    0x3f0(%rax),%rbx
    327f:	48 8d 45 c0          	lea    -0x40(%rbp),%rax
    3283:	48 89 c7             	mov    %rax,%rdi
    3286:	e8 b1 0f 00 00       	callq  423c <_ZNKSt19__shared_ptr_accessIN15coroutine_mimic9CoroutineELN9__gnu_cxx12_Lock_policyE2ELb0ELb0EEptEv>
    328b:	48 8d 90 10 04 00 00 	lea    0x410(%rax),%rdx
    3292:	48 8d 45 d0          	lea    -0x30(%rbp),%rax
    3296:	48 89 d6             	mov    %rdx,%rsi
    3299:	48 89 c7             	mov    %rax,%rdi
    329c:	e8 1b 05 00 00       	callq  37bc <_ZNSt3anyC1ERKS_>
    32a1:	48 8d 55 d0          	lea    -0x30(%rbp),%rdx
    32a5:	48 8b 45 b8          	mov    -0x48(%rbp),%rax
    32a9:	48 89 c6             	mov    %rax,%rsi
    32ac:	48 89 df             	mov    %rbx,%rdi
    32af:	e8 36 10 00 00       	callq  42ea <_ZNKSt8functionIFvPN15coroutine_mimic9SchedulerESt3anyEEclES2_S3_>
    32b4:	48 8d 45 d0          	lea    -0x30(%rbp),%rax
    32b8:	48 89 c7             	mov    %rax,%rdi
    32bb:	e8 88 05 00 00       	callq  3848 <_ZNSt3anyD1Ev>
    32c0:	48 8b 45 b8          	mov    -0x48(%rbp),%rax
    32c4:	48 8b 55 a0          	mov    -0x60(%rbp),%rdx
    32c8:	48 89 d6             	mov    %rdx,%rsi
    32cb:	48 89 c7             	mov    %rax,%rdi
    32ce:	e8 87 10 00 00       	callq  435a <_ZNSt13unordered_mapImSt10shared_ptrIN15coroutine_mimic9CoroutineEESt4hashImESt8equal_toImESaISt4pairIKmS3_EEE5eraseENSt8__detail20_Node_const_iteratorISA_Lb0ELb0EEE>
    32d3:	48 8b 45 b8          	mov    -0x48(%rbp),%rax
    32d7:	48 89 c7             	mov    %rax,%rdi
    32da:	e8 0d 0c 00 00       	callq  3eec <_ZNSt13unordered_mapImSt10shared_ptrIN15coroutine_mimic9CoroutineEESt4hashImESt8equal_toImESaISt4pairIKmS3_EEE3endEv>
    32df:	48 89 45 a8          	mov    %rax,-0x58(%rbp)
    32e3:	48 8d 55 a8          	lea    -0x58(%rbp),%rdx
    32e7:	48 8d 45 b0          	lea    -0x50(%rbp),%rax
    32eb:	48 89 d6             	mov    %rdx,%rsi
    32ee:	48 89 c7             	mov    %rax,%rdi
    32f1:	e8 d4 0c 00 00       	callq  3fca <_ZNSt8__detail20_Node_const_iteratorISt4pairIKmSt10shared_ptrIN15coroutine_mimic9CoroutineEEELb0ELb0EEC1ERKNS_14_Node_iteratorIS7_Lb0ELb0EEE>
    32f6:	48 8b 45 b8          	mov    -0x48(%rbp),%rax
    32fa:	48 8b 55 b0          	mov    -0x50(%rbp),%rdx
    32fe:	48 89 50 40          	mov    %rdx,0x40(%rax)
    3302:	48 8d 45 c0          	lea    -0x40(%rbp),%rax
    3306:	48 89 c7             	mov    %rax,%rdi
    3309:	e8 54 07 00 00       	callq  3a62 <_ZNSt10shared_ptrIN15coroutine_mimic9CoroutineEED1Ev>
    330e:	90                   	nop
    330f:	48 8b 45 e8          	mov    -0x18(%rbp),%rax
    3313:	64 48 33 04 25 28 00 	xor    %fs:0x28,%rax
    331a:	00 00 
    331c:	74 3a                	je     3358 <_ZN15coroutine_mimic9Scheduler8ScheduleEjj+0x14a>
    331e:	eb 33                	jmp    3353 <_ZN15coroutine_mimic9Scheduler8ScheduleEjj+0x145>
    3320:	f3 0f 1e fa          	endbr64 
    3324:	48 89 c3             	mov    %rax,%rbx
    3327:	48 8d 45 d0          	lea    -0x30(%rbp),%rax
    332b:	48 89 c7             	mov    %rax,%rdi
    332e:	e8 15 05 00 00       	callq  3848 <_ZNSt3anyD1Ev>
    3333:	eb 07                	jmp    333c <_ZN15coroutine_mimic9Scheduler8ScheduleEjj+0x12e>
    3335:	f3 0f 1e fa          	endbr64 
    3339:	48 89 c3             	mov    %rax,%rbx
    333c:	48 8d 45 c0          	lea    -0x40(%rbp),%rax
    3340:	48 89 c7             	mov    %rax,%rdi
    3343:	e8 1a 07 00 00       	callq  3a62 <_ZNSt10shared_ptrIN15coroutine_mimic9CoroutineEED1Ev>
    3348:	48 89 d8             	mov    %rbx,%rax
    334b:	48 89 c7             	mov    %rax,%rdi
    334e:	e8 4d f2 ff ff       	callq  25a0 <_Unwind_Resume@plt>
    3353:	e8 98 f1 ff ff       	callq  24f0 <__stack_chk_fail@plt>
    3358:	48 83 c4 68          	add    $0x68,%rsp
    335c:	5b                   	pop    %rbx
    335d:	5d                   	pop    %rbp
    335e:	c3                   	retq   
    335f:	90                   	nop

0000000000003360 <_ZN15coroutine_mimic9Scheduler14CoroutineStateEm>:
    3360:	f3 0f 1e fa          	endbr64 
    3364:	55                   	push   %rbp
    3365:	48 89 e5             	mov    %rsp,%rbp
    3368:	48 83 ec 30          	sub    $0x30,%rsp
    336c:	48 89 7d d8          	mov    %rdi,-0x28(%rbp)
    3370:	48 89 75 d0          	mov    %rsi,-0x30(%rbp)
    3374:	64 48 8b 04 25 28 00 	mov    %fs:0x28,%rax
    337b:	00 00 
    337d:	48 89 45 f8          	mov    %rax,-0x8(%rbp)
    3381:	31 c0                	xor    %eax,%eax
    3383:	48 8b 45 d8          	mov    -0x28(%rbp),%rax
    3387:	48 89 c7             	mov    %rax,%rdi
    338a:	e8 5d 0b 00 00       	callq  3eec <_ZNSt13unordered_mapImSt10shared_ptrIN15coroutine_mimic9CoroutineEESt4hashImESt8equal_toImESaISt4pairIKmS3_EEE3endEv>
    338f:	48 89 45 f0          	mov    %rax,-0x10(%rbp)
    3393:	48 8b 45 d8          	mov    -0x28(%rbp),%rax
    3397:	48 8d 55 d0          	lea    -0x30(%rbp),%rdx
    339b:	48 89 d6             	mov    %rdx,%rsi
    339e:	48 89 c7             	mov    %rax,%rdi
    33a1:	e8 06 0e 00 00       	callq  41ac <_ZNSt13unordered_mapImSt10shared_ptrIN15coroutine_mimic9CoroutineEESt4hashImESt8equal_toImESaISt4pairIKmS3_EEE4findERS9_>
    33a6:	48 89 45 e8          	mov    %rax,-0x18(%rbp)
    33aa:	48 8d 55 f0          	lea    -0x10(%rbp),%rdx
    33ae:	48 8d 45 e8          	lea    -0x18(%rbp),%rax
    33b2:	48 89 d6             	mov    %rdx,%rsi
    33b5:	48 89 c7             	mov    %rax,%rdi
    33b8:	e8 c6 0f 00 00       	callq  4383 <_ZNSt8__detaileqISt4pairIKmSt10shared_ptrIN15coroutine_mimic9CoroutineEEELb0EEEbRKNS_19_Node_iterator_baseIT_XT0_EEESC_>
    33bd:	84 c0                	test   %al,%al
    33bf:	74 07                	je     33c8 <_ZN15coroutine_mimic9Scheduler14CoroutineStateEm+0x68>
    33c1:	b8 00 00 00 00       	mov    $0x0,%eax
    33c6:	eb 23                	jmp    33eb <_ZN15coroutine_mimic9Scheduler14CoroutineStateEm+0x8b>
    33c8:	48 8b 45 d8          	mov    -0x28(%rbp),%rax
    33cc:	48 8d 55 d0          	lea    -0x30(%rbp),%rdx
    33d0:	48 89 d6             	mov    %rdx,%rsi
    33d3:	48 89 c7             	mov    %rax,%rdi
    33d6:	e8 3b 0d 00 00       	callq  4116 <_ZNSt13unordered_mapImSt10shared_ptrIN15coroutine_mimic9CoroutineEESt4hashImESt8equal_toImESaISt4pairIKmS3_EEEixERS9_>
    33db:	48 89 c7             	mov    %rax,%rdi
    33de:	e8 59 0e 00 00       	callq  423c <_ZNKSt19__shared_ptr_accessIN15coroutine_mimic9CoroutineELN9__gnu_cxx12_Lock_policyE2ELb0ELb0EEptEv>
    33e3:	48 89 c7             	mov    %rax,%rdi
    33e6:	e8 e1 04 00 00       	callq  38cc <_ZN15coroutine_mimic9Coroutine8getStateEv>
    33eb:	48 8b 4d f8          	mov    -0x8(%rbp),%rcx
    33ef:	64 48 33 0c 25 28 00 	xor    %fs:0x28,%rcx
    33f6:	00 00 
    33f8:	74 05                	je     33ff <_ZN15coroutine_mimic9Scheduler14CoroutineStateEm+0x9f>
    33fa:	e8 f1 f0 ff ff       	callq  24f0 <__stack_chk_fail@plt>
    33ff:	c9                   	leaveq 
    3400:	c3                   	retq   

0000000000003401 <_Z41__static_initialization_and_destruction_0ii>:
    3401:	f3 0f 1e fa          	endbr64 
    3405:	55                   	push   %rbp
    3406:	48 89 e5             	mov    %rsp,%rbp
    3409:	48 83 ec 10          	sub    $0x10,%rsp
    340d:	89 7d fc             	mov    %edi,-0x4(%rbp)
    3410:	89 75 f8             	mov    %esi,-0x8(%rbp)
    3413:	83 7d fc 01          	cmpl   $0x1,-0x4(%rbp)
    3417:	75 32                	jne    344b <_Z41__static_initialization_and_destruction_0ii+0x4a>
    3419:	81 7d f8 ff ff 00 00 	cmpl   $0xffff,-0x8(%rbp)
    3420:	75 29                	jne    344b <_Z41__static_initialization_and_destruction_0ii+0x4a>
    3422:	48 8d 3d 2f cd 00 00 	lea    0xcd2f(%rip),%rdi        # 10158 <_ZStL8__ioinit>
    3429:	e8 12 f1 ff ff       	callq  2540 <_ZNSt8ios_base4InitC1Ev@plt>
    342e:	48 8d 15 d3 cb 00 00 	lea    0xcbd3(%rip),%rdx        # 10008 <__dso_handle>
    3435:	48 8d 35 1c cd 00 00 	lea    0xcd1c(%rip),%rsi        # 10158 <_ZStL8__ioinit>
    343c:	48 8b 05 ad cb 00 00 	mov    0xcbad(%rip),%rax        # fff0 <_ZNSt8ios_base4InitD1Ev@GLIBCXX_3.4>
    3443:	48 89 c7             	mov    %rax,%rdi
    3446:	e8 15 f0 ff ff       	callq  2460 <__cxa_atexit@plt>
    344b:	90                   	nop
    344c:	c9                   	leaveq 
    344d:	c3                   	retq   

000000000000344e <_GLOBAL__sub_I__ZN15coroutine_mimic9Coroutine3_idE>:
    344e:	f3 0f 1e fa          	endbr64 
    3452:	55                   	push   %rbp
    3453:	48 89 e5             	mov    %rsp,%rbp
    3456:	be ff ff 00 00       	mov    $0xffff,%esi
    345b:	bf 01 00 00 00       	mov    $0x1,%edi
    3460:	e8 9c ff ff ff       	callq  3401 <_Z41__static_initialization_and_destruction_0ii>
    3465:	5d                   	pop    %rbp
    3466:	c3                   	retq   
    3467:	90                   	nop

0000000000003468 <_ZNKSt9type_infoeqERKS_>:
    3468:	f3 0f 1e fa          	endbr64 
    346c:	55                   	push   %rbp
    346d:	48 89 e5             	mov    %rsp,%rbp
    3470:	48 83 ec 10          	sub    $0x10,%rsp
    3474:	48 89 7d f8          	mov    %rdi,-0x8(%rbp)
    3478:	48 89 75 f0          	mov    %rsi,-0x10(%rbp)
    347c:	48 8b 45 f8          	mov    -0x8(%rbp),%rax
    3480:	48 8b 50 08          	mov    0x8(%rax),%rdx
    3484:	48 8b 45 f0          	mov    -0x10(%rbp),%rax
    3488:	48 8b 40 08          	mov    0x8(%rax),%rax
    348c:	48 39 c2             	cmp    %rax,%rdx
    348f:	74 2e                	je     34bf <_ZNKSt9type_infoeqERKS_+0x57>
    3491:	48 8b 45 f8          	mov    -0x8(%rbp),%rax
    3495:	48 8b 40 08          	mov    0x8(%rax),%rax
    3499:	0f b6 00             	movzbl (%rax),%eax
    349c:	3c 2a                	cmp    $0x2a,%al
    349e:	74 26                	je     34c6 <_ZNKSt9type_infoeqERKS_+0x5e>
    34a0:	48 8b 45 f0          	mov    -0x10(%rbp),%rax
    34a4:	48 8b 50 08          	mov    0x8(%rax),%rdx
    34a8:	48 8b 45 f8          	mov    -0x8(%rbp),%rax
    34ac:	48 8b 40 08          	mov    0x8(%rax),%rax
    34b0:	48 89 d6             	mov    %rdx,%rsi
    34b3:	48 89 c7             	mov    %rax,%rdi
    34b6:	e8 65 f0 ff ff       	callq  2520 <strcmp@plt>
    34bb:	85 c0                	test   %eax,%eax
    34bd:	75 07                	jne    34c6 <_ZNKSt9type_infoeqERKS_+0x5e>
    34bf:	b8 01 00 00 00       	mov    $0x1,%eax
    34c4:	eb 05                	jmp    34cb <_ZNKSt9type_infoeqERKS_+0x63>
    34c6:	b8 00 00 00 00       	mov    $0x0,%eax
    34cb:	c9                   	leaveq 
    34cc:	c3                   	retq   

00000000000034cd <_ZnwmPv>:
    34cd:	f3 0f 1e fa          	endbr64 
    34d1:	55                   	push   %rbp
    34d2:	48 89 e5             	mov    %rsp,%rbp
    34d5:	48 89 7d f8          	mov    %rdi,-0x8(%rbp)
    34d9:	48 89 75 f0          	mov    %rsi,-0x10(%rbp)
    34dd:	48 8b 45 f0          	mov    -0x10(%rbp),%rax
    34e1:	5d                   	pop    %rbp
    34e2:	c3                   	retq   

00000000000034e3 <_ZdlPvS_>:
    34e3:	f3 0f 1e fa          	endbr64 
    34e7:	55                   	push   %rbp
    34e8:	48 89 e5             	mov    %rsp,%rbp
    34eb:	48 89 7d f8          	mov    %rdi,-0x8(%rbp)
    34ef:	48 89 75 f0          	mov    %rsi,-0x10(%rbp)
    34f3:	90                   	nop
    34f4:	5d                   	pop    %rbp
    34f5:	c3                   	retq   

00000000000034f6 <_ZN9__gnu_cxxL18__exchange_and_addEPVii>:
    34f6:	55                   	push   %rbp
    34f7:	48 89 e5             	mov    %rsp,%rbp
    34fa:	48 89 7d f8          	mov    %rdi,-0x8(%rbp)
    34fe:	89 75 f4             	mov    %esi,-0xc(%rbp)
    3501:	8b 55 f4             	mov    -0xc(%rbp),%edx
    3504:	48 8b 45 f8          	mov    -0x8(%rbp),%rax
    3508:	f0 0f c1 10          	lock xadd %edx,(%rax)
    350c:	89 d0                	mov    %edx,%eax
    350e:	5d                   	pop    %rbp
    350f:	c3                   	retq   

0000000000003510 <_ZN9__gnu_cxxL12__atomic_addEPVii>:
    3510:	55                   	push   %rbp
    3511:	48 89 e5             	mov    %rsp,%rbp
    3514:	48 89 7d f8          	mov    %rdi,-0x8(%rbp)
    3518:	89 75 f4             	mov    %esi,-0xc(%rbp)
    351b:	8b 55 f4             	mov    -0xc(%rbp),%edx
    351e:	48 8b 45 f8          	mov    -0x8(%rbp),%rax
    3522:	f0 01 10             	lock add %edx,(%rax)
    3525:	90                   	nop
    3526:	5d                   	pop    %rbp
    3527:	c3                   	retq   

0000000000003528 <_ZN9__gnu_cxxL25__exchange_and_add_singleEPii>:
    3528:	55                   	push   %rbp
    3529:	48 89 e5             	mov    %rsp,%rbp
    352c:	48 89 7d e8          	mov    %rdi,-0x18(%rbp)
    3530:	89 75 e4             	mov    %esi,-0x1c(%rbp)
    3533:	48 8b 45 e8          	mov    -0x18(%rbp),%rax
    3537:	8b 00                	mov    (%rax),%eax
    3539:	89 45 fc             	mov    %eax,-0x4(%rbp)
    353c:	48 8b 45 e8          	mov    -0x18(%rbp),%rax
    3540:	8b 10                	mov    (%rax),%edx
    3542:	8b 45 e4             	mov    -0x1c(%rbp),%eax
    3545:	01 c2                	add    %eax,%edx
    3547:	48 8b 45 e8          	mov    -0x18(%rbp),%rax
    354b:	89 10                	mov    %edx,(%rax)
    354d:	8b 45 fc             	mov    -0x4(%rbp),%eax
    3550:	5d                   	pop    %rbp
    3551:	c3                   	retq   

0000000000003552 <_ZN9__gnu_cxxL19__atomic_add_singleEPii>:
    3552:	55                   	push   %rbp
    3553:	48 89 e5             	mov    %rsp,%rbp
    3556:	48 89 7d f8          	mov    %rdi,-0x8(%rbp)
    355a:	89 75 f4             	mov    %esi,-0xc(%rbp)
    355d:	48 8b 45 f8          	mov    -0x8(%rbp),%rax
    3561:	8b 10                	mov    (%rax),%edx
    3563:	8b 45 f4             	mov    -0xc(%rbp),%eax
    3566:	01 c2                	add    %eax,%edx
    3568:	48 8b 45 f8          	mov    -0x8(%rbp),%rax
    356c:	89 10                	mov    %edx,(%rax)
    356e:	90                   	nop
    356f:	5d                   	pop    %rbp
    3570:	c3                   	retq   

0000000000003571 <_ZN9__gnu_cxxL27__exchange_and_add_dispatchEPii>:
    3571:	55                   	push   %rbp
    3572:	48 89 e5             	mov    %rsp,%rbp
    3575:	48 83 ec 10          	sub    $0x10,%rsp
    3579:	48 89 7d f8          	mov    %rdi,-0x8(%rbp)
    357d:	89 75 f4             	mov    %esi,-0xc(%rbp)
    3580:	e8 45 f1 ff ff       	callq  26ca <_ZL18__gthread_active_pv>
    3585:	85 c0                	test   %eax,%eax
    3587:	0f 95 c0             	setne  %al
    358a:	84 c0                	test   %al,%al
    358c:	74 13                	je     35a1 <_ZN9__gnu_cxxL27__exchange_and_add_dispatchEPii+0x30>
    358e:	8b 55 f4             	mov    -0xc(%rbp),%edx
    3591:	48 8b 45 f8          	mov    -0x8(%rbp),%rax
    3595:	89 d6                	mov    %edx,%esi
    3597:	48 89 c7             	mov    %rax,%rdi
    359a:	e8 57 ff ff ff       	callq  34f6 <_ZN9__gnu_cxxL18__exchange_and_addEPVii>
    359f:	eb 12                	jmp    35b3 <_ZN9__gnu_cxxL27__exchange_and_add_dispatchEPii+0x42>
    35a1:	8b 55 f4             	mov    -0xc(%rbp),%edx
    35a4:	48 8b 45 f8          	mov    -0x8(%rbp),%rax
    35a8:	89 d6                	mov    %edx,%esi
    35aa:	48 89 c7             	mov    %rax,%rdi
    35ad:	e8 76 ff ff ff       	callq  3528 <_ZN9__gnu_cxxL25__exchange_and_add_singleEPii>
    35b2:	90                   	nop
    35b3:	c9                   	leaveq 
    35b4:	c3                   	retq   

00000000000035b5 <_ZN9__gnu_cxxL21__atomic_add_dispatchEPii>:
    35b5:	55                   	push   %rbp
    35b6:	48 89 e5             	mov    %rsp,%rbp
    35b9:	48 83 ec 10          	sub    $0x10,%rsp
    35bd:	48 89 7d f8          	mov    %rdi,-0x8(%rbp)
    35c1:	89 75 f4             	mov    %esi,-0xc(%rbp)
    35c4:	e8 01 f1 ff ff       	callq  26ca <_ZL18__gthread_active_pv>
    35c9:	85 c0                	test   %eax,%eax
    35cb:	0f 95 c0             	setne  %al
    35ce:	84 c0                	test   %al,%al
    35d0:	74 13                	je     35e5 <_ZN9__gnu_cxxL21__atomic_add_dispatchEPii+0x30>
    35d2:	8b 55 f4             	mov    -0xc(%rbp),%edx
    35d5:	48 8b 45 f8          	mov    -0x8(%rbp),%rax
    35d9:	89 d6                	mov    %edx,%esi
    35db:	48 89 c7             	mov    %rax,%rdi
    35de:	e8 2d ff ff ff       	callq  3510 <_ZN9__gnu_cxxL12__atomic_addEPVii>
    35e3:	eb 11                	jmp    35f6 <_ZN9__gnu_cxxL21__atomic_add_dispatchEPii+0x41>
    35e5:	8b 55 f4             	mov    -0xc(%rbp),%edx
    35e8:	48 8b 45 f8          	mov    -0x8(%rbp),%rax
    35ec:	89 d6                	mov    %edx,%esi
    35ee:	48 89 c7             	mov    %rax,%rdi
    35f1:	e8 5c ff ff ff       	callq  3552 <_ZN9__gnu_cxxL19__atomic_add_singleEPii>
    35f6:	90                   	nop
    35f7:	c9                   	leaveq 
    35f8:	c3                   	retq   
    35f9:	90                   	nop

00000000000035fa <_ZNKSt4hashImEclEm>:
    35fa:	f3 0f 1e fa          	endbr64 
    35fe:	55                   	push   %rbp
    35ff:	48 89 e5             	mov    %rsp,%rbp
    3602:	48 89 7d f8          	mov    %rdi,-0x8(%rbp)
    3606:	48 89 75 f0          	mov    %rsi,-0x10(%rbp)
    360a:	48 8b 45 f0          	mov    -0x10(%rbp),%rax
    360e:	5d                   	pop    %rbp
    360f:	c3                   	retq   

0000000000003610 <_ZNSt7__cxx119to_stringEi>:
    3610:	f3 0f 1e fa          	endbr64 
    3614:	55                   	push   %rbp
    3615:	48 89 e5             	mov    %rsp,%rbp
    3618:	48 83 ec 20          	sub    $0x20,%rsp
    361c:	48 89 7d e8          	mov    %rdi,-0x18(%rbp)
    3620:	89 75 e4             	mov    %esi,-0x1c(%rbp)
    3623:	64 48 8b 04 25 28 00 	mov    %fs:0x28,%rax
    362a:	00 00 
    362c:	48 89 45 f8          	mov    %rax,-0x8(%rbp)
    3630:	31 c0                	xor    %eax,%eax
    3632:	48 8b 45 e8          	mov    -0x18(%rbp),%rax
    3636:	8b 55 e4             	mov    -0x1c(%rbp),%edx
    3639:	41 89 d0             	mov    %edx,%r8d
    363c:	48 8d 0d c9 69 00 00 	lea    0x69c9(%rip),%rcx        # a00c <_ZN9__gnu_cxxL21__default_lock_policyE+0x4>
    3643:	ba 10 00 00 00       	mov    $0x10,%edx
    3648:	48 8b 35 71 c9 00 00 	mov    0xc971(%rip),%rsi        # ffc0 <vsnprintf@GLIBC_2.2.5>
    364f:	48 89 c7             	mov    %rax,%rdi
    3652:	b8 00 00 00 00       	mov    $0x0,%eax
    3657:	e8 02 05 00 00       	callq  3b5e <_ZN9__gnu_cxx12__to_xstringINSt7__cxx1112basic_stringIcSt11char_traitsIcESaIcEEEcEET_PFiPT0_mPKS8_P13__va_list_tagEmSB_z>
    365c:	48 8b 45 f8          	mov    -0x8(%rbp),%rax
    3660:	64 48 33 04 25 28 00 	xor    %fs:0x28,%rax
    3667:	00 00 
    3669:	74 05                	je     3670 <_ZNSt7__cxx119to_stringEi+0x60>
    366b:	e8 80 ee ff ff       	callq  24f0 <__stack_chk_fail@plt>
    3670:	48 8b 45 e8          	mov    -0x18(%rbp),%rax
    3674:	c9                   	leaveq 
    3675:	c3                   	retq   

0000000000003676 <_ZNSt19_Sp_make_shared_tag5_S_tiEv>:
    3676:	f3 0f 1e fa          	endbr64 
    367a:	55                   	push   %rbp
    367b:	48 89 e5             	mov    %rsp,%rbp
    367e:	48 8d 05 03 6b 00 00 	lea    0x6b03(%rip),%rax        # a188 <_ZZNSt19_Sp_make_shared_tag5_S_tiEvE5__tag>
    3685:	5d                   	pop    %rbp
    3686:	c3                   	retq   
    3687:	90                   	nop

0000000000003688 <_ZNSt8__detail15_Hash_node_baseC1Ev>:
    3688:	f3 0f 1e fa          	endbr64 
    368c:	55                   	push   %rbp
    368d:	48 89 e5             	mov    %rsp,%rbp
    3690:	48 89 7d f8          	mov    %rdi,-0x8(%rbp)
    3694:	48 8b 45 f8          	mov    -0x8(%rbp),%rax
    3698:	48 c7 00 00 00 00 00 	movq   $0x0,(%rax)
    369f:	90                   	nop
    36a0:	5d                   	pop    %rbp
    36a1:	c3                   	retq   

00000000000036a2 <_ZNKSt8__detail18_Mod_range_hashingclEmm>:
    36a2:	f3 0f 1e fa          	endbr64 
    36a6:	55                   	push   %rbp
    36a7:	48 89 e5             	mov    %rsp,%rbp
    36aa:	48 89 7d f8          	mov    %rdi,-0x8(%rbp)
    36ae:	48 89 75 f0          	mov    %rsi,-0x10(%rbp)
    36b2:	48 89 55 e8          	mov    %rdx,-0x18(%rbp)
    36b6:	48 8b 45 f0          	mov    -0x10(%rbp),%rax
    36ba:	ba 00 00 00 00       	mov    $0x0,%edx
    36bf:	48 f7 75 e8          	divq   -0x18(%rbp)
    36c3:	48 89 d0             	mov    %rdx,%rax
    36c6:	5d                   	pop    %rbp
    36c7:	c3                   	retq   

00000000000036c8 <_ZNSt8__detail20_Prime_rehash_policyC1Ef>:
    36c8:	f3 0f 1e fa          	endbr64 
    36cc:	55                   	push   %rbp
    36cd:	48 89 e5             	mov    %rsp,%rbp
    36d0:	48 89 7d f8          	mov    %rdi,-0x8(%rbp)
    36d4:	f3 0f 11 45 f4       	movss  %xmm0,-0xc(%rbp)
    36d9:	48 8b 45 f8          	mov    -0x8(%rbp),%rax
    36dd:	f3 0f 10 45 f4       	movss  -0xc(%rbp),%xmm0
    36e2:	f3 0f 11 00          	movss  %xmm0,(%rax)
    36e6:	48 8b 45 f8          	mov    -0x8(%rbp),%rax
    36ea:	48 c7 40 08 00 00 00 	movq   $0x0,0x8(%rax)
    36f1:	00 
    36f2:	90                   	nop
    36f3:	5d                   	pop    %rbp
    36f4:	c3                   	retq   
    36f5:	90                   	nop

00000000000036f6 <_ZNKSt8__detail20_Prime_rehash_policy8_M_stateEv>:
    36f6:	f3 0f 1e fa          	endbr64 
    36fa:	55                   	push   %rbp
    36fb:	48 89 e5             	mov    %rsp,%rbp
    36fe:	48 89 7d f8          	mov    %rdi,-0x8(%rbp)
    3702:	48 8b 45 f8          	mov    -0x8(%rbp),%rax
    3706:	48 8b 40 08          	mov    0x8(%rax),%rax
    370a:	5d                   	pop    %rbp
    370b:	c3                   	retq   

000000000000370c <_ZNSt8__detail20_Prime_rehash_policy8_M_resetEm>:
    370c:	f3 0f 1e fa          	endbr64 
    3710:	55                   	push   %rbp
    3711:	48 89 e5             	mov    %rsp,%rbp
    3714:	48 89 7d f8          	mov    %rdi,-0x8(%rbp)
    3718:	48 89 75 f0          	mov    %rsi,-0x10(%rbp)
    371c:	48 8b 45 f8          	mov    -0x8(%rbp),%rax
    3720:	48 8b 55 f0          	mov    -0x10(%rbp),%rdx
    3724:	48 89 50 08          	mov    %rdx,0x8(%rax)
    3728:	90                   	nop
    3729:	5d                   	pop    %rbp
    372a:	c3                   	retq   
    372b:	90                   	nop

000000000000372c <_ZNSt14_Function_baseC1Ev>:
    372c:	f3 0f 1e fa          	endbr64 
    3730:	55                   	push   %rbp
    3731:	48 89 e5             	mov    %rsp,%rbp
    3734:	48 89 7d f8          	mov    %rdi,-0x8(%rbp)
    3738:	48 8b 45 f8          	mov    -0x8(%rbp),%rax
    373c:	48 c7 40 10 00 00 00 	movq   $0x0,0x10(%rax)
    3743:	00 
    3744:	90                   	nop
    3745:	5d                   	pop    %rbp
    3746:	c3                   	retq   
    3747:	90                   	nop

0000000000003748 <_ZNSt14_Function_baseD1Ev>:
    3748:	f3 0f 1e fa          	endbr64 
    374c:	55                   	push   %rbp
    374d:	48 89 e5             	mov    %rsp,%rbp
    3750:	48 83 ec 10          	sub    $0x10,%rsp
    3754:	48 89 7d f8          	mov    %rdi,-0x8(%rbp)
    3758:	48 8b 45 f8          	mov    -0x8(%rbp),%rax
    375c:	48 8b 40 10          	mov    0x10(%rax),%rax
    3760:	48 85 c0             	test   %rax,%rax
    3763:	74 1e                	je     3783 <_ZNSt14_Function_baseD1Ev+0x3b>
    3765:	48 8b 45 f8          	mov    -0x8(%rbp),%rax
    3769:	4c 8b 40 10          	mov    0x10(%rax),%r8
    376d:	48 8b 4d f8          	mov    -0x8(%rbp),%rcx
    3771:	48 8b 45 f8          	mov    -0x8(%rbp),%rax
    3775:	ba 03 00 00 00       	mov    $0x3,%edx
    377a:	48 89 ce             	mov    %rcx,%rsi
    377d:	48 89 c7             	mov    %rax,%rdi
    3780:	41 ff d0             	callq  *%r8
    3783:	90                   	nop
    3784:	c9                   	leaveq 
    3785:	c3                   	retq   

0000000000003786 <_ZNKSt14_Function_base8_M_emptyEv>:
    3786:	f3 0f 1e fa          	endbr64 
    378a:	55                   	push   %rbp
    378b:	48 89 e5             	mov    %rsp,%rbp
    378e:	48 89 7d f8          	mov    %rdi,-0x8(%rbp)
    3792:	48 8b 45 f8          	mov    -0x8(%rbp),%rax
    3796:	48 8b 40 10          	mov    0x10(%rax),%rax
    379a:	48 85 c0             	test   %rax,%rax
    379d:	0f 94 c0             	sete   %al
    37a0:	5d                   	pop    %rbp
    37a1:	c3                   	retq   

00000000000037a2 <_ZNSt3any8_StorageC1Ev>:
    37a2:	f3 0f 1e fa          	endbr64 
    37a6:	55                   	push   %rbp
    37a7:	48 89 e5             	mov    %rsp,%rbp
    37aa:	48 89 7d f8          	mov    %rdi,-0x8(%rbp)
    37ae:	48 8b 45 f8          	mov    -0x8(%rbp),%rax
    37b2:	48 c7 00 00 00 00 00 	movq   $0x0,(%rax)
    37b9:	90                   	nop
    37ba:	5d                   	pop    %rbp
    37bb:	c3                   	retq   

00000000000037bc <_ZNSt3anyC1ERKS_>:
    37bc:	f3 0f 1e fa          	endbr64 
    37c0:	55                   	push   %rbp
    37c1:	48 89 e5             	mov    %rsp,%rbp
    37c4:	48 83 ec 20          	sub    $0x20,%rsp
    37c8:	48 89 7d e8          	mov    %rdi,-0x18(%rbp)
    37cc:	48 89 75 e0          	mov    %rsi,-0x20(%rbp)
    37d0:	64 48 8b 04 25 28 00 	mov    %fs:0x28,%rax
    37d7:	00 00 
    37d9:	48 89 45 f8          	mov    %rax,-0x8(%rbp)
    37dd:	31 c0                	xor    %eax,%eax
    37df:	48 8b 45 e8          	mov    -0x18(%rbp),%rax
    37e3:	48 83 c0 08          	add    $0x8,%rax
    37e7:	48 89 c7             	mov    %rax,%rdi
    37ea:	e8 b3 ff ff ff       	callq  37a2 <_ZNSt3any8_StorageC1Ev>
    37ef:	48 8b 45 e0          	mov    -0x20(%rbp),%rax
    37f3:	48 89 c7             	mov    %rax,%rdi
    37f6:	e8 b5 00 00 00       	callq  38b0 <_ZNKSt3any9has_valueEv>
    37fb:	83 f0 01             	xor    $0x1,%eax
    37fe:	84 c0                	test   %al,%al
    3800:	74 0d                	je     380f <_ZNSt3anyC1ERKS_+0x53>
    3802:	48 8b 45 e8          	mov    -0x18(%rbp),%rax
    3806:	48 c7 00 00 00 00 00 	movq   $0x0,(%rax)
    380d:	eb 21                	jmp    3830 <_ZNSt3anyC1ERKS_+0x74>
    380f:	48 8b 45 e8          	mov    -0x18(%rbp),%rax
    3813:	48 89 45 f0          	mov    %rax,-0x10(%rbp)
    3817:	48 8b 45 e0          	mov    -0x20(%rbp),%rax
    381b:	48 8b 08             	mov    (%rax),%rcx
    381e:	48 8d 55 f0          	lea    -0x10(%rbp),%rdx
    3822:	48 8b 45 e0          	mov    -0x20(%rbp),%rax
    3826:	48 89 c6             	mov    %rax,%rsi
    3829:	bf 02 00 00 00       	mov    $0x2,%edi
    382e:	ff d1                	callq  *%rcx
    3830:	90                   	nop
    3831:	48 8b 45 f8          	mov    -0x8(%rbp),%rax
    3835:	64 48 33 04 25 28 00 	xor    %fs:0x28,%rax
    383c:	00 00 
    383e:	74 05                	je     3845 <_ZNSt3anyC1ERKS_+0x89>
    3840:	e8 ab ec ff ff       	callq  24f0 <__stack_chk_fail@plt>
    3845:	c9                   	leaveq 
    3846:	c3                   	retq   
    3847:	90                   	nop

0000000000003848 <_ZNSt3anyD1Ev>:
    3848:	f3 0f 1e fa          	endbr64 
    384c:	55                   	push   %rbp
    384d:	48 89 e5             	mov    %rsp,%rbp
    3850:	48 83 ec 10          	sub    $0x10,%rsp
    3854:	48 89 7d f8          	mov    %rdi,-0x8(%rbp)
    3858:	48 8b 45 f8          	mov    -0x8(%rbp),%rax
    385c:	48 89 c7             	mov    %rax,%rdi
    385f:	e8 04 00 00 00       	callq  3868 <_ZNSt3any5resetEv>
    3864:	90                   	nop
    3865:	c9                   	leaveq 
    3866:	c3                   	retq   
    3867:	90                   	nop

0000000000003868 <_ZNSt3any5resetEv>:
    3868:	f3 0f 1e fa          	endbr64 
    386c:	55                   	push   %rbp
    386d:	48 89 e5             	mov    %rsp,%rbp
    3870:	48 83 ec 10          	sub    $0x10,%rsp
    3874:	48 89 7d f8          	mov    %rdi,-0x8(%rbp)
    3878:	48 8b 45 f8          	mov    -0x8(%rbp),%rax
    387c:	48 89 c7             	mov    %rax,%rdi
    387f:	e8 2c 00 00 00       	callq  38b0 <_ZNKSt3any9has_valueEv>
    3884:	84 c0                	test   %al,%al
    3886:	74 25                	je     38ad <_ZNSt3any5resetEv+0x45>
    3888:	48 8b 45 f8          	mov    -0x8(%rbp),%rax
    388c:	48 8b 08             	mov    (%rax),%rcx
    388f:	48 8b 45 f8          	mov    -0x8(%rbp),%rax
    3893:	ba 00 00 00 00       	mov    $0x0,%edx
    3898:	48 89 c6             	mov    %rax,%rsi
    389b:	bf 03 00 00 00       	mov    $0x3,%edi
    38a0:	ff d1                	callq  *%rcx
    38a2:	48 8b 45 f8          	mov    -0x8(%rbp),%rax
    38a6:	48 c7 00 00 00 00 00 	movq   $0x0,(%rax)
    38ad:	90                   	nop
    38ae:	c9                   	leaveq 
    38af:	c3                   	retq   

00000000000038b0 <_ZNKSt3any9has_valueEv>:
    38b0:	f3 0f 1e fa          	endbr64 
    38b4:	55                   	push   %rbp
    38b5:	48 89 e5             	mov    %rsp,%rbp
    38b8:	48 89 7d f8          	mov    %rdi,-0x8(%rbp)
    38bc:	48 8b 45 f8          	mov    -0x8(%rbp),%rax
    38c0:	48 8b 00             	mov    (%rax),%rax
    38c3:	48 85 c0             	test   %rax,%rax
    38c6:	0f 95 c0             	setne  %al
    38c9:	5d                   	pop    %rbp
    38ca:	c3                   	retq   
    38cb:	90                   	nop

00000000000038cc <_ZN15coroutine_mimic9Coroutine8getStateEv>:
    38cc:	f3 0f 1e fa          	endbr64 
    38d0:	55                   	push   %rbp
    38d1:	48 89 e5             	mov    %rsp,%rbp
    38d4:	48 89 7d f8          	mov    %rdi,-0x8(%rbp)
    38d8:	48 8b 45 f8          	mov    -0x8(%rbp),%rax
    38dc:	8b 80 e8 03 00 00    	mov    0x3e8(%rax),%eax
    38e2:	5d                   	pop    %rbp
    38e3:	c3                   	retq   

00000000000038e4 <_ZNSt8functionIFvPN15coroutine_mimic9SchedulerESt3anyEED1Ev>:
    38e4:	f3 0f 1e fa          	endbr64 
    38e8:	55                   	push   %rbp
    38e9:	48 89 e5             	mov    %rsp,%rbp
    38ec:	48 83 ec 10          	sub    $0x10,%rsp
    38f0:	48 89 7d f8          	mov    %rdi,-0x8(%rbp)
    38f4:	48 8b 45 f8          	mov    -0x8(%rbp),%rax
    38f8:	48 89 c7             	mov    %rax,%rdi
    38fb:	e8 48 fe ff ff       	callq  3748 <_ZNSt14_Function_baseD1Ev>
    3900:	90                   	nop
    3901:	c9                   	leaveq 
    3902:	c3                   	retq   
    3903:	90                   	nop

0000000000003904 <_ZNSt8__detail21_Hashtable_ebo_helperILi0ESaINS_10_Hash_nodeISt4pairIKmSt10shared_ptrIN15coroutine_mimic9CoroutineEEELb0EEEELb1EEC1Ev>:
    3904:	f3 0f 1e fa          	endbr64 
    3908:	55                   	push   %rbp
    3909:	48 89 e5             	mov    %rsp,%rbp
    390c:	48 83 ec 10          	sub    $0x10,%rsp
    3910:	48 89 7d f8          	mov    %rdi,-0x8(%rbp)
    3914:	48 8b 45 f8          	mov    -0x8(%rbp),%rax
    3918:	48 89 c7             	mov    %rax,%rdi
    391b:	e8 08 06 00 00       	callq  3f28 <_ZNSaINSt8__detail10_Hash_nodeISt4pairIKmSt10shared_ptrIN15coroutine_mimic9CoroutineEEELb0EEEEC1Ev>
    3920:	90                   	nop
    3921:	c9                   	leaveq 
    3922:	c3                   	retq   
    3923:	90                   	nop

0000000000003924 <_ZNSt8__detail21_Hashtable_ebo_helperILi0ESaINS_10_Hash_nodeISt4pairIKmSt10shared_ptrIN15coroutine_mimic9CoroutineEEELb0EEEELb1EED1Ev>:
    3924:	f3 0f 1e fa          	endbr64 
    3928:	55                   	push   %rbp
    3929:	48 89 e5             	mov    %rsp,%rbp
    392c:	48 83 ec 10          	sub    $0x10,%rsp
    3930:	48 89 7d f8          	mov    %rdi,-0x8(%rbp)
    3934:	48 8b 45 f8          	mov    -0x8(%rbp),%rax
    3938:	48 89 c7             	mov    %rax,%rdi
    393b:	e8 08 06 00 00       	callq  3f48 <_ZNSaINSt8__detail10_Hash_nodeISt4pairIKmSt10shared_ptrIN15coroutine_mimic9CoroutineEEELb0EEEED1Ev>
    3940:	90                   	nop
    3941:	c9                   	leaveq 
    3942:	c3                   	retq   
    3943:	90                   	nop

0000000000003944 <_ZNSt8__detail16_Hashtable_allocISaINS_10_Hash_nodeISt4pairIKmSt10shared_ptrIN15coroutine_mimic9CoroutineEEELb0EEEEEC1Ev>:
    3944:	f3 0f 1e fa          	endbr64 
    3948:	55                   	push   %rbp
    3949:	48 89 e5             	mov    %rsp,%rbp
    394c:	48 83 ec 10          	sub    $0x10,%rsp
    3950:	48 89 7d f8          	mov    %rdi,-0x8(%rbp)
    3954:	48 8b 45 f8          	mov    -0x8(%rbp),%rax
    3958:	48 89 c7             	mov    %rax,%rdi
    395b:	e8 a4 ff ff ff       	callq  3904 <_ZNSt8__detail21_Hashtable_ebo_helperILi0ESaINS_10_Hash_nodeISt4pairIKmSt10shared_ptrIN15coroutine_mimic9CoroutineEEELb0EEEELb1EEC1Ev>
    3960:	90                   	nop
    3961:	c9                   	leaveq 
    3962:	c3                   	retq   
    3963:	90                   	nop

0000000000003964 <_ZNSt8__detail16_Hashtable_allocISaINS_10_Hash_nodeISt4pairIKmSt10shared_ptrIN15coroutine_mimic9CoroutineEEELb0EEEEED1Ev>:
    3964:	f3 0f 1e fa          	endbr64 
    3968:	55                   	push   %rbp
    3969:	48 89 e5             	mov    %rsp,%rbp
    396c:	48 83 ec 10          	sub    $0x10,%rsp
    3970:	48 89 7d f8          	mov    %rdi,-0x8(%rbp)
    3974:	48 8b 45 f8          	mov    -0x8(%rbp),%rax
    3978:	48 89 c7             	mov    %rax,%rdi
    397b:	e8 a4 ff ff ff       	callq  3924 <_ZNSt8__detail21_Hashtable_ebo_helperILi0ESaINS_10_Hash_nodeISt4pairIKmSt10shared_ptrIN15coroutine_mimic9CoroutineEEELb0EEEELb1EED1Ev>
    3980:	90                   	nop
    3981:	c9                   	leaveq 
    3982:	c3                   	retq   
    3983:	90                   	nop

0000000000003984 <_ZNSt10_HashtableImSt4pairIKmSt10shared_ptrIN15coroutine_mimic9CoroutineEEESaIS6_ENSt8__detail10_Select1stESt8equal_toImESt4hashImENS8_18_Mod_range_hashingENS8_20_Default_ranged_hashENS8_20_Prime_rehash_policyENS8_17_Hashtable_traitsILb0ELb0ELb1EEEEC1Ev>:
    3984:	f3 0f 1e fa          	endbr64 
    3988:	55                   	push   %rbp
    3989:	48 89 e5             	mov    %rsp,%rbp
    398c:	48 83 ec 10          	sub    $0x10,%rsp
    3990:	48 89 7d f8          	mov    %rdi,-0x8(%rbp)
    3994:	48 8b 45 f8          	mov    -0x8(%rbp),%rax
    3998:	48 89 c7             	mov    %rax,%rdi
    399b:	e8 a4 ff ff ff       	callq  3944 <_ZNSt8__detail16_Hashtable_allocISaINS_10_Hash_nodeISt4pairIKmSt10shared_ptrIN15coroutine_mimic9CoroutineEEELb0EEEEEC1Ev>
    39a0:	48 8b 45 f8          	mov    -0x8(%rbp),%rax
    39a4:	48 8d 50 30          	lea    0x30(%rax),%rdx
    39a8:	48 8b 45 f8          	mov    -0x8(%rbp),%rax
    39ac:	48 89 10             	mov    %rdx,(%rax)
    39af:	48 8b 45 f8          	mov    -0x8(%rbp),%rax
    39b3:	48 c7 40 08 01 00 00 	movq   $0x1,0x8(%rax)
    39ba:	00 
    39bb:	48 8b 45 f8          	mov    -0x8(%rbp),%rax
    39bf:	48 83 c0 10          	add    $0x10,%rax
    39c3:	48 89 c7             	mov    %rax,%rdi
    39c6:	e8 bd fc ff ff       	callq  3688 <_ZNSt8__detail15_Hash_node_baseC1Ev>
    39cb:	48 8b 45 f8          	mov    -0x8(%rbp),%rax
    39cf:	48 c7 40 18 00 00 00 	movq   $0x0,0x18(%rax)
    39d6:	00 
    39d7:	48 8b 45 f8          	mov    -0x8(%rbp),%rax
    39db:	48 83 c0 20          	add    $0x20,%rax
    39df:	f3 0f 10 05 9d 67 00 	movss  0x679d(%rip),%xmm0        # a184 <_ZN6__pstl9execution2v1L5unseqE+0x172>
    39e6:	00 
    39e7:	48 89 c7             	mov    %rax,%rdi
    39ea:	e8 d9 fc ff ff       	callq  36c8 <_ZNSt8__detail20_Prime_rehash_policyC1Ef>
    39ef:	48 8b 45 f8          	mov    -0x8(%rbp),%rax
    39f3:	48 c7 40 30 00 00 00 	movq   $0x0,0x30(%rax)
    39fa:	00 
    39fb:	90                   	nop
    39fc:	c9                   	leaveq 
    39fd:	c3                   	retq   

00000000000039fe <_ZNSt13unordered_mapImSt10shared_ptrIN15coroutine_mimic9CoroutineEESt4hashImESt8equal_toImESaISt4pairIKmS3_EEEC1Ev>:
    39fe:	f3 0f 1e fa          	endbr64 
    3a02:	55                   	push   %rbp
    3a03:	48 89 e5             	mov    %rsp,%rbp
    3a06:	48 83 ec 10          	sub    $0x10,%rsp
    3a0a:	48 89 7d f8          	mov    %rdi,-0x8(%rbp)
    3a0e:	48 8b 45 f8          	mov    -0x8(%rbp),%rax
    3a12:	48 89 c7             	mov    %rax,%rdi
    3a15:	e8 6a ff ff ff       	callq  3984 <_ZNSt10_HashtableImSt4pairIKmSt10shared_ptrIN15coroutine_mimic9CoroutineEEESaIS6_ENSt8__detail10_Select1stESt8equal_toImESt4hashImENS8_18_Mod_range_hashingENS8_20_Default_ranged_hashENS8_20_Prime_rehash_policyENS8_17_Hashtable_traitsILb0ELb0ELb1EEEEC1Ev>
    3a1a:	90                   	nop
    3a1b:	c9                   	leaveq 
    3a1c:	c3                   	retq   
    3a1d:	90                   	nop

0000000000003a1e <_ZNSt13unordered_mapImSt10shared_ptrIN15coroutine_mimic9CoroutineEESt4hashImESt8equal_toImESaISt4pairIKmS3_EEED1Ev>:
    3a1e:	f3 0f 1e fa          	endbr64 
    3a22:	55                   	push   %rbp
    3a23:	48 89 e5             	mov    %rsp,%rbp
    3a26:	48 83 ec 10          	sub    $0x10,%rsp
    3a2a:	48 89 7d f8          	mov    %rdi,-0x8(%rbp)
    3a2e:	48 8b 45 f8          	mov    -0x8(%rbp),%rax
    3a32:	48 89 c7             	mov    %rax,%rdi
    3a35:	e8 2e 05 00 00       	callq  3f68 <_ZNSt10_HashtableImSt4pairIKmSt10shared_ptrIN15coroutine_mimic9CoroutineEEESaIS6_ENSt8__detail10_Select1stESt8equal_toImESt4hashImENS8_18_Mod_range_hashingENS8_20_Default_ranged_hashENS8_20_Prime_rehash_policyENS8_17_Hashtable_traitsILb0ELb0ELb1EEEED1Ev>
    3a3a:	90                   	nop
    3a3b:	c9                   	leaveq 
    3a3c:	c3                   	retq   
    3a3d:	90                   	nop

0000000000003a3e <_ZNSt12__shared_ptrIN15coroutine_mimic9CoroutineELN9__gnu_cxx12_Lock_policyE2EED1Ev>:
    3a3e:	f3 0f 1e fa          	endbr64 
    3a42:	55                   	push   %rbp
    3a43:	48 89 e5             	mov    %rsp,%rbp
    3a46:	48 83 ec 10          	sub    $0x10,%rsp
    3a4a:	48 89 7d f8          	mov    %rdi,-0x8(%rbp)
    3a4e:	48 8b 45 f8          	mov    -0x8(%rbp),%rax
    3a52:	48 83 c0 08          	add    $0x8,%rax
    3a56:	48 89 c7             	mov    %rax,%rdi
    3a59:	e8 8a 06 00 00       	callq  40e8 <_ZNSt14__shared_countILN9__gnu_cxx12_Lock_policyE2EED1Ev>
    3a5e:	90                   	nop
    3a5f:	c9                   	leaveq 
    3a60:	c3                   	retq   
    3a61:	90                   	nop

0000000000003a62 <_ZNSt10shared_ptrIN15coroutine_mimic9CoroutineEED1Ev>:
    3a62:	f3 0f 1e fa          	endbr64 
    3a66:	55                   	push   %rbp
    3a67:	48 89 e5             	mov    %rsp,%rbp
    3a6a:	48 83 ec 10          	sub    $0x10,%rsp
    3a6e:	48 89 7d f8          	mov    %rdi,-0x8(%rbp)
    3a72:	48 8b 45 f8          	mov    -0x8(%rbp),%rax
    3a76:	48 89 c7             	mov    %rax,%rdi
    3a79:	e8 c0 ff ff ff       	callq  3a3e <_ZNSt12__shared_ptrIN15coroutine_mimic9CoroutineELN9__gnu_cxx12_Lock_policyE2EED1Ev>
    3a7e:	90                   	nop
    3a7f:	c9                   	leaveq 
    3a80:	c3                   	retq   
    3a81:	90                   	nop

0000000000003a82 <_ZNSt12__shared_ptrIN15coroutine_mimic9CoroutineELN9__gnu_cxx12_Lock_policyE2EEaSERKS4_>:
    3a82:	f3 0f 1e fa          	endbr64 
    3a86:	55                   	push   %rbp
    3a87:	48 89 e5             	mov    %rsp,%rbp
    3a8a:	48 83 ec 10          	sub    $0x10,%rsp
    3a8e:	48 89 7d f8          	mov    %rdi,-0x8(%rbp)
    3a92:	48 89 75 f0          	mov    %rsi,-0x10(%rbp)
    3a96:	48 8b 45 f0          	mov    -0x10(%rbp),%rax
    3a9a:	48 8b 10             	mov    (%rax),%rdx
    3a9d:	48 8b 45 f8          	mov    -0x8(%rbp),%rax
    3aa1:	48 89 10             	mov    %rdx,(%rax)
    3aa4:	48 8b 45 f0          	mov    -0x10(%rbp),%rax
    3aa8:	48 8d 50 08          	lea    0x8(%rax),%rdx
    3aac:	48 8b 45 f8          	mov    -0x8(%rbp),%rax
    3ab0:	48 83 c0 08          	add    $0x8,%rax
    3ab4:	48 89 d6             	mov    %rdx,%rsi
    3ab7:	48 89 c7             	mov    %rax,%rdi
    3aba:	e8 81 06 00 00       	callq  4140 <_ZNSt14__shared_countILN9__gnu_cxx12_Lock_policyE2EEaSERKS2_>
    3abf:	48 8b 45 f8          	mov    -0x8(%rbp),%rax
    3ac3:	c9                   	leaveq 
    3ac4:	c3                   	retq   
    3ac5:	90                   	nop

0000000000003ac6 <_ZNSt10shared_ptrIN15coroutine_mimic9CoroutineEEaSERKS2_>:
    3ac6:	f3 0f 1e fa          	endbr64 
    3aca:	55                   	push   %rbp
    3acb:	48 89 e5             	mov    %rsp,%rbp
    3ace:	48 83 ec 10          	sub    $0x10,%rsp
    3ad2:	48 89 7d f8          	mov    %rdi,-0x8(%rbp)
    3ad6:	48 89 75 f0          	mov    %rsi,-0x10(%rbp)
    3ada:	48 8b 45 f8          	mov    -0x8(%rbp),%rax
    3ade:	48 8b 55 f0          	mov    -0x10(%rbp),%rdx
    3ae2:	48 89 d6             	mov    %rdx,%rsi
    3ae5:	48 89 c7             	mov    %rax,%rdi
    3ae8:	e8 95 ff ff ff       	callq  3a82 <_ZNSt12__shared_ptrIN15coroutine_mimic9CoroutineELN9__gnu_cxx12_Lock_policyE2EEaSERKS4_>
    3aed:	48 8b 45 f8          	mov    -0x8(%rbp),%rax
    3af1:	c9                   	leaveq 
    3af2:	c3                   	retq   
    3af3:	90                   	nop

0000000000003af4 <_ZNSt12__shared_ptrIN15coroutine_mimic9CoroutineELN9__gnu_cxx12_Lock_policyE2EEC1ERKS4_>:
    3af4:	f3 0f 1e fa          	endbr64 
    3af8:	55                   	push   %rbp
    3af9:	48 89 e5             	mov    %rsp,%rbp
    3afc:	48 83 ec 10          	sub    $0x10,%rsp
    3b00:	48 89 7d f8          	mov    %rdi,-0x8(%rbp)
    3b04:	48 89 75 f0          	mov    %rsi,-0x10(%rbp)
    3b08:	48 8b 45 f0          	mov    -0x10(%rbp),%rax
    3b0c:	48 8b 10             	mov    (%rax),%rdx
    3b0f:	48 8b 45 f8          	mov    -0x8(%rbp),%rax
    3b13:	48 89 10             	mov    %rdx,(%rax)
    3b16:	48 8b 45 f8          	mov    -0x8(%rbp),%rax
    3b1a:	48 83 c0 08          	add    $0x8,%rax
    3b1e:	48 8b 55 f0          	mov    -0x10(%rbp),%rdx
    3b22:	48 83 c2 08          	add    $0x8,%rdx
    3b26:	48 89 d6             	mov    %rdx,%rsi
    3b29:	48 89 c7             	mov    %rax,%rdi
    3b2c:	e8 cb 06 00 00       	callq  41fc <_ZNSt14__shared_countILN9__gnu_cxx12_Lock_policyE2EEC1ERKS2_>
    3b31:	90                   	nop
    3b32:	c9                   	leaveq 
    3b33:	c3                   	retq   

0000000000003b34 <_ZNSt10shared_ptrIN15coroutine_mimic9CoroutineEEC1ERKS2_>:
    3b34:	f3 0f 1e fa          	endbr64 
    3b38:	55                   	push   %rbp
    3b39:	48 89 e5             	mov    %rsp,%rbp
    3b3c:	48 83 ec 10          	sub    $0x10,%rsp
    3b40:	48 89 7d f8          	mov    %rdi,-0x8(%rbp)
    3b44:	48 89 75 f0          	mov    %rsi,-0x10(%rbp)
    3b48:	48 8b 45 f8          	mov    -0x8(%rbp),%rax
    3b4c:	48 8b 55 f0          	mov    -0x10(%rbp),%rdx
    3b50:	48 89 d6             	mov    %rdx,%rsi
    3b53:	48 89 c7             	mov    %rax,%rdi
    3b56:	e8 99 ff ff ff       	callq  3af4 <_ZNSt12__shared_ptrIN15coroutine_mimic9CoroutineELN9__gnu_cxx12_Lock_policyE2EEC1ERKS4_>
    3b5b:	90                   	nop
    3b5c:	c9                   	leaveq 
    3b5d:	c3                   	retq   

0000000000003b5e <_ZN9__gnu_cxx12__to_xstringINSt7__cxx1112basic_stringIcSt11char_traitsIcESaIcEEEcEET_PFiPT0_mPKS8_P13__va_list_tagEmSB_z>:
    3b5e:	f3 0f 1e fa          	endbr64 
    3b62:	55                   	push   %rbp
    3b63:	48 89 e5             	mov    %rsp,%rbp
    3b66:	53                   	push   %rbx
    3b67:	48 81 ec 08 01 00 00 	sub    $0x108,%rsp
    3b6e:	48 89 bd 08 ff ff ff 	mov    %rdi,-0xf8(%rbp)
    3b75:	48 89 b5 00 ff ff ff 	mov    %rsi,-0x100(%rbp)
    3b7c:	48 89 95 f8 fe ff ff 	mov    %rdx,-0x108(%rbp)
    3b83:	48 89 8d f0 fe ff ff 	mov    %rcx,-0x110(%rbp)
    3b8a:	4c 89 85 60 ff ff ff 	mov    %r8,-0xa0(%rbp)
    3b91:	4c 89 8d 68 ff ff ff 	mov    %r9,-0x98(%rbp)
    3b98:	84 c0                	test   %al,%al
    3b9a:	74 23                	je     3bbf <_ZN9__gnu_cxx12__to_xstringINSt7__cxx1112basic_stringIcSt11char_traitsIcESaIcEEEcEET_PFiPT0_mPKS8_P13__va_list_tagEmSB_z+0x61>
    3b9c:	0f 29 85 70 ff ff ff 	movaps %xmm0,-0x90(%rbp)
    3ba3:	0f 29 4d 80          	movaps %xmm1,-0x80(%rbp)
    3ba7:	0f 29 55 90          	movaps %xmm2,-0x70(%rbp)
    3bab:	0f 29 5d a0          	movaps %xmm3,-0x60(%rbp)
    3baf:	0f 29 65 b0          	movaps %xmm4,-0x50(%rbp)
    3bb3:	0f 29 6d c0          	movaps %xmm5,-0x40(%rbp)
    3bb7:	0f 29 75 d0          	movaps %xmm6,-0x30(%rbp)
    3bbb:	0f 29 7d e0          	movaps %xmm7,-0x20(%rbp)
    3bbf:	64 48 8b 04 25 28 00 	mov    %fs:0x28,%rax
    3bc6:	00 00 
    3bc8:	48 89 85 38 ff ff ff 	mov    %rax,-0xc8(%rbp)
    3bcf:	31 c0                	xor    %eax,%eax
    3bd1:	48 8b 85 f8 fe ff ff 	mov    -0x108(%rbp),%rax
    3bd8:	48 8d 50 08          	lea    0x8(%rax),%rdx
    3bdc:	b8 10 00 00 00       	mov    $0x10,%eax
    3be1:	48 83 e8 01          	sub    $0x1,%rax
    3be5:	48 01 d0             	add    %rdx,%rax
    3be8:	b9 10 00 00 00       	mov    $0x10,%ecx
    3bed:	ba 00 00 00 00       	mov    $0x0,%edx
    3bf2:	48 f7 f1             	div    %rcx
    3bf5:	48 6b c0 10          	imul   $0x10,%rax,%rax
    3bf9:	48 89 c2             	mov    %rax,%rdx
    3bfc:	48 81 e2 00 f0 ff ff 	and    $0xfffffffffffff000,%rdx
    3c03:	48 89 e3             	mov    %rsp,%rbx
    3c06:	48 29 d3             	sub    %rdx,%rbx
    3c09:	48 89 da             	mov    %rbx,%rdx
    3c0c:	48 39 d4             	cmp    %rdx,%rsp
    3c0f:	74 12                	je     3c23 <_ZN9__gnu_cxx12__to_xstringINSt7__cxx1112basic_stringIcSt11char_traitsIcESaIcEEEcEET_PFiPT0_mPKS8_P13__va_list_tagEmSB_z+0xc5>
    3c11:	48 81 ec 00 10 00 00 	sub    $0x1000,%rsp
    3c18:	48 83 8c 24 f8 0f 00 	orq    $0x0,0xff8(%rsp)
    3c1f:	00 00 
    3c21:	eb e9                	jmp    3c0c <_ZN9__gnu_cxx12__to_xstringINSt7__cxx1112basic_stringIcSt11char_traitsIcESaIcEEEcEET_PFiPT0_mPKS8_P13__va_list_tagEmSB_z+0xae>
    3c23:	48 89 c2             	mov    %rax,%rdx
    3c26:	81 e2 ff 0f 00 00    	and    $0xfff,%edx
    3c2c:	48 29 d4             	sub    %rdx,%rsp
    3c2f:	48 89 c2             	mov    %rax,%rdx
    3c32:	81 e2 ff 0f 00 00    	and    $0xfff,%edx
    3c38:	48 85 d2             	test   %rdx,%rdx
    3c3b:	74 10                	je     3c4d <_ZN9__gnu_cxx12__to_xstringINSt7__cxx1112basic_stringIcSt11char_traitsIcESaIcEEEcEET_PFiPT0_mPKS8_P13__va_list_tagEmSB_z+0xef>
    3c3d:	25 ff 0f 00 00       	and    $0xfff,%eax
    3c42:	48 83 e8 08          	sub    $0x8,%rax
    3c46:	48 01 e0             	add    %rsp,%rax
    3c49:	48 83 08 00          	orq    $0x0,(%rax)
    3c4d:	48 89 e0             	mov    %rsp,%rax
    3c50:	48 83 c0 0f          	add    $0xf,%rax
    3c54:	48 c1 e8 04          	shr    $0x4,%rax
    3c58:	48 c1 e0 04          	shl    $0x4,%rax
    3c5c:	48 89 85 18 ff ff ff 	mov    %rax,-0xe8(%rbp)
    3c63:	c7 85 20 ff ff ff 20 	movl   $0x20,-0xe0(%rbp)
    3c6a:	00 00 00 
    3c6d:	c7 85 24 ff ff ff 30 	movl   $0x30,-0xdc(%rbp)
    3c74:	00 00 00 
    3c77:	48 8d 45 10          	lea    0x10(%rbp),%rax
    3c7b:	48 89 85 28 ff ff ff 	mov    %rax,-0xd8(%rbp)
    3c82:	48 8d 85 40 ff ff ff 	lea    -0xc0(%rbp),%rax
    3c89:	48 89 85 30 ff ff ff 	mov    %rax,-0xd0(%rbp)
    3c90:	4c 8b 85 00 ff ff ff 	mov    -0x100(%rbp),%r8
    3c97:	48 8d 8d 20 ff ff ff 	lea    -0xe0(%rbp),%rcx
    3c9e:	48 8b 95 f0 fe ff ff 	mov    -0x110(%rbp),%rdx
    3ca5:	48 8b b5 f8 fe ff ff 	mov    -0x108(%rbp),%rsi
    3cac:	48 8b 85 18 ff ff ff 	mov    -0xe8(%rbp),%rax
    3cb3:	48 89 c7             	mov    %rax,%rdi
    3cb6:	41 ff d0             	callq  *%r8
    3cb9:	89 85 14 ff ff ff    	mov    %eax,-0xec(%rbp)
    3cbf:	48 8d 85 13 ff ff ff 	lea    -0xed(%rbp),%rax
    3cc6:	48 89 c7             	mov    %rax,%rdi
    3cc9:	e8 e2 e8 ff ff       	callq  25b0 <_ZNSaIcEC1Ev@plt>
    3cce:	8b 85 14 ff ff ff    	mov    -0xec(%rbp),%eax
    3cd4:	48 63 d0             	movslq %eax,%rdx
    3cd7:	48 8b 85 18 ff ff ff 	mov    -0xe8(%rbp),%rax
    3cde:	48 8d 3c 02          	lea    (%rdx,%rax,1),%rdi
    3ce2:	48 8d 95 13 ff ff ff 	lea    -0xed(%rbp),%rdx
    3ce9:	48 8b b5 18 ff ff ff 	mov    -0xe8(%rbp),%rsi
    3cf0:	48 8b 85 08 ff ff ff 	mov    -0xf8(%rbp),%rax
    3cf7:	48 89 d1             	mov    %rdx,%rcx
    3cfa:	48 89 fa             	mov    %rdi,%rdx
    3cfd:	48 89 c7             	mov    %rax,%rdi
    3d00:	e8 a5 06 00 00       	callq  43aa <_ZNSt7__cxx1112basic_stringIcSt11char_traitsIcESaIcEEC1IPcvEET_S7_RKS3_>
    3d05:	48 8d 85 13 ff ff ff 	lea    -0xed(%rbp),%rax
    3d0c:	48 89 c7             	mov    %rax,%rdi
    3d0f:	e8 bc e7 ff ff       	callq  24d0 <_ZNSaIcED1Ev@plt>
    3d14:	48 8b 85 38 ff ff ff 	mov    -0xc8(%rbp),%rax
    3d1b:	64 48 33 04 25 28 00 	xor    %fs:0x28,%rax
    3d22:	00 00 
    3d24:	74 28                	je     3d4e <_ZN9__gnu_cxx12__to_xstringINSt7__cxx1112basic_stringIcSt11char_traitsIcESaIcEEEcEET_PFiPT0_mPKS8_P13__va_list_tagEmSB_z+0x1f0>
    3d26:	eb 21                	jmp    3d49 <_ZN9__gnu_cxx12__to_xstringINSt7__cxx1112basic_stringIcSt11char_traitsIcESaIcEEEcEET_PFiPT0_mPKS8_P13__va_list_tagEmSB_z+0x1eb>
    3d28:	f3 0f 1e fa          	endbr64 
    3d2c:	48 89 c3             	mov    %rax,%rbx
    3d2f:	48 8d 85 13 ff ff ff 	lea    -0xed(%rbp),%rax
    3d36:	48 89 c7             	mov    %rax,%rdi
    3d39:	e8 92 e7 ff ff       	callq  24d0 <_ZNSaIcED1Ev@plt>
    3d3e:	48 89 d8             	mov    %rbx,%rax
    3d41:	48 89 c7             	mov    %rax,%rdi
    3d44:	e8 57 e8 ff ff       	callq  25a0 <_Unwind_Resume@plt>
    3d49:	e8 a2 e7 ff ff       	callq  24f0 <__stack_chk_fail@plt>
    3d4e:	48 8b 85 08 ff ff ff 	mov    -0xf8(%rbp),%rax
    3d55:	48 8b 5d f8          	mov    -0x8(%rbp),%rbx
    3d59:	c9                   	leaveq 
    3d5a:	c3                   	retq   
    3d5b:	90                   	nop

0000000000003d5c <_ZNSt7__cxx1112basic_stringIcSt11char_traitsIcESaIcEE12_Alloc_hiderD1Ev>:
    3d5c:	f3 0f 1e fa          	endbr64 
    3d60:	55                   	push   %rbp
    3d61:	48 89 e5             	mov    %rsp,%rbp
    3d64:	48 83 ec 10          	sub    $0x10,%rsp
    3d68:	48 89 7d f8          	mov    %rdi,-0x8(%rbp)
    3d6c:	48 8b 45 f8          	mov    -0x8(%rbp),%rax
    3d70:	48 89 c7             	mov    %rax,%rdi
    3d73:	e8 b8 e5 ff ff       	callq  2330 <_ZNSaIcED2Ev@plt>
    3d78:	90                   	nop
    3d79:	c9                   	leaveq 
    3d7a:	c3                   	retq   
    3d7b:	90                   	nop

0000000000003d7c <_ZNSt5tupleIJPhSt14default_deleteIhEEEC1IS0_S2_Lb1EEEv>:
    3d7c:	f3 0f 1e fa          	endbr64 
    3d80:	55                   	push   %rbp
    3d81:	48 89 e5             	mov    %rsp,%rbp
    3d84:	48 83 ec 10          	sub    $0x10,%rsp
    3d88:	48 89 7d f8          	mov    %rdi,-0x8(%rbp)
    3d8c:	48 8b 45 f8          	mov    -0x8(%rbp),%rax
    3d90:	48 89 c7             	mov    %rax,%rdi
    3d93:	e8 92 06 00 00       	callq  442a <_ZNSt11_Tuple_implILm0EJPhSt14default_deleteIhEEEC1Ev>
    3d98:	90                   	nop
    3d99:	c9                   	leaveq 
    3d9a:	c3                   	retq   
    3d9b:	90                   	nop

0000000000003d9c <_ZNSt15__uniq_ptr_implIhSt14default_deleteIhEEC1Ev>:
    3d9c:	f3 0f 1e fa          	endbr64 
    3da0:	55                   	push   %rbp
    3da1:	48 89 e5             	mov    %rsp,%rbp
    3da4:	48 83 ec 10          	sub    $0x10,%rsp
    3da8:	48 89 7d f8          	mov    %rdi,-0x8(%rbp)
    3dac:	48 8b 45 f8          	mov    -0x8(%rbp),%rax
    3db0:	48 89 c7             	mov    %rax,%rdi
    3db3:	e8 c4 ff ff ff       	callq  3d7c <_ZNSt5tupleIJPhSt14default_deleteIhEEEC1IS0_S2_Lb1EEEv>
    3db8:	90                   	nop
    3db9:	c9                   	leaveq 
    3dba:	c3                   	retq   
    3dbb:	90                   	nop

0000000000003dbc <_ZNSt10unique_ptrIhSt14default_deleteIhEEC1IS1_vEEDn>:
    3dbc:	f3 0f 1e fa          	endbr64 
    3dc0:	55                   	push   %rbp
    3dc1:	48 89 e5             	mov    %rsp,%rbp
    3dc4:	48 83 ec 10          	sub    $0x10,%rsp
    3dc8:	48 89 7d f8          	mov    %rdi,-0x8(%rbp)
    3dcc:	48 89 75 f0          	mov    %rsi,-0x10(%rbp)
    3dd0:	48 8b 45 f8          	mov    -0x8(%rbp),%rax
    3dd4:	48 c7 00 00 00 00 00 	movq   $0x0,(%rax)
    3ddb:	48 8b 45 f8          	mov    -0x8(%rbp),%rax
    3ddf:	48 89 c7             	mov    %rax,%rdi
    3de2:	e8 b5 ff ff ff       	callq  3d9c <_ZNSt15__uniq_ptr_implIhSt14default_deleteIhEEC1Ev>
    3de7:	90                   	nop
    3de8:	c9                   	leaveq 
    3de9:	c3                   	retq   

0000000000003dea <_ZNSt10unique_ptrIhSt14default_deleteIhEED1Ev>:
    3dea:	f3 0f 1e fa          	endbr64 
    3dee:	55                   	push   %rbp
    3def:	48 89 e5             	mov    %rsp,%rbp
    3df2:	53                   	push   %rbx
    3df3:	48 83 ec 28          	sub    $0x28,%rsp
    3df7:	48 89 7d d8          	mov    %rdi,-0x28(%rbp)
    3dfb:	48 8b 45 d8          	mov    -0x28(%rbp),%rax
    3dff:	48 89 c7             	mov    %rax,%rdi
    3e02:	e8 4f 06 00 00       	callq  4456 <_ZNSt15__uniq_ptr_implIhSt14default_deleteIhEE6_M_ptrEv>
    3e07:	48 89 45 e8          	mov    %rax,-0x18(%rbp)
    3e0b:	48 8b 45 e8          	mov    -0x18(%rbp),%rax
    3e0f:	48 8b 00             	mov    (%rax),%rax
    3e12:	48 85 c0             	test   %rax,%rax
    3e15:	74 29                	je     3e40 <_ZNSt10unique_ptrIhSt14default_deleteIhEED1Ev+0x56>
    3e17:	48 8b 45 d8          	mov    -0x28(%rbp),%rax
    3e1b:	48 89 c7             	mov    %rax,%rdi
    3e1e:	e8 51 06 00 00       	callq  4474 <_ZNSt10unique_ptrIhSt14default_deleteIhEE11get_deleterEv>
    3e23:	48 89 c3             	mov    %rax,%rbx
    3e26:	48 8b 45 e8          	mov    -0x18(%rbp),%rax
    3e2a:	48 89 c7             	mov    %rax,%rdi
    3e2d:	e8 60 06 00 00       	callq  4492 <_ZSt4moveIRPhEONSt16remove_referenceIT_E4typeEOS3_>
    3e32:	48 8b 00             	mov    (%rax),%rax
    3e35:	48 89 c6             	mov    %rax,%rsi
    3e38:	48 89 df             	mov    %rbx,%rdi
    3e3b:	e8 64 06 00 00       	callq  44a4 <_ZNKSt14default_deleteIhEclEPh>
    3e40:	48 8b 45 e8          	mov    -0x18(%rbp),%rax
    3e44:	48 c7 00 00 00 00 00 	movq   $0x0,(%rax)
    3e4b:	90                   	nop
    3e4c:	48 83 c4 28          	add    $0x28,%rsp
    3e50:	5b                   	pop    %rbx
    3e51:	5d                   	pop    %rbp
    3e52:	c3                   	retq   
    3e53:	90                   	nop

0000000000003e54 <_ZNSt8functionIFvPN15coroutine_mimic9SchedulerESt3anyEEC1ERKS5_>:
    3e54:	f3 0f 1e fa          	endbr64 
    3e58:	55                   	push   %rbp
    3e59:	48 89 e5             	mov    %rsp,%rbp
    3e5c:	53                   	push   %rbx
    3e5d:	48 83 ec 18          	sub    $0x18,%rsp
    3e61:	48 89 7d e8          	mov    %rdi,-0x18(%rbp)
    3e65:	48 89 75 e0          	mov    %rsi,-0x20(%rbp)
    3e69:	48 8b 45 e8          	mov    -0x18(%rbp),%rax
    3e6d:	48 89 c7             	mov    %rax,%rdi
    3e70:	e8 b7 f8 ff ff       	callq  372c <_ZNSt14_Function_baseC1Ev>
    3e75:	48 8b 45 e0          	mov    -0x20(%rbp),%rax
    3e79:	48 89 c7             	mov    %rax,%rdi
    3e7c:	e8 51 06 00 00       	callq  44d2 <_ZNKSt8functionIFvPN15coroutine_mimic9SchedulerESt3anyEEcvbEv>
    3e81:	84 c0                	test   %al,%al
    3e83:	74 5e                	je     3ee3 <_ZNSt8functionIFvPN15coroutine_mimic9SchedulerESt3anyEEC1ERKS5_+0x8f>
    3e85:	48 8b 45 e0          	mov    -0x20(%rbp),%rax
    3e89:	4c 8b 40 10          	mov    0x10(%rax),%r8
    3e8d:	48 8b 4d e0          	mov    -0x20(%rbp),%rcx
    3e91:	48 8b 45 e8          	mov    -0x18(%rbp),%rax
    3e95:	ba 02 00 00 00       	mov    $0x2,%edx
    3e9a:	48 89 ce             	mov    %rcx,%rsi
    3e9d:	48 89 c7             	mov    %rax,%rdi
    3ea0:	41 ff d0             	callq  *%r8
    3ea3:	48 8b 45 e0          	mov    -0x20(%rbp),%rax
    3ea7:	48 8b 50 18          	mov    0x18(%rax),%rdx
    3eab:	48 8b 45 e8          	mov    -0x18(%rbp),%rax
    3eaf:	48 89 50 18          	mov    %rdx,0x18(%rax)
    3eb3:	48 8b 45 e0          	mov    -0x20(%rbp),%rax
    3eb7:	48 8b 50 10          	mov    0x10(%rax),%rdx
    3ebb:	48 8b 45 e8          	mov    -0x18(%rbp),%rax
    3ebf:	48 89 50 10          	mov    %rdx,0x10(%rax)
    3ec3:	eb 1e                	jmp    3ee3 <_ZNSt8functionIFvPN15coroutine_mimic9SchedulerESt3anyEEC1ERKS5_+0x8f>
    3ec5:	f3 0f 1e fa          	endbr64 
    3ec9:	48 89 c3             	mov    %rax,%rbx
    3ecc:	48 8b 45 e8          	mov    -0x18(%rbp),%rax
    3ed0:	48 89 c7             	mov    %rax,%rdi
    3ed3:	e8 70 f8 ff ff       	callq  3748 <_ZNSt14_Function_baseD1Ev>
    3ed8:	48 89 d8             	mov    %rbx,%rax
    3edb:	48 89 c7             	mov    %rax,%rdi
    3ede:	e8 bd e6 ff ff       	callq  25a0 <_Unwind_Resume@plt>
    3ee3:	90                   	nop
    3ee4:	48 83 c4 18          	add    $0x18,%rsp
    3ee8:	5b                   	pop    %rbx
    3ee9:	5d                   	pop    %rbp
    3eea:	c3                   	retq   
    3eeb:	90                   	nop

0000000000003eec <_ZNSt13unordered_mapImSt10shared_ptrIN15coroutine_mimic9CoroutineEESt4hashImESt8equal_toImESaISt4pairIKmS3_EEE3endEv>:
    3eec:	f3 0f 1e fa          	endbr64 
    3ef0:	55                   	push   %rbp
    3ef1:	48 89 e5             	mov    %rsp,%rbp
    3ef4:	48 83 ec 10          	sub    $0x10,%rsp
    3ef8:	48 89 7d f8          	mov    %rdi,-0x8(%rbp)
    3efc:	48 8b 45 f8          	mov    -0x8(%rbp),%rax
    3f00:	48 89 c7             	mov    %rax,%rdi
    3f03:	e8 ec 05 00 00       	callq  44f4 <_ZNSt10_HashtableImSt4pairIKmSt10shared_ptrIN15coroutine_mimic9CoroutineEEESaIS6_ENSt8__detail10_Select1stESt8equal_toImESt4hashImENS8_18_Mod_range_hashingENS8_20_Default_ranged_hashENS8_20_Prime_rehash_policyENS8_17_Hashtable_traitsILb0ELb0ELb1EEEE3endEv>
    3f08:	c9                   	leaveq 
    3f09:	c3                   	retq   

0000000000003f0a <_ZNKSt10unique_ptrIhSt14default_deleteIhEE3getEv>:
    3f0a:	f3 0f 1e fa          	endbr64 
    3f0e:	55                   	push   %rbp
    3f0f:	48 89 e5             	mov    %rsp,%rbp
    3f12:	48 83 ec 10          	sub    $0x10,%rsp
    3f16:	48 89 7d f8          	mov    %rdi,-0x8(%rbp)
    3f1a:	48 8b 45 f8          	mov    -0x8(%rbp),%rax
    3f1e:	48 89 c7             	mov    %rax,%rdi
    3f21:	e8 18 06 00 00       	callq  453e <_ZNKSt15__uniq_ptr_implIhSt14default_deleteIhEE6_M_ptrEv>
    3f26:	c9                   	leaveq 
    3f27:	c3                   	retq   

0000000000003f28 <_ZNSaINSt8__detail10_Hash_nodeISt4pairIKmSt10shared_ptrIN15coroutine_mimic9CoroutineEEELb0EEEEC1Ev>:
    3f28:	f3 0f 1e fa          	endbr64 
    3f2c:	55                   	push   %rbp
    3f2d:	48 89 e5             	mov    %rsp,%rbp
    3f30:	48 83 ec 10          	sub    $0x10,%rsp
    3f34:	48 89 7d f8          	mov    %rdi,-0x8(%rbp)
    3f38:	48 8b 45 f8          	mov    -0x8(%rbp),%rax
    3f3c:	48 89 c7             	mov    %rax,%rdi
    3f3f:	e8 1c 06 00 00       	callq  4560 <_ZN9__gnu_cxx13new_allocatorINSt8__detail10_Hash_nodeISt4pairIKmSt10shared_ptrIN15coroutine_mimic9CoroutineEEELb0EEEEC1Ev>
    3f44:	90                   	nop
    3f45:	c9                   	leaveq 
    3f46:	c3                   	retq   
    3f47:	90                   	nop

0000000000003f48 <_ZNSaINSt8__detail10_Hash_nodeISt4pairIKmSt10shared_ptrIN15coroutine_mimic9CoroutineEEELb0EEEED1Ev>:
    3f48:	f3 0f 1e fa          	endbr64 
    3f4c:	55                   	push   %rbp
    3f4d:	48 89 e5             	mov    %rsp,%rbp
    3f50:	48 83 ec 10          	sub    $0x10,%rsp
    3f54:	48 89 7d f8          	mov    %rdi,-0x8(%rbp)
    3f58:	48 8b 45 f8          	mov    -0x8(%rbp),%rax
    3f5c:	48 89 c7             	mov    %rax,%rdi
    3f5f:	e8 0c 06 00 00       	callq  4570 <_ZN9__gnu_cxx13new_allocatorINSt8__detail10_Hash_nodeISt4pairIKmSt10shared_ptrIN15coroutine_mimic9CoroutineEEELb0EEEED1Ev>
    3f64:	90                   	nop
    3f65:	c9                   	leaveq 
    3f66:	c3                   	retq   
    3f67:	90                   	nop

0000000000003f68 <_ZNSt10_HashtableImSt4pairIKmSt10shared_ptrIN15coroutine_mimic9CoroutineEEESaIS6_ENSt8__detail10_Select1stESt8equal_toImESt4hashImENS8_18_Mod_range_hashingENS8_20_Default_ranged_hashENS8_20_Prime_rehash_policyENS8_17_Hashtable_traitsILb0ELb0ELb1EEEED1Ev>:
    3f68:	f3 0f 1e fa          	endbr64 
    3f6c:	55                   	push   %rbp
    3f6d:	48 89 e5             	mov    %rsp,%rbp
    3f70:	48 83 ec 10          	sub    $0x10,%rsp
    3f74:	48 89 7d f8          	mov    %rdi,-0x8(%rbp)
    3f78:	48 8b 45 f8          	mov    -0x8(%rbp),%rax
    3f7c:	48 89 c7             	mov    %rax,%rdi
    3f7f:	e8 fc 05 00 00       	callq  4580 <_ZNSt10_HashtableImSt4pairIKmSt10shared_ptrIN15coroutine_mimic9CoroutineEEESaIS6_ENSt8__detail10_Select1stESt8equal_toImESt4hashImENS8_18_Mod_range_hashingENS8_20_Default_ranged_hashENS8_20_Prime_rehash_policyENS8_17_Hashtable_traitsILb0ELb0ELb1EEEE5clearEv>
    3f84:	48 8b 45 f8          	mov    -0x8(%rbp),%rax
    3f88:	48 89 c7             	mov    %rax,%rdi
    3f8b:	e8 5e 06 00 00       	callq  45ee <_ZNSt10_HashtableImSt4pairIKmSt10shared_ptrIN15coroutine_mimic9CoroutineEEESaIS6_ENSt8__detail10_Select1stESt8equal_toImESt4hashImENS8_18_Mod_range_hashingENS8_20_Default_ranged_hashENS8_20_Prime_rehash_policyENS8_17_Hashtable_traitsILb0ELb0ELb1EEEE21_M_deallocate_bucketsEv>
    3f90:	48 8b 45 f8          	mov    -0x8(%rbp),%rax
    3f94:	48 89 c7             	mov    %rax,%rdi
    3f97:	e8 c8 f9 ff ff       	callq  3964 <_ZNSt8__detail16_Hashtable_allocISaINS_10_Hash_nodeISt4pairIKmSt10shared_ptrIN15coroutine_mimic9CoroutineEEELb0EEEEED1Ev>
    3f9c:	90                   	nop
    3f9d:	c9                   	leaveq 
    3f9e:	c3                   	retq   
    3f9f:	90                   	nop

0000000000003fa0 <_ZNSt10unique_ptrIhSt14default_deleteIhEEC1IS1_vEEPh>:
    3fa0:	f3 0f 1e fa          	endbr64 
    3fa4:	55                   	push   %rbp
    3fa5:	48 89 e5             	mov    %rsp,%rbp
    3fa8:	48 83 ec 10          	sub    $0x10,%rsp
    3fac:	48 89 7d f8          	mov    %rdi,-0x8(%rbp)
    3fb0:	48 89 75 f0          	mov    %rsi,-0x10(%rbp)
    3fb4:	48 8b 45 f8          	mov    -0x8(%rbp),%rax
    3fb8:	48 8b 55 f0          	mov    -0x10(%rbp),%rdx
    3fbc:	48 89 d6             	mov    %rdx,%rsi
    3fbf:	48 89 c7             	mov    %rax,%rdi
    3fc2:	e8 59 06 00 00       	callq  4620 <_ZNSt15__uniq_ptr_implIhSt14default_deleteIhEEC1EPh>
    3fc7:	90                   	nop
    3fc8:	c9                   	leaveq 
    3fc9:	c3                   	retq   

0000000000003fca <_ZNSt8__detail20_Node_const_iteratorISt4pairIKmSt10shared_ptrIN15coroutine_mimic9CoroutineEEELb0ELb0EEC1ERKNS_14_Node_iteratorIS7_Lb0ELb0EEE>:
    3fca:	f3 0f 1e fa          	endbr64 
    3fce:	55                   	push   %rbp
    3fcf:	48 89 e5             	mov    %rsp,%rbp
    3fd2:	48 83 ec 10          	sub    $0x10,%rsp
    3fd6:	48 89 7d f8          	mov    %rdi,-0x8(%rbp)
    3fda:	48 89 75 f0          	mov    %rsi,-0x10(%rbp)
    3fde:	48 8b 45 f8          	mov    -0x8(%rbp),%rax
    3fe2:	48 8b 55 f0          	mov    -0x10(%rbp),%rdx
    3fe6:	48 8b 12             	mov    (%rdx),%rdx
    3fe9:	48 89 d6             	mov    %rdx,%rsi
    3fec:	48 89 c7             	mov    %rax,%rdi
    3fef:	e8 68 06 00 00       	callq  465c <_ZNSt8__detail19_Node_iterator_baseISt4pairIKmSt10shared_ptrIN15coroutine_mimic9CoroutineEEELb0EEC1EPNS_10_Hash_nodeIS7_Lb0EEE>
    3ff4:	90                   	nop
    3ff5:	c9                   	leaveq 
    3ff6:	c3                   	retq   
    3ff7:	90                   	nop

0000000000003ff8 <_ZNSt13unordered_mapImSt10shared_ptrIN15coroutine_mimic9CoroutineEESt4hashImESt8equal_toImESaISt4pairIKmS3_EEE5clearEv>:
    3ff8:	f3 0f 1e fa          	endbr64 
    3ffc:	55                   	push   %rbp
    3ffd:	48 89 e5             	mov    %rsp,%rbp
    4000:	48 83 ec 10          	sub    $0x10,%rsp
    4004:	48 89 7d f8          	mov    %rdi,-0x8(%rbp)
    4008:	48 8b 45 f8          	mov    -0x8(%rbp),%rax
    400c:	48 89 c7             	mov    %rax,%rdi
    400f:	e8 6c 05 00 00       	callq  4580 <_ZNSt10_HashtableImSt4pairIKmSt10shared_ptrIN15coroutine_mimic9CoroutineEEESaIS6_ENSt8__detail10_Select1stESt8equal_toImESt4hashImENS8_18_Mod_range_hashingENS8_20_Default_ranged_hashENS8_20_Prime_rehash_policyENS8_17_Hashtable_traitsILb0ELb0ELb1EEEE5clearEv>
    4014:	90                   	nop
    4015:	c9                   	leaveq 
    4016:	c3                   	retq   

0000000000004017 <_ZSt11make_sharedIN15coroutine_mimic9CoroutineEJPNS0_9SchedulerERSt8functionIFvS3_St3anyEERS5_EESt10shared_ptrIT_EDpOT0_>:
    4017:	f3 0f 1e fa          	endbr64 
    401b:	55                   	push   %rbp
    401c:	48 89 e5             	mov    %rsp,%rbp
    401f:	41 55                	push   %r13
    4021:	41 54                	push   %r12
    4023:	53                   	push   %rbx
    4024:	48 83 ec 38          	sub    $0x38,%rsp
    4028:	48 89 7d c8          	mov    %rdi,-0x38(%rbp)
    402c:	48 89 75 c0          	mov    %rsi,-0x40(%rbp)
    4030:	48 89 55 b8          	mov    %rdx,-0x48(%rbp)
    4034:	48 89 4d b0          	mov    %rcx,-0x50(%rbp)
    4038:	64 48 8b 04 25 28 00 	mov    %fs:0x28,%rax
    403f:	00 00 
    4041:	48 89 45 d8          	mov    %rax,-0x28(%rbp)
    4045:	31 c0                	xor    %eax,%eax
    4047:	48 8b 45 b0          	mov    -0x50(%rbp),%rax
    404b:	48 89 c7             	mov    %rax,%rdi
    404e:	e8 8a 06 00 00       	callq  46dd <_ZSt7forwardIRSt3anyEOT_RNSt16remove_referenceIS2_E4typeE>
    4053:	49 89 c5             	mov    %rax,%r13
    4056:	48 8b 45 b8          	mov    -0x48(%rbp),%rax
    405a:	48 89 c7             	mov    %rax,%rdi
    405d:	e8 69 06 00 00       	callq  46cb <_ZSt7forwardIRSt8functionIFvPN15coroutine_mimic9SchedulerESt3anyEEEOT_RNSt16remove_referenceIS8_E4typeE>
    4062:	49 89 c4             	mov    %rax,%r12
    4065:	48 8b 45 c0          	mov    -0x40(%rbp),%rax
    4069:	48 89 c7             	mov    %rax,%rdi
    406c:	e8 48 06 00 00       	callq  46b9 <_ZSt7forwardIPN15coroutine_mimic9SchedulerEEOT_RNSt16remove_referenceIS3_E4typeE>
    4071:	48 89 c3             	mov    %rax,%rbx
    4074:	48 8d 45 d7          	lea    -0x29(%rbp),%rax
    4078:	48 89 c7             	mov    %rax,%rdi
    407b:	e8 fa 05 00 00       	callq  467a <_ZNSaIN15coroutine_mimic9CoroutineEEC1Ev>
    4080:	48 8b 45 c8          	mov    -0x38(%rbp),%rax
    4084:	48 8d 75 d7          	lea    -0x29(%rbp),%rsi
    4088:	4d 89 e8             	mov    %r13,%r8
    408b:	4c 89 e1             	mov    %r12,%rcx
    408e:	48 89 da             	mov    %rbx,%rdx
    4091:	48 89 c7             	mov    %rax,%rdi
    4094:	e8 56 06 00 00       	callq  46ef <_ZSt15allocate_sharedIN15coroutine_mimic9CoroutineESaIS1_EJPNS0_9SchedulerERSt8functionIFvS4_St3anyEERS6_EESt10shared_ptrIT_ERKT0_DpOT1_>
    4099:	48 8d 45 d7          	lea    -0x29(%rbp),%rax
    409d:	48 89 c7             	mov    %rax,%rdi
    40a0:	e8 f5 05 00 00       	callq  469a <_ZNSaIN15coroutine_mimic9CoroutineEED1Ev>
    40a5:	48 8b 45 d8          	mov    -0x28(%rbp),%rax
    40a9:	64 48 33 04 25 28 00 	xor    %fs:0x28,%rax
    40b0:	00 00 
    40b2:	74 25                	je     40d9 <_ZSt11make_sharedIN15coroutine_mimic9CoroutineEJPNS0_9SchedulerERSt8functionIFvS3_St3anyEERS5_EESt10shared_ptrIT_EDpOT0_+0xc2>
    40b4:	eb 1e                	jmp    40d4 <_ZSt11make_sharedIN15coroutine_mimic9CoroutineEJPNS0_9SchedulerERSt8functionIFvS3_St3anyEERS5_EESt10shared_ptrIT_EDpOT0_+0xbd>
    40b6:	f3 0f 1e fa          	endbr64 
    40ba:	48 89 c3             	mov    %rax,%rbx
    40bd:	48 8d 45 d7          	lea    -0x29(%rbp),%rax
    40c1:	48 89 c7             	mov    %rax,%rdi
    40c4:	e8 d1 05 00 00       	callq  469a <_ZNSaIN15coroutine_mimic9CoroutineEED1Ev>
    40c9:	48 89 d8             	mov    %rbx,%rax
    40cc:	48 89 c7             	mov    %rax,%rdi
    40cf:	e8 cc e4 ff ff       	callq  25a0 <_Unwind_Resume@plt>
    40d4:	e8 17 e4 ff ff       	callq  24f0 <__stack_chk_fail@plt>
    40d9:	48 8b 45 c8          	mov    -0x38(%rbp),%rax
    40dd:	48 83 c4 38          	add    $0x38,%rsp
    40e1:	5b                   	pop    %rbx
    40e2:	41 5c                	pop    %r12
    40e4:	41 5d                	pop    %r13
    40e6:	5d                   	pop    %rbp
    40e7:	c3                   	retq   

00000000000040e8 <_ZNSt14__shared_countILN9__gnu_cxx12_Lock_policyE2EED1Ev>:
    40e8:	f3 0f 1e fa          	endbr64 
    40ec:	55                   	push   %rbp
    40ed:	48 89 e5             	mov    %rsp,%rbp
    40f0:	48 83 ec 10          	sub    $0x10,%rsp
    40f4:	48 89 7d f8          	mov    %rdi,-0x8(%rbp)
    40f8:	48 8b 45 f8          	mov    -0x8(%rbp),%rax
    40fc:	48 8b 00             	mov    (%rax),%rax
    40ff:	48 85 c0             	test   %rax,%rax
    4102:	74 0f                	je     4113 <_ZNSt14__shared_countILN9__gnu_cxx12_Lock_policyE2EED1Ev+0x2b>
    4104:	48 8b 45 f8          	mov    -0x8(%rbp),%rax
    4108:	48 8b 00             	mov    (%rax),%rax
    410b:	48 89 c7             	mov    %rax,%rdi
    410e:	e8 4f 06 00 00       	callq  4762 <_ZNSt16_Sp_counted_baseILN9__gnu_cxx12_Lock_policyE2EE10_M_releaseEv>
    4113:	90                   	nop
    4114:	c9                   	leaveq 
    4115:	c3                   	retq   

0000000000004116 <_ZNSt13unordered_mapImSt10shared_ptrIN15coroutine_mimic9CoroutineEESt4hashImESt8equal_toImESaISt4pairIKmS3_EEEixERS9_>:
    4116:	f3 0f 1e fa          	endbr64 
    411a:	55                   	push   %rbp
    411b:	48 89 e5             	mov    %rsp,%rbp
    411e:	48 83 ec 10          	sub    $0x10,%rsp
    4122:	48 89 7d f8          	mov    %rdi,-0x8(%rbp)
    4126:	48 89 75 f0          	mov    %rsi,-0x10(%rbp)
    412a:	48 8b 45 f8          	mov    -0x8(%rbp),%rax
    412e:	48 8b 55 f0          	mov    -0x10(%rbp),%rdx
    4132:	48 89 d6             	mov    %rdx,%rsi
    4135:	48 89 c7             	mov    %rax,%rdi
    4138:	e8 a5 06 00 00       	callq  47e2 <_ZNSt8__detail9_Map_baseImSt4pairIKmSt10shared_ptrIN15coroutine_mimic9CoroutineEEESaIS7_ENS_10_Select1stESt8equal_toImESt4hashImENS_18_Mod_range_hashingENS_20_Default_ranged_hashENS_20_Prime_rehash_policyENS_17_Hashtable_traitsILb0ELb0ELb1EEELb1EEixERS2_>
    413d:	c9                   	leaveq 
    413e:	c3                   	retq   
    413f:	90                   	nop

0000000000004140 <_ZNSt14__shared_countILN9__gnu_cxx12_Lock_policyE2EEaSERKS2_>:
    4140:	f3 0f 1e fa          	endbr64 
    4144:	55                   	push   %rbp
    4145:	48 89 e5             	mov    %rsp,%rbp
    4148:	48 83 ec 20          	sub    $0x20,%rsp
    414c:	48 89 7d e8          	mov    %rdi,-0x18(%rbp)
    4150:	48 89 75 e0          	mov    %rsi,-0x20(%rbp)
    4154:	48 8b 45 e0          	mov    -0x20(%rbp),%rax
    4158:	48 8b 00             	mov    (%rax),%rax
    415b:	48 89 45 f8          	mov    %rax,-0x8(%rbp)
    415f:	48 8b 45 e8          	mov    -0x18(%rbp),%rax
    4163:	48 8b 00             	mov    (%rax),%rax
    4166:	48 39 45 f8          	cmp    %rax,-0x8(%rbp)
    416a:	74 39                	je     41a5 <_ZNSt14__shared_countILN9__gnu_cxx12_Lock_policyE2EEaSERKS2_+0x65>
    416c:	48 83 7d f8 00       	cmpq   $0x0,-0x8(%rbp)
    4171:	74 0c                	je     417f <_ZNSt14__shared_countILN9__gnu_cxx12_Lock_policyE2EEaSERKS2_+0x3f>
    4173:	48 8b 45 f8          	mov    -0x8(%rbp),%rax
    4177:	48 89 c7             	mov    %rax,%rdi
    417a:	e8 6f 07 00 00       	callq  48ee <_ZNSt16_Sp_counted_baseILN9__gnu_cxx12_Lock_policyE2EE15_M_add_ref_copyEv>
    417f:	48 8b 45 e8          	mov    -0x18(%rbp),%rax
    4183:	48 8b 00             	mov    (%rax),%rax
    4186:	48 85 c0             	test   %rax,%rax
    4189:	74 0f                	je     419a <_ZNSt14__shared_countILN9__gnu_cxx12_Lock_policyE2EEaSERKS2_+0x5a>
    418b:	48 8b 45 e8          	mov    -0x18(%rbp),%rax
    418f:	48 8b 00             	mov    (%rax),%rax
    4192:	48 89 c7             	mov    %rax,%rdi
    4195:	e8 c8 05 00 00       	callq  4762 <_ZNSt16_Sp_counted_baseILN9__gnu_cxx12_Lock_policyE2EE10_M_releaseEv>
    419a:	48 8b 45 e8          	mov    -0x18(%rbp),%rax
    419e:	48 8b 55 f8          	mov    -0x8(%rbp),%rdx
    41a2:	48 89 10             	mov    %rdx,(%rax)
    41a5:	48 8b 45 e8          	mov    -0x18(%rbp),%rax
    41a9:	c9                   	leaveq 
    41aa:	c3                   	retq   
    41ab:	90                   	nop

00000000000041ac <_ZNSt13unordered_mapImSt10shared_ptrIN15coroutine_mimic9CoroutineEESt4hashImESt8equal_toImESaISt4pairIKmS3_EEE4findERS9_>:
    41ac:	f3 0f 1e fa          	endbr64 
    41b0:	55                   	push   %rbp
    41b1:	48 89 e5             	mov    %rsp,%rbp
    41b4:	48 83 ec 10          	sub    $0x10,%rsp
    41b8:	48 89 7d f8          	mov    %rdi,-0x8(%rbp)
    41bc:	48 89 75 f0          	mov    %rsi,-0x10(%rbp)
    41c0:	48 8b 45 f8          	mov    -0x8(%rbp),%rax
    41c4:	48 8b 55 f0          	mov    -0x10(%rbp),%rdx
    41c8:	48 89 d6             	mov    %rdx,%rsi
    41cb:	48 89 c7             	mov    %rax,%rdi
    41ce:	e8 43 07 00 00       	callq  4916 <_ZNSt10_HashtableImSt4pairIKmSt10shared_ptrIN15coroutine_mimic9CoroutineEEESaIS6_ENSt8__detail10_Select1stESt8equal_toImESt4hashImENS8_18_Mod_range_hashingENS8_20_Default_ranged_hashENS8_20_Prime_rehash_policyENS8_17_Hashtable_traitsILb0ELb0ELb1EEEE4findERS1_>
    41d3:	c9                   	leaveq 
    41d4:	c3                   	retq   

00000000000041d5 <_ZNSt8__detailneISt4pairIKmSt10shared_ptrIN15coroutine_mimic9CoroutineEEELb0EEEbRKNS_19_Node_iterator_baseIT_XT0_EEESC_>:
    41d5:	f3 0f 1e fa          	endbr64 
    41d9:	55                   	push   %rbp
    41da:	48 89 e5             	mov    %rsp,%rbp
    41dd:	48 89 7d f8          	mov    %rdi,-0x8(%rbp)
    41e1:	48 89 75 f0          	mov    %rsi,-0x10(%rbp)
    41e5:	48 8b 45 f8          	mov    -0x8(%rbp),%rax
    41e9:	48 8b 10             	mov    (%rax),%rdx
    41ec:	48 8b 45 f0          	mov    -0x10(%rbp),%rax
    41f0:	48 8b 00             	mov    (%rax),%rax
    41f3:	48 39 c2             	cmp    %rax,%rdx
    41f6:	0f 95 c0             	setne  %al
    41f9:	5d                   	pop    %rbp
    41fa:	c3                   	retq   
    41fb:	90                   	nop

00000000000041fc <_ZNSt14__shared_countILN9__gnu_cxx12_Lock_policyE2EEC1ERKS2_>:
    41fc:	f3 0f 1e fa          	endbr64 
    4200:	55                   	push   %rbp
    4201:	48 89 e5             	mov    %rsp,%rbp
    4204:	48 83 ec 10          	sub    $0x10,%rsp
    4208:	48 89 7d f8          	mov    %rdi,-0x8(%rbp)
    420c:	48 89 75 f0          	mov    %rsi,-0x10(%rbp)
    4210:	48 8b 45 f0          	mov    -0x10(%rbp),%rax
    4214:	48 8b 10             	mov    (%rax),%rdx
    4217:	48 8b 45 f8          	mov    -0x8(%rbp),%rax
    421b:	48 89 10             	mov    %rdx,(%rax)
    421e:	48 8b 45 f8          	mov    -0x8(%rbp),%rax
    4222:	48 8b 00             	mov    (%rax),%rax
    4225:	48 85 c0             	test   %rax,%rax
    4228:	74 0f                	je     4239 <_ZNSt14__shared_countILN9__gnu_cxx12_Lock_policyE2EEC1ERKS2_+0x3d>
    422a:	48 8b 45 f8          	mov    -0x8(%rbp),%rax
    422e:	48 8b 00             	mov    (%rax),%rax
    4231:	48 89 c7             	mov    %rax,%rdi
    4234:	e8 b5 06 00 00       	callq  48ee <_ZNSt16_Sp_counted_baseILN9__gnu_cxx12_Lock_policyE2EE15_M_add_ref_copyEv>
    4239:	90                   	nop
    423a:	c9                   	leaveq 
    423b:	c3                   	retq   

000000000000423c <_ZNKSt19__shared_ptr_accessIN15coroutine_mimic9CoroutineELN9__gnu_cxx12_Lock_policyE2ELb0ELb0EEptEv>:
    423c:	f3 0f 1e fa          	endbr64 
    4240:	55                   	push   %rbp
    4241:	48 89 e5             	mov    %rsp,%rbp
    4244:	48 83 ec 10          	sub    $0x10,%rsp
    4248:	48 89 7d f8          	mov    %rdi,-0x8(%rbp)
    424c:	48 8b 45 f8          	mov    -0x8(%rbp),%rax
    4250:	48 89 c7             	mov    %rax,%rdi
    4253:	e8 76 07 00 00       	callq  49ce <_ZNKSt19__shared_ptr_accessIN15coroutine_mimic9CoroutineELN9__gnu_cxx12_Lock_policyE2ELb0ELb0EE6_M_getEv>
    4258:	c9                   	leaveq 
    4259:	c3                   	retq   

000000000000425a <_ZNKSt8__detail20_Node_const_iteratorISt4pairIKmSt10shared_ptrIN15coroutine_mimic9CoroutineEEELb0ELb0EEptEv>:
    425a:	f3 0f 1e fa          	endbr64 
    425e:	55                   	push   %rbp
    425f:	48 89 e5             	mov    %rsp,%rbp
    4262:	48 83 ec 10          	sub    $0x10,%rsp
    4266:	48 89 7d f8          	mov    %rdi,-0x8(%rbp)
    426a:	48 8b 45 f8          	mov    -0x8(%rbp),%rax
    426e:	48 8b 00             	mov    (%rax),%rax
    4271:	48 89 c7             	mov    %rax,%rdi
    4274:	e8 73 07 00 00       	callq  49ec <_ZNSt8__detail21_Hash_node_value_baseISt4pairIKmSt10shared_ptrIN15coroutine_mimic9CoroutineEEEE9_M_valptrEv>
    4279:	c9                   	leaveq 
    427a:	c3                   	retq   
    427b:	90                   	nop

000000000000427c <_ZNSt10unique_ptrIhSt14default_deleteIhEE5resetEPh>:
    427c:	f3 0f 1e fa          	endbr64 
    4280:	55                   	push   %rbp
    4281:	48 89 e5             	mov    %rsp,%rbp
    4284:	53                   	push   %rbx
    4285:	48 83 ec 18          	sub    $0x18,%rsp
    4289:	48 89 7d e8          	mov    %rdi,-0x18(%rbp)
    428d:	48 89 75 e0          	mov    %rsi,-0x20(%rbp)
    4291:	48 8b 45 e8          	mov    -0x18(%rbp),%rax
    4295:	48 89 c7             	mov    %rax,%rdi
    4298:	e8 b9 01 00 00       	callq  4456 <_ZNSt15__uniq_ptr_implIhSt14default_deleteIhEE6_M_ptrEv>
    429d:	48 89 c2             	mov    %rax,%rdx
    42a0:	48 8d 45 e0          	lea    -0x20(%rbp),%rax
    42a4:	48 89 c6             	mov    %rax,%rsi
    42a7:	48 89 d7             	mov    %rdx,%rdi
    42aa:	e8 5f 07 00 00       	callq  4a0e <_ZSt4swapIPhENSt9enable_ifIXsrSt6__and_IJSt6__not_ISt15__is_tuple_likeIT_EESt21is_move_constructibleIS5_ESt18is_move_assignableIS5_EEE5valueEvE4typeERS5_SF_>
    42af:	48 8b 45 e0          	mov    -0x20(%rbp),%rax
    42b3:	48 85 c0             	test   %rax,%rax
    42b6:	74 29                	je     42e1 <_ZNSt10unique_ptrIhSt14default_deleteIhEE5resetEPh+0x65>
    42b8:	48 8b 45 e8          	mov    -0x18(%rbp),%rax
    42bc:	48 89 c7             	mov    %rax,%rdi
    42bf:	e8 b0 01 00 00       	callq  4474 <_ZNSt10unique_ptrIhSt14default_deleteIhEE11get_deleterEv>
    42c4:	48 89 c3             	mov    %rax,%rbx
    42c7:	48 8d 45 e0          	lea    -0x20(%rbp),%rax
    42cb:	48 89 c7             	mov    %rax,%rdi
    42ce:	e8 bf 01 00 00       	callq  4492 <_ZSt4moveIRPhEONSt16remove_referenceIT_E4typeEOS3_>
    42d3:	48 8b 00             	mov    (%rax),%rax
    42d6:	48 89 c6             	mov    %rax,%rsi
    42d9:	48 89 df             	mov    %rbx,%rdi
    42dc:	e8 c3 01 00 00       	callq  44a4 <_ZNKSt14default_deleteIhEclEPh>
    42e1:	90                   	nop
    42e2:	48 83 c4 18          	add    $0x18,%rsp
    42e6:	5b                   	pop    %rbx
    42e7:	5d                   	pop    %rbp
    42e8:	c3                   	retq   
    42e9:	90                   	nop

00000000000042ea <_ZNKSt8functionIFvPN15coroutine_mimic9SchedulerESt3anyEEclES2_S3_>:
    42ea:	f3 0f 1e fa          	endbr64 
    42ee:	55                   	push   %rbp
    42ef:	48 89 e5             	mov    %rsp,%rbp
    42f2:	41 54                	push   %r12
    42f4:	53                   	push   %rbx
    42f5:	48 83 ec 20          	sub    $0x20,%rsp
    42f9:	48 89 7d e8          	mov    %rdi,-0x18(%rbp)
    42fd:	48 89 75 e0          	mov    %rsi,-0x20(%rbp)
    4301:	48 89 55 d8          	mov    %rdx,-0x28(%rbp)
    4305:	48 8b 45 e8          	mov    -0x18(%rbp),%rax
    4309:	48 89 c7             	mov    %rax,%rdi
    430c:	e8 75 f4 ff ff       	callq  3786 <_ZNKSt14_Function_base8_M_emptyEv>
    4311:	84 c0                	test   %al,%al
    4313:	74 05                	je     431a <_ZNKSt8functionIFvPN15coroutine_mimic9SchedulerESt3anyEEclES2_S3_+0x30>
    4315:	e8 66 e0 ff ff       	callq  2380 <_ZSt25__throw_bad_function_callv@plt>
    431a:	48 8b 45 e8          	mov    -0x18(%rbp),%rax
    431e:	48 8b 58 18          	mov    0x18(%rax),%rbx
    4322:	48 8b 45 d8          	mov    -0x28(%rbp),%rax
    4326:	48 89 c7             	mov    %rax,%rdi
    4329:	e8 59 07 00 00       	callq  4a87 <_ZSt7forwardISt3anyEOT_RNSt16remove_referenceIS1_E4typeE>
    432e:	49 89 c4             	mov    %rax,%r12
    4331:	48 8d 45 e0          	lea    -0x20(%rbp),%rax
    4335:	48 89 c7             	mov    %rax,%rdi
    4338:	e8 7c 03 00 00       	callq  46b9 <_ZSt7forwardIPN15coroutine_mimic9SchedulerEEOT_RNSt16remove_referenceIS3_E4typeE>
    433d:	48 89 c1             	mov    %rax,%rcx
    4340:	48 8b 45 e8          	mov    -0x18(%rbp),%rax
    4344:	4c 89 e2             	mov    %r12,%rdx
    4347:	48 89 ce             	mov    %rcx,%rsi
    434a:	48 89 c7             	mov    %rax,%rdi
    434d:	ff d3                	callq  *%rbx
    434f:	90                   	nop
    4350:	48 83 c4 20          	add    $0x20,%rsp
    4354:	5b                   	pop    %rbx
    4355:	41 5c                	pop    %r12
    4357:	5d                   	pop    %rbp
    4358:	c3                   	retq   
    4359:	90                   	nop

000000000000435a <_ZNSt13unordered_mapImSt10shared_ptrIN15coroutine_mimic9CoroutineEESt4hashImESt8equal_toImESaISt4pairIKmS3_EEE5eraseENSt8__detail20_Node_const_iteratorISA_Lb0ELb0EEE>:
    435a:	f3 0f 1e fa          	endbr64 
    435e:	55                   	push   %rbp
    435f:	48 89 e5             	mov    %rsp,%rbp
    4362:	48 83 ec 10          	sub    $0x10,%rsp
    4366:	48 89 7d f8          	mov    %rdi,-0x8(%rbp)
    436a:	48 89 75 f0          	mov    %rsi,-0x10(%rbp)
    436e:	48 8b 45 f8          	mov    -0x8(%rbp),%rax
    4372:	48 8b 55 f0          	mov    -0x10(%rbp),%rdx
    4376:	48 89 d6             	mov    %rdx,%rsi
    4379:	48 89 c7             	mov    %rax,%rdi
    437c:	e8 19 07 00 00       	callq  4a9a <_ZNSt10_HashtableImSt4pairIKmSt10shared_ptrIN15coroutine_mimic9CoroutineEEESaIS6_ENSt8__detail10_Select1stESt8equal_toImESt4hashImENS8_18_Mod_range_hashingENS8_20_Default_ranged_hashENS8_20_Prime_rehash_policyENS8_17_Hashtable_traitsILb0ELb0ELb1EEEE5eraseENS8_20_Node_const_iteratorIS6_Lb0ELb0EEE>
    4381:	c9                   	leaveq 
    4382:	c3                   	retq   

0000000000004383 <_ZNSt8__detaileqISt4pairIKmSt10shared_ptrIN15coroutine_mimic9CoroutineEEELb0EEEbRKNS_19_Node_iterator_baseIT_XT0_EEESC_>:
    4383:	f3 0f 1e fa          	endbr64 
    4387:	55                   	push   %rbp
    4388:	48 89 e5             	mov    %rsp,%rbp
    438b:	48 89 7d f8          	mov    %rdi,-0x8(%rbp)
    438f:	48 89 75 f0          	mov    %rsi,-0x10(%rbp)
    4393:	48 8b 45 f8          	mov    -0x8(%rbp),%rax
    4397:	48 8b 10             	mov    (%rax),%rdx
    439a:	48 8b 45 f0          	mov    -0x10(%rbp),%rax
    439e:	48 8b 00             	mov    (%rax),%rax
    43a1:	48 39 c2             	cmp    %rax,%rdx
    43a4:	0f 94 c0             	sete   %al
    43a7:	5d                   	pop    %rbp
    43a8:	c3                   	retq   
    43a9:	90                   	nop

00000000000043aa <_ZNSt7__cxx1112basic_stringIcSt11char_traitsIcESaIcEEC1IPcvEET_S7_RKS3_>:
    43aa:	f3 0f 1e fa          	endbr64 
    43ae:	55                   	push   %rbp
    43af:	48 89 e5             	mov    %rsp,%rbp
    43b2:	53                   	push   %rbx
    43b3:	48 83 ec 28          	sub    $0x28,%rsp
    43b7:	48 89 7d e8          	mov    %rdi,-0x18(%rbp)
    43bb:	48 89 75 e0          	mov    %rsi,-0x20(%rbp)
    43bf:	48 89 55 d8          	mov    %rdx,-0x28(%rbp)
    43c3:	48 89 4d d0          	mov    %rcx,-0x30(%rbp)
    43c7:	48 8b 5d e8          	mov    -0x18(%rbp),%rbx
    43cb:	48 8b 45 e8          	mov    -0x18(%rbp),%rax
    43cf:	48 89 c7             	mov    %rax,%rdi
    43d2:	e8 59 e0 ff ff       	callq  2430 <_ZNSt7__cxx1112basic_stringIcSt11char_traitsIcESaIcEE13_M_local_dataEv@plt>
    43d7:	48 89 c1             	mov    %rax,%rcx
    43da:	48 8b 45 d0          	mov    -0x30(%rbp),%rax
    43de:	48 89 c2             	mov    %rax,%rdx
    43e1:	48 89 ce             	mov    %rcx,%rsi
    43e4:	48 89 df             	mov    %rbx,%rdi
    43e7:	e8 d4 e0 ff ff       	callq  24c0 <_ZNSt7__cxx1112basic_stringIcSt11char_traitsIcESaIcEE12_Alloc_hiderC1EPcRKS3_@plt>
    43ec:	48 8b 55 d8          	mov    -0x28(%rbp),%rdx
    43f0:	48 8b 4d e0          	mov    -0x20(%rbp),%rcx
    43f4:	48 8b 45 e8          	mov    -0x18(%rbp),%rax
    43f8:	48 89 ce             	mov    %rcx,%rsi
    43fb:	48 89 c7             	mov    %rax,%rdi
    43fe:	e8 ff 06 00 00       	callq  4b02 <_ZNSt7__cxx1112basic_stringIcSt11char_traitsIcESaIcEE12_M_constructIPcEEvT_S7_>
    4403:	eb 1e                	jmp    4423 <_ZNSt7__cxx1112basic_stringIcSt11char_traitsIcESaIcEEC1IPcvEET_S7_RKS3_+0x79>
    4405:	f3 0f 1e fa          	endbr64 
    4409:	48 89 c3             	mov    %rax,%rbx
    440c:	48 8b 45 e8          	mov    -0x18(%rbp),%rax
    4410:	48 89 c7             	mov    %rax,%rdi
    4413:	e8 44 f9 ff ff       	callq  3d5c <_ZNSt7__cxx1112basic_stringIcSt11char_traitsIcESaIcEE12_Alloc_hiderD1Ev>
    4418:	48 89 d8             	mov    %rbx,%rax
    441b:	48 89 c7             	mov    %rax,%rdi
    441e:	e8 7d e1 ff ff       	callq  25a0 <_Unwind_Resume@plt>
    4423:	48 83 c4 28          	add    $0x28,%rsp
    4427:	5b                   	pop    %rbx
    4428:	5d                   	pop    %rbp
    4429:	c3                   	retq   

000000000000442a <_ZNSt11_Tuple_implILm0EJPhSt14default_deleteIhEEEC1Ev>:
    442a:	f3 0f 1e fa          	endbr64 
    442e:	55                   	push   %rbp
    442f:	48 89 e5             	mov    %rsp,%rbp
    4432:	48 83 ec 10          	sub    $0x10,%rsp
    4436:	48 89 7d f8          	mov    %rdi,-0x8(%rbp)
    443a:	48 8b 45 f8          	mov    -0x8(%rbp),%rax
    443e:	48 89 c7             	mov    %rax,%rdi
    4441:	e8 ee 06 00 00       	callq  4b34 <_ZNSt11_Tuple_implILm1EJSt14default_deleteIhEEEC1Ev>
    4446:	48 8b 45 f8          	mov    -0x8(%rbp),%rax
    444a:	48 89 c7             	mov    %rax,%rdi
    444d:	e8 02 07 00 00       	callq  4b54 <_ZNSt10_Head_baseILm0EPhLb0EEC1Ev>
    4452:	90                   	nop
    4453:	c9                   	leaveq 
    4454:	c3                   	retq   
    4455:	90                   	nop

0000000000004456 <_ZNSt15__uniq_ptr_implIhSt14default_deleteIhEE6_M_ptrEv>:
    4456:	f3 0f 1e fa          	endbr64 
    445a:	55                   	push   %rbp
    445b:	48 89 e5             	mov    %rsp,%rbp
    445e:	48 83 ec 10          	sub    $0x10,%rsp
    4462:	48 89 7d f8          	mov    %rdi,-0x8(%rbp)
    4466:	48 8b 45 f8          	mov    -0x8(%rbp),%rax
    446a:	48 89 c7             	mov    %rax,%rdi
    446d:	e8 fc 06 00 00       	callq  4b6e <_ZSt3getILm0EJPhSt14default_deleteIhEEERNSt13tuple_elementIXT_ESt5tupleIJDpT0_EEE4typeERS7_>
    4472:	c9                   	leaveq 
    4473:	c3                   	retq   

0000000000004474 <_ZNSt10unique_ptrIhSt14default_deleteIhEE11get_deleterEv>:
    4474:	f3 0f 1e fa          	endbr64 
    4478:	55                   	push   %rbp
    4479:	48 89 e5             	mov    %rsp,%rbp
    447c:	48 83 ec 10          	sub    $0x10,%rsp
    4480:	48 89 7d f8          	mov    %rdi,-0x8(%rbp)
    4484:	48 8b 45 f8          	mov    -0x8(%rbp),%rax
    4488:	48 89 c7             	mov    %rax,%rdi
    448b:	e8 fc 06 00 00       	callq  4b8c <_ZNSt15__uniq_ptr_implIhSt14default_deleteIhEE10_M_deleterEv>
    4490:	c9                   	leaveq 
    4491:	c3                   	retq   

0000000000004492 <_ZSt4moveIRPhEONSt16remove_referenceIT_E4typeEOS3_>:
    4492:	f3 0f 1e fa          	endbr64 
    4496:	55                   	push   %rbp
    4497:	48 89 e5             	mov    %rsp,%rbp
    449a:	48 89 7d f8          	mov    %rdi,-0x8(%rbp)
    449e:	48 8b 45 f8          	mov    -0x8(%rbp),%rax
    44a2:	5d                   	pop    %rbp
    44a3:	c3                   	retq   

00000000000044a4 <_ZNKSt14default_deleteIhEclEPh>:
    44a4:	f3 0f 1e fa          	endbr64 
    44a8:	55                   	push   %rbp
    44a9:	48 89 e5             	mov    %rsp,%rbp
    44ac:	48 83 ec 10          	sub    $0x10,%rsp
    44b0:	48 89 7d f8          	mov    %rdi,-0x8(%rbp)
    44b4:	48 89 75 f0          	mov    %rsi,-0x10(%rbp)
    44b8:	48 8b 45 f0          	mov    -0x10(%rbp),%rax
    44bc:	48 85 c0             	test   %rax,%rax
    44bf:	74 0d                	je     44ce <_ZNKSt14default_deleteIhEclEPh+0x2a>
    44c1:	be 01 00 00 00       	mov    $0x1,%esi
    44c6:	48 89 c7             	mov    %rax,%rdi
    44c9:	e8 d2 df ff ff       	callq  24a0 <_ZdlPvm@plt>
    44ce:	90                   	nop
    44cf:	c9                   	leaveq 
    44d0:	c3                   	retq   
    44d1:	90                   	nop

00000000000044d2 <_ZNKSt8functionIFvPN15coroutine_mimic9SchedulerESt3anyEEcvbEv>:
    44d2:	f3 0f 1e fa          	endbr64 
    44d6:	55                   	push   %rbp
    44d7:	48 89 e5             	mov    %rsp,%rbp
    44da:	48 83 ec 10          	sub    $0x10,%rsp
    44de:	48 89 7d f8          	mov    %rdi,-0x8(%rbp)
    44e2:	48 8b 45 f8          	mov    -0x8(%rbp),%rax
    44e6:	48 89 c7             	mov    %rax,%rdi
    44e9:	e8 98 f2 ff ff       	callq  3786 <_ZNKSt14_Function_base8_M_emptyEv>
    44ee:	83 f0 01             	xor    $0x1,%eax
    44f1:	c9                   	leaveq 
    44f2:	c3                   	retq   
    44f3:	90                   	nop

00000000000044f4 <_ZNSt10_HashtableImSt4pairIKmSt10shared_ptrIN15coroutine_mimic9CoroutineEEESaIS6_ENSt8__detail10_Select1stESt8equal_toImESt4hashImENS8_18_Mod_range_hashingENS8_20_Default_ranged_hashENS8_20_Prime_rehash_policyENS8_17_Hashtable_traitsILb0ELb0ELb1EEEE3endEv>:
    44f4:	f3 0f 1e fa          	endbr64 
    44f8:	55                   	push   %rbp
    44f9:	48 89 e5             	mov    %rsp,%rbp
    44fc:	48 83 ec 20          	sub    $0x20,%rsp
    4500:	48 89 7d e8          	mov    %rdi,-0x18(%rbp)
    4504:	64 48 8b 04 25 28 00 	mov    %fs:0x28,%rax
    450b:	00 00 
    450d:	48 89 45 f8          	mov    %rax,-0x8(%rbp)
    4511:	31 c0                	xor    %eax,%eax
    4513:	48 8d 45 f0          	lea    -0x10(%rbp),%rax
    4517:	be 00 00 00 00       	mov    $0x0,%esi
    451c:	48 89 c7             	mov    %rax,%rdi
    451f:	e8 86 06 00 00       	callq  4baa <_ZNSt8__detail14_Node_iteratorISt4pairIKmSt10shared_ptrIN15coroutine_mimic9CoroutineEEELb0ELb0EEC1EPNS_10_Hash_nodeIS7_Lb0EEE>
    4524:	48 8b 45 f0          	mov    -0x10(%rbp),%rax
    4528:	48 8b 55 f8          	mov    -0x8(%rbp),%rdx
    452c:	64 48 33 14 25 28 00 	xor    %fs:0x28,%rdx
    4533:	00 00 
    4535:	74 05                	je     453c <_ZNSt10_HashtableImSt4pairIKmSt10shared_ptrIN15coroutine_mimic9CoroutineEEESaIS6_ENSt8__detail10_Select1stESt8equal_toImESt4hashImENS8_18_Mod_range_hashingENS8_20_Default_ranged_hashENS8_20_Prime_rehash_policyENS8_17_Hashtable_traitsILb0ELb0ELb1EEEE3endEv+0x48>
    4537:	e8 b4 df ff ff       	callq  24f0 <__stack_chk_fail@plt>
    453c:	c9                   	leaveq 
    453d:	c3                   	retq   

000000000000453e <_ZNKSt15__uniq_ptr_implIhSt14default_deleteIhEE6_M_ptrEv>:
    453e:	f3 0f 1e fa          	endbr64 
    4542:	55                   	push   %rbp
    4543:	48 89 e5             	mov    %rsp,%rbp
    4546:	48 83 ec 10          	sub    $0x10,%rsp
    454a:	48 89 7d f8          	mov    %rdi,-0x8(%rbp)
    454e:	48 8b 45 f8          	mov    -0x8(%rbp),%rax
    4552:	48 89 c7             	mov    %rax,%rdi
    4555:	e8 7a 06 00 00       	callq  4bd4 <_ZSt3getILm0EJPhSt14default_deleteIhEEERKNSt13tuple_elementIXT_ESt5tupleIJDpT0_EEE4typeERKS7_>
    455a:	48 8b 00             	mov    (%rax),%rax
    455d:	c9                   	leaveq 
    455e:	c3                   	retq   
    455f:	90                   	nop

0000000000004560 <_ZN9__gnu_cxx13new_allocatorINSt8__detail10_Hash_nodeISt4pairIKmSt10shared_ptrIN15coroutine_mimic9CoroutineEEELb0EEEEC1Ev>:
    4560:	f3 0f 1e fa          	endbr64 
    4564:	55                   	push   %rbp
    4565:	48 89 e5             	mov    %rsp,%rbp
    4568:	48 89 7d f8          	mov    %rdi,-0x8(%rbp)
    456c:	90                   	nop
    456d:	5d                   	pop    %rbp
    456e:	c3                   	retq   
    456f:	90                   	nop

0000000000004570 <_ZN9__gnu_cxx13new_allocatorINSt8__detail10_Hash_nodeISt4pairIKmSt10shared_ptrIN15coroutine_mimic9CoroutineEEELb0EEEED1Ev>:
    4570:	f3 0f 1e fa          	endbr64 
    4574:	55                   	push   %rbp
    4575:	48 89 e5             	mov    %rsp,%rbp
    4578:	48 89 7d f8          	mov    %rdi,-0x8(%rbp)
    457c:	90                   	nop
    457d:	5d                   	pop    %rbp
    457e:	c3                   	retq   
    457f:	90                   	nop

0000000000004580 <_ZNSt10_HashtableImSt4pairIKmSt10shared_ptrIN15coroutine_mimic9CoroutineEEESaIS6_ENSt8__detail10_Select1stESt8equal_toImESt4hashImENS8_18_Mod_range_hashingENS8_20_Default_ranged_hashENS8_20_Prime_rehash_policyENS8_17_Hashtable_traitsILb0ELb0ELb1EEEE5clearEv>:
    4580:	f3 0f 1e fa          	endbr64 
    4584:	55                   	push   %rbp
    4585:	48 89 e5             	mov    %rsp,%rbp
    4588:	48 83 ec 10          	sub    $0x10,%rsp
    458c:	48 89 7d f8          	mov    %rdi,-0x8(%rbp)
    4590:	48 8b 45 f8          	mov    -0x8(%rbp),%rax
    4594:	48 89 c7             	mov    %rax,%rdi
    4597:	e8 56 06 00 00       	callq  4bf2 <_ZNKSt10_HashtableImSt4pairIKmSt10shared_ptrIN15coroutine_mimic9CoroutineEEESaIS6_ENSt8__detail10_Select1stESt8equal_toImESt4hashImENS8_18_Mod_range_hashingENS8_20_Default_ranged_hashENS8_20_Prime_rehash_policyENS8_17_Hashtable_traitsILb0ELb0ELb1EEEE8_M_beginEv>
    459c:	48 89 c2             	mov    %rax,%rdx
    459f:	48 8b 45 f8          	mov    -0x8(%rbp),%rax
    45a3:	48 89 d6             	mov    %rdx,%rsi
    45a6:	48 89 c7             	mov    %rax,%rdi
    45a9:	e8 5a 06 00 00       	callq  4c08 <_ZNSt8__detail16_Hashtable_allocISaINS_10_Hash_nodeISt4pairIKmSt10shared_ptrIN15coroutine_mimic9CoroutineEEELb0EEEEE19_M_deallocate_nodesEPS9_>
    45ae:	48 8b 45 f8          	mov    -0x8(%rbp),%rax
    45b2:	48 8b 40 08          	mov    0x8(%rax),%rax
    45b6:	48 8d 14 c5 00 00 00 	lea    0x0(,%rax,8),%rdx
    45bd:	00 
    45be:	48 8b 45 f8          	mov    -0x8(%rbp),%rax
    45c2:	48 8b 00             	mov    (%rax),%rax
    45c5:	be 00 00 00 00       	mov    $0x0,%esi
    45ca:	48 89 c7             	mov    %rax,%rdi
    45cd:	e8 fe dd ff ff       	callq  23d0 <memset@plt>
    45d2:	48 8b 45 f8          	mov    -0x8(%rbp),%rax
    45d6:	48 c7 40 18 00 00 00 	movq   $0x0,0x18(%rax)
    45dd:	00 
    45de:	48 8b 45 f8          	mov    -0x8(%rbp),%rax
    45e2:	48 c7 40 10 00 00 00 	movq   $0x0,0x10(%rax)
    45e9:	00 
    45ea:	90                   	nop
    45eb:	c9                   	leaveq 
    45ec:	c3                   	retq   
    45ed:	90                   	nop

00000000000045ee <_ZNSt10_HashtableImSt4pairIKmSt10shared_ptrIN15coroutine_mimic9CoroutineEEESaIS6_ENSt8__detail10_Select1stESt8equal_toImESt4hashImENS8_18_Mod_range_hashingENS8_20_Default_ranged_hashENS8_20_Prime_rehash_policyENS8_17_Hashtable_traitsILb0ELb0ELb1EEEE21_M_deallocate_bucketsEv>:
    45ee:	f3 0f 1e fa          	endbr64 
    45f2:	55                   	push   %rbp
    45f3:	48 89 e5             	mov    %rsp,%rbp
    45f6:	48 83 ec 10          	sub    $0x10,%rsp
    45fa:	48 89 7d f8          	mov    %rdi,-0x8(%rbp)
    45fe:	48 8b 45 f8          	mov    -0x8(%rbp),%rax
    4602:	48 8b 50 08          	mov    0x8(%rax),%rdx
    4606:	48 8b 45 f8          	mov    -0x8(%rbp),%rax
    460a:	48 8b 08             	mov    (%rax),%rcx
    460d:	48 8b 45 f8          	mov    -0x8(%rbp),%rax
    4611:	48 89 ce             	mov    %rcx,%rsi
    4614:	48 89 c7             	mov    %rax,%rdi
    4617:	e8 38 06 00 00       	callq  4c54 <_ZNSt10_HashtableImSt4pairIKmSt10shared_ptrIN15coroutine_mimic9CoroutineEEESaIS6_ENSt8__detail10_Select1stESt8equal_toImESt4hashImENS8_18_Mod_range_hashingENS8_20_Default_ranged_hashENS8_20_Prime_rehash_policyENS8_17_Hashtable_traitsILb0ELb0ELb1EEEE21_M_deallocate_bucketsEPPNS8_15_Hash_node_baseEm>
    461c:	90                   	nop
    461d:	c9                   	leaveq 
    461e:	c3                   	retq   
    461f:	90                   	nop

0000000000004620 <_ZNSt15__uniq_ptr_implIhSt14default_deleteIhEEC1EPh>:
    4620:	f3 0f 1e fa          	endbr64 
    4624:	55                   	push   %rbp
    4625:	48 89 e5             	mov    %rsp,%rbp
    4628:	53                   	push   %rbx
    4629:	48 83 ec 18          	sub    $0x18,%rsp
    462d:	48 89 7d e8          	mov    %rdi,-0x18(%rbp)
    4631:	48 89 75 e0          	mov    %rsi,-0x20(%rbp)
    4635:	48 8b 45 e8          	mov    -0x18(%rbp),%rax
    4639:	48 89 c7             	mov    %rax,%rdi
    463c:	e8 3b f7 ff ff       	callq  3d7c <_ZNSt5tupleIJPhSt14default_deleteIhEEEC1IS0_S2_Lb1EEEv>
    4641:	48 8b 5d e0          	mov    -0x20(%rbp),%rbx
    4645:	48 8b 45 e8          	mov    -0x18(%rbp),%rax
    4649:	48 89 c7             	mov    %rax,%rdi
    464c:	e8 05 fe ff ff       	callq  4456 <_ZNSt15__uniq_ptr_implIhSt14default_deleteIhEE6_M_ptrEv>
    4651:	48 89 18             	mov    %rbx,(%rax)
    4654:	90                   	nop
    4655:	48 83 c4 18          	add    $0x18,%rsp
    4659:	5b                   	pop    %rbx
    465a:	5d                   	pop    %rbp
    465b:	c3                   	retq   

000000000000465c <_ZNSt8__detail19_Node_iterator_baseISt4pairIKmSt10shared_ptrIN15coroutine_mimic9CoroutineEEELb0EEC1EPNS_10_Hash_nodeIS7_Lb0EEE>:
    465c:	f3 0f 1e fa          	endbr64 
    4660:	55                   	push   %rbp
    4661:	48 89 e5             	mov    %rsp,%rbp
    4664:	48 89 7d f8          	mov    %rdi,-0x8(%rbp)
    4668:	48 89 75 f0          	mov    %rsi,-0x10(%rbp)
    466c:	48 8b 45 f8          	mov    -0x8(%rbp),%rax
    4670:	48 8b 55 f0          	mov    -0x10(%rbp),%rdx
    4674:	48 89 10             	mov    %rdx,(%rax)
    4677:	90                   	nop
    4678:	5d                   	pop    %rbp
    4679:	c3                   	retq   

000000000000467a <_ZNSaIN15coroutine_mimic9CoroutineEEC1Ev>:
    467a:	f3 0f 1e fa          	endbr64 
    467e:	55                   	push   %rbp
    467f:	48 89 e5             	mov    %rsp,%rbp
    4682:	48 83 ec 10          	sub    $0x10,%rsp
    4686:	48 89 7d f8          	mov    %rdi,-0x8(%rbp)
    468a:	48 8b 45 f8          	mov    -0x8(%rbp),%rax
    468e:	48 89 c7             	mov    %rax,%rdi
    4691:	e8 0a 06 00 00       	callq  4ca0 <_ZN9__gnu_cxx13new_allocatorIN15coroutine_mimic9CoroutineEEC1Ev>
    4696:	90                   	nop
    4697:	c9                   	leaveq 
    4698:	c3                   	retq   
    4699:	90                   	nop

000000000000469a <_ZNSaIN15coroutine_mimic9CoroutineEED1Ev>:
    469a:	f3 0f 1e fa          	endbr64 
    469e:	55                   	push   %rbp
    469f:	48 89 e5             	mov    %rsp,%rbp
    46a2:	48 83 ec 10          	sub    $0x10,%rsp
    46a6:	48 89 7d f8          	mov    %rdi,-0x8(%rbp)
    46aa:	48 8b 45 f8          	mov    -0x8(%rbp),%rax
    46ae:	48 89 c7             	mov    %rax,%rdi
    46b1:	e8 fa 05 00 00       	callq  4cb0 <_ZN9__gnu_cxx13new_allocatorIN15coroutine_mimic9CoroutineEED1Ev>
    46b6:	90                   	nop
    46b7:	c9                   	leaveq 
    46b8:	c3                   	retq   

00000000000046b9 <_ZSt7forwardIPN15coroutine_mimic9SchedulerEEOT_RNSt16remove_referenceIS3_E4typeE>:
    46b9:	f3 0f 1e fa          	endbr64 
    46bd:	55                   	push   %rbp
    46be:	48 89 e5             	mov    %rsp,%rbp
    46c1:	48 89 7d f8          	mov    %rdi,-0x8(%rbp)
    46c5:	48 8b 45 f8          	mov    -0x8(%rbp),%rax
    46c9:	5d                   	pop    %rbp
    46ca:	c3                   	retq   

00000000000046cb <_ZSt7forwardIRSt8functionIFvPN15coroutine_mimic9SchedulerESt3anyEEEOT_RNSt16remove_referenceIS8_E4typeE>:
    46cb:	f3 0f 1e fa          	endbr64 
    46cf:	55                   	push   %rbp
    46d0:	48 89 e5             	mov    %rsp,%rbp
    46d3:	48 89 7d f8          	mov    %rdi,-0x8(%rbp)
    46d7:	48 8b 45 f8          	mov    -0x8(%rbp),%rax
    46db:	5d                   	pop    %rbp
    46dc:	c3                   	retq   

00000000000046dd <_ZSt7forwardIRSt3anyEOT_RNSt16remove_referenceIS2_E4typeE>:
    46dd:	f3 0f 1e fa          	endbr64 
    46e1:	55                   	push   %rbp
    46e2:	48 89 e5             	mov    %rsp,%rbp
    46e5:	48 89 7d f8          	mov    %rdi,-0x8(%rbp)
    46e9:	48 8b 45 f8          	mov    -0x8(%rbp),%rax
    46ed:	5d                   	pop    %rbp
    46ee:	c3                   	retq   

00000000000046ef <_ZSt15allocate_sharedIN15coroutine_mimic9CoroutineESaIS1_EJPNS0_9SchedulerERSt8functionIFvS4_St3anyEERS6_EESt10shared_ptrIT_ERKT0_DpOT1_>:
    46ef:	f3 0f 1e fa          	endbr64 
    46f3:	55                   	push   %rbp
    46f4:	48 89 e5             	mov    %rsp,%rbp
    46f7:	41 54                	push   %r12
    46f9:	53                   	push   %rbx
    46fa:	48 83 ec 30          	sub    $0x30,%rsp
    46fe:	48 89 7d e8          	mov    %rdi,-0x18(%rbp)
    4702:	48 89 75 e0          	mov    %rsi,-0x20(%rbp)
    4706:	48 89 55 d8          	mov    %rdx,-0x28(%rbp)
    470a:	48 89 4d d0          	mov    %rcx,-0x30(%rbp)
    470e:	4c 89 45 c8          	mov    %r8,-0x38(%rbp)
    4712:	48 8b 45 c8          	mov    -0x38(%rbp),%rax
    4716:	48 89 c7             	mov    %rax,%rdi
    4719:	e8 bf ff ff ff       	callq  46dd <_ZSt7forwardIRSt3anyEOT_RNSt16remove_referenceIS2_E4typeE>
    471e:	49 89 c4             	mov    %rax,%r12
    4721:	48 8b 45 d0          	mov    -0x30(%rbp),%rax
    4725:	48 89 c7             	mov    %rax,%rdi
    4728:	e8 9e ff ff ff       	callq  46cb <_ZSt7forwardIRSt8functionIFvPN15coroutine_mimic9SchedulerESt3anyEEEOT_RNSt16remove_referenceIS8_E4typeE>
    472d:	48 89 c3             	mov    %rax,%rbx
    4730:	48 8b 45 d8          	mov    -0x28(%rbp),%rax
    4734:	48 89 c7             	mov    %rax,%rdi
    4737:	e8 7d ff ff ff       	callq  46b9 <_ZSt7forwardIPN15coroutine_mimic9SchedulerEEOT_RNSt16remove_referenceIS3_E4typeE>
    473c:	48 89 c2             	mov    %rax,%rdx
    473f:	48 8b 75 e0          	mov    -0x20(%rbp),%rsi
    4743:	48 8b 45 e8          	mov    -0x18(%rbp),%rax
    4747:	4d 89 e0             	mov    %r12,%r8
    474a:	48 89 d9             	mov    %rbx,%rcx
    474d:	48 89 c7             	mov    %rax,%rdi
    4750:	e8 6b 05 00 00       	callq  4cc0 <_ZNSt10shared_ptrIN15coroutine_mimic9CoroutineEEC1ISaIS1_EJPNS0_9SchedulerERSt8functionIFvS6_St3anyEERS8_EEESt20_Sp_alloc_shared_tagIT_EDpOT0_>
    4755:	48 8b 45 e8          	mov    -0x18(%rbp),%rax
    4759:	48 83 c4 30          	add    $0x30,%rsp
    475d:	5b                   	pop    %rbx
    475e:	41 5c                	pop    %r12
    4760:	5d                   	pop    %rbp
    4761:	c3                   	retq   

0000000000004762 <_ZNSt16_Sp_counted_baseILN9__gnu_cxx12_Lock_policyE2EE10_M_releaseEv>:
    4762:	f3 0f 1e fa          	endbr64 
    4766:	55                   	push   %rbp
    4767:	48 89 e5             	mov    %rsp,%rbp
    476a:	48 83 ec 10          	sub    $0x10,%rsp
    476e:	48 89 7d f8          	mov    %rdi,-0x8(%rbp)
    4772:	48 8b 45 f8          	mov    -0x8(%rbp),%rax
    4776:	48 83 c0 08          	add    $0x8,%rax
    477a:	be ff ff ff ff       	mov    $0xffffffff,%esi
    477f:	48 89 c7             	mov    %rax,%rdi
    4782:	e8 ea ed ff ff       	callq  3571 <_ZN9__gnu_cxxL27__exchange_and_add_dispatchEPii>
    4787:	83 f8 01             	cmp    $0x1,%eax
    478a:	0f 94 c0             	sete   %al
    478d:	84 c0                	test   %al,%al
    478f:	74 4d                	je     47de <_ZNSt16_Sp_counted_baseILN9__gnu_cxx12_Lock_policyE2EE10_M_releaseEv+0x7c>
    4791:	48 8b 45 f8          	mov    -0x8(%rbp),%rax
    4795:	48 8b 00             	mov    (%rax),%rax
    4798:	48 83 c0 10          	add    $0x10,%rax
    479c:	48 8b 10             	mov    (%rax),%rdx
    479f:	48 8b 45 f8          	mov    -0x8(%rbp),%rax
    47a3:	48 89 c7             	mov    %rax,%rdi
    47a6:	ff d2                	callq  *%rdx
    47a8:	48 8b 45 f8          	mov    -0x8(%rbp),%rax
    47ac:	48 83 c0 0c          	add    $0xc,%rax
    47b0:	be ff ff ff ff       	mov    $0xffffffff,%esi
    47b5:	48 89 c7             	mov    %rax,%rdi
    47b8:	e8 b4 ed ff ff       	callq  3571 <_ZN9__gnu_cxxL27__exchange_and_add_dispatchEPii>
    47bd:	83 f8 01             	cmp    $0x1,%eax
    47c0:	0f 94 c0             	sete   %al
    47c3:	84 c0                	test   %al,%al
    47c5:	74 17                	je     47de <_ZNSt16_Sp_counted_baseILN9__gnu_cxx12_Lock_policyE2EE10_M_releaseEv+0x7c>
    47c7:	48 8b 45 f8          	mov    -0x8(%rbp),%rax
    47cb:	48 8b 00             	mov    (%rax),%rax
    47ce:	48 83 c0 18          	add    $0x18,%rax
    47d2:	48 8b 10             	mov    (%rax),%rdx
    47d5:	48 8b 45 f8          	mov    -0x8(%rbp),%rax
    47d9:	48 89 c7             	mov    %rax,%rdi
    47dc:	ff d2                	callq  *%rdx
    47de:	90                   	nop
    47df:	c9                   	leaveq 
    47e0:	c3                   	retq   
    47e1:	90                   	nop

00000000000047e2 <_ZNSt8__detail9_Map_baseImSt4pairIKmSt10shared_ptrIN15coroutine_mimic9CoroutineEEESaIS7_ENS_10_Select1stESt8equal_toImESt4hashImENS_18_Mod_range_hashingENS_20_Default_ranged_hashENS_20_Prime_rehash_policyENS_17_Hashtable_traitsILb0ELb0ELb1EEELb1EEixERS2_>:
    47e2:	f3 0f 1e fa          	endbr64 
    47e6:	55                   	push   %rbp
    47e7:	48 89 e5             	mov    %rsp,%rbp
    47ea:	48 83 ec 50          	sub    $0x50,%rsp
    47ee:	48 89 7d b8          	mov    %rdi,-0x48(%rbp)
    47f2:	48 89 75 b0          	mov    %rsi,-0x50(%rbp)
    47f6:	64 48 8b 04 25 28 00 	mov    %fs:0x28,%rax
    47fd:	00 00 
    47ff:	48 89 45 f8          	mov    %rax,-0x8(%rbp)
    4803:	31 c0                	xor    %eax,%eax
    4805:	48 8b 45 b8          	mov    -0x48(%rbp),%rax
    4809:	48 89 45 d8          	mov    %rax,-0x28(%rbp)
    480d:	48 8b 55 b0          	mov    -0x50(%rbp),%rdx
    4811:	48 8b 45 d8          	mov    -0x28(%rbp),%rax
    4815:	48 89 d6             	mov    %rdx,%rsi
    4818:	48 89 c7             	mov    %rax,%rdi
    481b:	e8 4a 05 00 00       	callq  4d6a <_ZNKSt8__detail15_Hash_code_baseImSt4pairIKmSt10shared_ptrIN15coroutine_mimic9CoroutineEEENS_10_Select1stESt4hashImENS_18_Mod_range_hashingENS_20_Default_ranged_hashELb0EE12_M_hash_codeERS2_>
    4820:	48 89 45 e0          	mov    %rax,-0x20(%rbp)
    4824:	48 8b 55 e0          	mov    -0x20(%rbp),%rdx
    4828:	48 8b 4d b0          	mov    -0x50(%rbp),%rcx
    482c:	48 8b 45 d8          	mov    -0x28(%rbp),%rax
    4830:	48 89 ce             	mov    %rcx,%rsi
    4833:	48 89 c7             	mov    %rax,%rdi
    4836:	e8 67 05 00 00       	callq  4da2 <_ZNKSt10_HashtableImSt4pairIKmSt10shared_ptrIN15coroutine_mimic9CoroutineEEESaIS6_ENSt8__detail10_Select1stESt8equal_toImESt4hashImENS8_18_Mod_range_hashingENS8_20_Default_ranged_hashENS8_20_Prime_rehash_policyENS8_17_Hashtable_traitsILb0ELb0ELb1EEEE15_M_bucket_indexERS1_m>
    483b:	48 89 45 e8          	mov    %rax,-0x18(%rbp)
    483f:	48 8b 4d e0          	mov    -0x20(%rbp),%rcx
    4843:	48 8b 55 b0          	mov    -0x50(%rbp),%rdx
    4847:	48 8b 75 e8          	mov    -0x18(%rbp),%rsi
    484b:	48 8b 45 d8          	mov    -0x28(%rbp),%rax
    484f:	48 89 c7             	mov    %rax,%rdi
    4852:	e8 81 05 00 00       	callq  4dd8 <_ZNKSt10_HashtableImSt4pairIKmSt10shared_ptrIN15coroutine_mimic9CoroutineEEESaIS6_ENSt8__detail10_Select1stESt8equal_toImESt4hashImENS8_18_Mod_range_hashingENS8_20_Default_ranged_hashENS8_20_Prime_rehash_policyENS8_17_Hashtable_traitsILb0ELb0ELb1EEEE12_M_find_nodeEmRS1_m>
    4857:	48 89 45 f0          	mov    %rax,-0x10(%rbp)
    485b:	48 83 7d f0 00       	cmpq   $0x0,-0x10(%rbp)
    4860:	75 66                	jne    48c8 <_ZNSt8__detail9_Map_baseImSt4pairIKmSt10shared_ptrIN15coroutine_mimic9CoroutineEEESaIS7_ENS_10_Select1stESt8equal_toImESt4hashImENS_18_Mod_range_hashingENS_20_Default_ranged_hashENS_20_Prime_rehash_policyENS_17_Hashtable_traitsILb0ELb0ELb1EEELb1EEixERS2_+0xe6>
    4862:	48 8b 55 b0          	mov    -0x50(%rbp),%rdx
    4866:	48 8d 45 d0          	lea    -0x30(%rbp),%rax
    486a:	48 89 d6             	mov    %rdx,%rsi
    486d:	48 89 c7             	mov    %rax,%rdi
    4870:	e8 b3 05 00 00       	callq  4e28 <_ZNSt5tupleIJRKmEEC1IvLb1EEES1_>
    4875:	48 8d 4d cf          	lea    -0x31(%rbp),%rcx
    4879:	48 8d 55 d0          	lea    -0x30(%rbp),%rdx
    487d:	48 8b 45 d8          	mov    -0x28(%rbp),%rax
    4881:	48 8d 35 7c 57 00 00 	lea    0x577c(%rip),%rsi        # a004 <_ZSt19piecewise_construct>
    4888:	48 89 c7             	mov    %rax,%rdi
    488b:	e8 02 06 00 00       	callq  4e92 <_ZNSt8__detail16_Hashtable_allocISaINS_10_Hash_nodeISt4pairIKmSt10shared_ptrIN15coroutine_mimic9CoroutineEEELb0EEEEE16_M_allocate_nodeIJRKSt21piecewise_construct_tSt5tupleIJRS3_EESG_IJEEEEEPS9_DpOT_>
    4890:	48 89 45 f0          	mov    %rax,-0x10(%rbp)
    4894:	48 8b 4d f0          	mov    -0x10(%rbp),%rcx
    4898:	48 8b 55 e0          	mov    -0x20(%rbp),%rdx
    489c:	48 8b 75 e8          	mov    -0x18(%rbp),%rsi
    48a0:	48 8b 45 d8          	mov    -0x28(%rbp),%rax
    48a4:	41 b8 01 00 00 00    	mov    $0x1,%r8d
    48aa:	48 89 c7             	mov    %rax,%rdi
    48ad:	e8 04 07 00 00       	callq  4fb6 <_ZNSt10_HashtableImSt4pairIKmSt10shared_ptrIN15coroutine_mimic9CoroutineEEESaIS6_ENSt8__detail10_Select1stESt8equal_toImESt4hashImENS8_18_Mod_range_hashingENS8_20_Default_ranged_hashENS8_20_Prime_rehash_policyENS8_17_Hashtable_traitsILb0ELb0ELb1EEEE21_M_insert_unique_nodeEmmPNS8_10_Hash_nodeIS6_Lb0EEEm>
    48b2:	48 89 45 d0          	mov    %rax,-0x30(%rbp)
    48b6:	48 8d 45 d0          	lea    -0x30(%rbp),%rax
    48ba:	48 89 c7             	mov    %rax,%rdi
    48bd:	e8 80 08 00 00       	callq  5142 <_ZNKSt8__detail14_Node_iteratorISt4pairIKmSt10shared_ptrIN15coroutine_mimic9CoroutineEEELb0ELb0EEptEv>
    48c2:	48 83 c0 08          	add    $0x8,%rax
    48c6:	eb 10                	jmp    48d8 <_ZNSt8__detail9_Map_baseImSt4pairIKmSt10shared_ptrIN15coroutine_mimic9CoroutineEEESaIS7_ENS_10_Select1stESt8equal_toImESt4hashImENS_18_Mod_range_hashingENS_20_Default_ranged_hashENS_20_Prime_rehash_policyENS_17_Hashtable_traitsILb0ELb0ELb1EEELb1EEixERS2_+0xf6>
    48c8:	48 8b 45 f0          	mov    -0x10(%rbp),%rax
    48cc:	48 89 c7             	mov    %rax,%rdi
    48cf:	e8 90 08 00 00       	callq  5164 <_ZNSt8__detail21_Hash_node_value_baseISt4pairIKmSt10shared_ptrIN15coroutine_mimic9CoroutineEEEE4_M_vEv>
    48d4:	48 83 c0 08          	add    $0x8,%rax
    48d8:	48 8b 7d f8          	mov    -0x8(%rbp),%rdi
    48dc:	64 48 33 3c 25 28 00 	xor    %fs:0x28,%rdi
    48e3:	00 00 
    48e5:	74 05                	je     48ec <_ZNSt8__detail9_Map_baseImSt4pairIKmSt10shared_ptrIN15coroutine_mimic9CoroutineEEESaIS7_ENS_10_Select1stESt8equal_toImESt4hashImENS_18_Mod_range_hashingENS_20_Default_ranged_hashENS_20_Prime_rehash_policyENS_17_Hashtable_traitsILb0ELb0ELb1EEELb1EEixERS2_+0x10a>
    48e7:	e8 04 dc ff ff       	callq  24f0 <__stack_chk_fail@plt>
    48ec:	c9                   	leaveq 
    48ed:	c3                   	retq   

00000000000048ee <_ZNSt16_Sp_counted_baseILN9__gnu_cxx12_Lock_policyE2EE15_M_add_ref_copyEv>:
    48ee:	f3 0f 1e fa          	endbr64 
    48f2:	55                   	push   %rbp
    48f3:	48 89 e5             	mov    %rsp,%rbp
    48f6:	48 83 ec 08          	sub    $0x8,%rsp
    48fa:	48 89 7d f8          	mov    %rdi,-0x8(%rbp)
    48fe:	48 8b 45 f8          	mov    -0x8(%rbp),%rax
    4902:	48 83 c0 08          	add    $0x8,%rax
    4906:	be 01 00 00 00       	mov    $0x1,%esi
    490b:	48 89 c7             	mov    %rax,%rdi
    490e:	e8 a2 ec ff ff       	callq  35b5 <_ZN9__gnu_cxxL21__atomic_add_dispatchEPii>
    4913:	90                   	nop
    4914:	c9                   	leaveq 
    4915:	c3                   	retq   

0000000000004916 <_ZNSt10_HashtableImSt4pairIKmSt10shared_ptrIN15coroutine_mimic9CoroutineEEESaIS6_ENSt8__detail10_Select1stESt8equal_toImESt4hashImENS8_18_Mod_range_hashingENS8_20_Default_ranged_hashENS8_20_Prime_rehash_policyENS8_17_Hashtable_traitsILb0ELb0ELb1EEEE4findERS1_>:
    4916:	f3 0f 1e fa          	endbr64 
    491a:	55                   	push   %rbp
    491b:	48 89 e5             	mov    %rsp,%rbp
    491e:	48 83 ec 40          	sub    $0x40,%rsp
    4922:	48 89 7d c8          	mov    %rdi,-0x38(%rbp)
    4926:	48 89 75 c0          	mov    %rsi,-0x40(%rbp)
    492a:	64 48 8b 04 25 28 00 	mov    %fs:0x28,%rax
    4931:	00 00 
    4933:	48 89 45 f8          	mov    %rax,-0x8(%rbp)
    4937:	31 c0                	xor    %eax,%eax
    4939:	48 8b 55 c0          	mov    -0x40(%rbp),%rdx
    493d:	48 8b 45 c8          	mov    -0x38(%rbp),%rax
    4941:	48 89 d6             	mov    %rdx,%rsi
    4944:	48 89 c7             	mov    %rax,%rdi
    4947:	e8 1e 04 00 00       	callq  4d6a <_ZNKSt8__detail15_Hash_code_baseImSt4pairIKmSt10shared_ptrIN15coroutine_mimic9CoroutineEEENS_10_Select1stESt4hashImENS_18_Mod_range_hashingENS_20_Default_ranged_hashELb0EE12_M_hash_codeERS2_>
    494c:	48 89 45 e0          	mov    %rax,-0x20(%rbp)
    4950:	48 8b 55 e0          	mov    -0x20(%rbp),%rdx
    4954:	48 8b 4d c0          	mov    -0x40(%rbp),%rcx
    4958:	48 8b 45 c8          	mov    -0x38(%rbp),%rax
    495c:	48 89 ce             	mov    %rcx,%rsi
    495f:	48 89 c7             	mov    %rax,%rdi
    4962:	e8 3b 04 00 00       	callq  4da2 <_ZNKSt10_HashtableImSt4pairIKmSt10shared_ptrIN15coroutine_mimic9CoroutineEEESaIS6_ENSt8__detail10_Select1stESt8equal_toImESt4hashImENS8_18_Mod_range_hashingENS8_20_Default_ranged_hashENS8_20_Prime_rehash_policyENS8_17_Hashtable_traitsILb0ELb0ELb1EEEE15_M_bucket_indexERS1_m>
    4967:	48 89 45 e8          	mov    %rax,-0x18(%rbp)
    496b:	48 8b 4d e0          	mov    -0x20(%rbp),%rcx
    496f:	48 8b 55 c0          	mov    -0x40(%rbp),%rdx
    4973:	48 8b 75 e8          	mov    -0x18(%rbp),%rsi
    4977:	48 8b 45 c8          	mov    -0x38(%rbp),%rax
    497b:	48 89 c7             	mov    %rax,%rdi
    497e:	e8 55 04 00 00       	callq  4dd8 <_ZNKSt10_HashtableImSt4pairIKmSt10shared_ptrIN15coroutine_mimic9CoroutineEEESaIS6_ENSt8__detail10_Select1stESt8equal_toImESt4hashImENS8_18_Mod_range_hashingENS8_20_Default_ranged_hashENS8_20_Prime_rehash_policyENS8_17_Hashtable_traitsILb0ELb0ELb1EEEE12_M_find_nodeEmRS1_m>
    4983:	48 89 45 f0          	mov    %rax,-0x10(%rbp)
    4987:	48 83 7d f0 00       	cmpq   $0x0,-0x10(%rbp)
    498c:	74 15                	je     49a3 <_ZNSt10_HashtableImSt4pairIKmSt10shared_ptrIN15coroutine_mimic9CoroutineEEESaIS6_ENSt8__detail10_Select1stESt8equal_toImESt4hashImENS8_18_Mod_range_hashingENS8_20_Default_ranged_hashENS8_20_Prime_rehash_policyENS8_17_Hashtable_traitsILb0ELb0ELb1EEEE4findERS1_+0x8d>
    498e:	48 8b 55 f0          	mov    -0x10(%rbp),%rdx
    4992:	48 8d 45 d8          	lea    -0x28(%rbp),%rax
    4996:	48 89 d6             	mov    %rdx,%rsi
    4999:	48 89 c7             	mov    %rax,%rdi
    499c:	e8 09 02 00 00       	callq  4baa <_ZNSt8__detail14_Node_iteratorISt4pairIKmSt10shared_ptrIN15coroutine_mimic9CoroutineEEELb0ELb0EEC1EPNS_10_Hash_nodeIS7_Lb0EEE>
    49a1:	eb 10                	jmp    49b3 <_ZNSt10_HashtableImSt4pairIKmSt10shared_ptrIN15coroutine_mimic9CoroutineEEESaIS6_ENSt8__detail10_Select1stESt8equal_toImESt4hashImENS8_18_Mod_range_hashingENS8_20_Default_ranged_hashENS8_20_Prime_rehash_policyENS8_17_Hashtable_traitsILb0ELb0ELb1EEEE4findERS1_+0x9d>
    49a3:	48 8b 45 c8          	mov    -0x38(%rbp),%rax
    49a7:	48 89 c7             	mov    %rax,%rdi
    49aa:	e8 45 fb ff ff       	callq  44f4 <_ZNSt10_HashtableImSt4pairIKmSt10shared_ptrIN15coroutine_mimic9CoroutineEEESaIS6_ENSt8__detail10_Select1stESt8equal_toImESt4hashImENS8_18_Mod_range_hashingENS8_20_Default_ranged_hashENS8_20_Prime_rehash_policyENS8_17_Hashtable_traitsILb0ELb0ELb1EEEE3endEv>
    49af:	48 89 45 d8          	mov    %rax,-0x28(%rbp)
    49b3:	48 8b 45 d8          	mov    -0x28(%rbp),%rax
    49b7:	48 8b 4d f8          	mov    -0x8(%rbp),%rcx
    49bb:	64 48 33 0c 25 28 00 	xor    %fs:0x28,%rcx
    49c2:	00 00 
    49c4:	74 05                	je     49cb <_ZNSt10_HashtableImSt4pairIKmSt10shared_ptrIN15coroutine_mimic9CoroutineEEESaIS6_ENSt8__detail10_Select1stESt8equal_toImESt4hashImENS8_18_Mod_range_hashingENS8_20_Default_ranged_hashENS8_20_Prime_rehash_policyENS8_17_Hashtable_traitsILb0ELb0ELb1EEEE4findERS1_+0xb5>
    49c6:	e8 25 db ff ff       	callq  24f0 <__stack_chk_fail@plt>
    49cb:	c9                   	leaveq 
    49cc:	c3                   	retq   
    49cd:	90                   	nop

00000000000049ce <_ZNKSt19__shared_ptr_accessIN15coroutine_mimic9CoroutineELN9__gnu_cxx12_Lock_policyE2ELb0ELb0EE6_M_getEv>:
    49ce:	f3 0f 1e fa          	endbr64 
    49d2:	55                   	push   %rbp
    49d3:	48 89 e5             	mov    %rsp,%rbp
    49d6:	48 83 ec 10          	sub    $0x10,%rsp
    49da:	48 89 7d f8          	mov    %rdi,-0x8(%rbp)
    49de:	48 8b 45 f8          	mov    -0x8(%rbp),%rax
    49e2:	48 89 c7             	mov    %rax,%rdi
    49e5:	e8 98 07 00 00       	callq  5182 <_ZNKSt12__shared_ptrIN15coroutine_mimic9CoroutineELN9__gnu_cxx12_Lock_policyE2EE3getEv>
    49ea:	c9                   	leaveq 
    49eb:	c3                   	retq   

00000000000049ec <_ZNSt8__detail21_Hash_node_value_baseISt4pairIKmSt10shared_ptrIN15coroutine_mimic9CoroutineEEEE9_M_valptrEv>:
    49ec:	f3 0f 1e fa          	endbr64 
    49f0:	55                   	push   %rbp
    49f1:	48 89 e5             	mov    %rsp,%rbp
    49f4:	48 83 ec 10          	sub    $0x10,%rsp
    49f8:	48 89 7d f8          	mov    %rdi,-0x8(%rbp)
    49fc:	48 8b 45 f8          	mov    -0x8(%rbp),%rax
    4a00:	48 83 c0 08          	add    $0x8,%rax
    4a04:	48 89 c7             	mov    %rax,%rdi
    4a07:	e8 8c 07 00 00       	callq  5198 <_ZN9__gnu_cxx16__aligned_bufferISt4pairIKmSt10shared_ptrIN15coroutine_mimic9CoroutineEEEE6_M_ptrEv>
    4a0c:	c9                   	leaveq 
    4a0d:	c3                   	retq   

0000000000004a0e <_ZSt4swapIPhENSt9enable_ifIXsrSt6__and_IJSt6__not_ISt15__is_tuple_likeIT_EESt21is_move_constructibleIS5_ESt18is_move_assignableIS5_EEE5valueEvE4typeERS5_SF_>:
    4a0e:	f3 0f 1e fa          	endbr64 
    4a12:	55                   	push   %rbp
    4a13:	48 89 e5             	mov    %rsp,%rbp
    4a16:	48 83 ec 20          	sub    $0x20,%rsp
    4a1a:	48 89 7d e8          	mov    %rdi,-0x18(%rbp)
    4a1e:	48 89 75 e0          	mov    %rsi,-0x20(%rbp)
    4a22:	64 48 8b 04 25 28 00 	mov    %fs:0x28,%rax
    4a29:	00 00 
    4a2b:	48 89 45 f8          	mov    %rax,-0x8(%rbp)
    4a2f:	31 c0                	xor    %eax,%eax
    4a31:	48 8b 45 e8          	mov    -0x18(%rbp),%rax
    4a35:	48 89 c7             	mov    %rax,%rdi
    4a38:	e8 55 fa ff ff       	callq  4492 <_ZSt4moveIRPhEONSt16remove_referenceIT_E4typeEOS3_>
    4a3d:	48 8b 00             	mov    (%rax),%rax
    4a40:	48 89 45 f0          	mov    %rax,-0x10(%rbp)
    4a44:	48 8b 45 e0          	mov    -0x20(%rbp),%rax
    4a48:	48 89 c7             	mov    %rax,%rdi
    4a4b:	e8 42 fa ff ff       	callq  4492 <_ZSt4moveIRPhEONSt16remove_referenceIT_E4typeEOS3_>
    4a50:	48 8b 10             	mov    (%rax),%rdx
    4a53:	48 8b 45 e8          	mov    -0x18(%rbp),%rax
    4a57:	48 89 10             	mov    %rdx,(%rax)
    4a5a:	48 8d 45 f0          	lea    -0x10(%rbp),%rax
    4a5e:	48 89 c7             	mov    %rax,%rdi
    4a61:	e8 2c fa ff ff       	callq  4492 <_ZSt4moveIRPhEONSt16remove_referenceIT_E4typeEOS3_>
    4a66:	48 8b 10             	mov    (%rax),%rdx
    4a69:	48 8b 45 e0          	mov    -0x20(%rbp),%rax
    4a6d:	48 89 10             	mov    %rdx,(%rax)
    4a70:	90                   	nop
    4a71:	48 8b 45 f8          	mov    -0x8(%rbp),%rax
    4a75:	64 48 33 04 25 28 00 	xor    %fs:0x28,%rax
    4a7c:	00 00 
    4a7e:	74 05                	je     4a85 <_ZSt4swapIPhENSt9enable_ifIXsrSt6__and_IJSt6__not_ISt15__is_tuple_likeIT_EESt21is_move_constructibleIS5_ESt18is_move_assignableIS5_EEE5valueEvE4typeERS5_SF_+0x77>
    4a80:	e8 6b da ff ff       	callq  24f0 <__stack_chk_fail@plt>
    4a85:	c9                   	leaveq 
    4a86:	c3                   	retq   

0000000000004a87 <_ZSt7forwardISt3anyEOT_RNSt16remove_referenceIS1_E4typeE>:
    4a87:	f3 0f 1e fa          	endbr64 
    4a8b:	55                   	push   %rbp
    4a8c:	48 89 e5             	mov    %rsp,%rbp
    4a8f:	48 89 7d f8          	mov    %rdi,-0x8(%rbp)
    4a93:	48 8b 45 f8          	mov    -0x8(%rbp),%rax
    4a97:	5d                   	pop    %rbp
    4a98:	c3                   	retq   
    4a99:	90                   	nop

0000000000004a9a <_ZNSt10_HashtableImSt4pairIKmSt10shared_ptrIN15coroutine_mimic9CoroutineEEESaIS6_ENSt8__detail10_Select1stESt8equal_toImESt4hashImENS8_18_Mod_range_hashingENS8_20_Default_ranged_hashENS8_20_Prime_rehash_policyENS8_17_Hashtable_traitsILb0ELb0ELb1EEEE5eraseENS8_20_Node_const_iteratorIS6_Lb0ELb0EEE>:
    4a9a:	f3 0f 1e fa          	endbr64 
    4a9e:	55                   	push   %rbp
    4a9f:	48 89 e5             	mov    %rsp,%rbp
    4aa2:	48 83 ec 30          	sub    $0x30,%rsp
    4aa6:	48 89 7d d8          	mov    %rdi,-0x28(%rbp)
    4aaa:	48 89 75 d0          	mov    %rsi,-0x30(%rbp)
    4aae:	48 8b 45 d0          	mov    -0x30(%rbp),%rax
    4ab2:	48 89 45 e8          	mov    %rax,-0x18(%rbp)
    4ab6:	48 8b 55 e8          	mov    -0x18(%rbp),%rdx
    4aba:	48 8b 45 d8          	mov    -0x28(%rbp),%rax
    4abe:	48 89 d6             	mov    %rdx,%rsi
    4ac1:	48 89 c7             	mov    %rax,%rdi
    4ac4:	e8 ed 06 00 00       	callq  51b6 <_ZNKSt10_HashtableImSt4pairIKmSt10shared_ptrIN15coroutine_mimic9CoroutineEEESaIS6_ENSt8__detail10_Select1stESt8equal_toImESt4hashImENS8_18_Mod_range_hashingENS8_20_Default_ranged_hashENS8_20_Prime_rehash_policyENS8_17_Hashtable_traitsILb0ELb0ELb1EEEE15_M_bucket_indexEPNS8_10_Hash_nodeIS6_Lb0EEE>
    4ac9:	48 89 45 f0          	mov    %rax,-0x10(%rbp)
    4acd:	48 8b 55 e8          	mov    -0x18(%rbp),%rdx
    4ad1:	48 8b 4d f0          	mov    -0x10(%rbp),%rcx
    4ad5:	48 8b 45 d8          	mov    -0x28(%rbp),%rax
    4ad9:	48 89 ce             	mov    %rcx,%rsi
    4adc:	48 89 c7             	mov    %rax,%rdi
    4adf:	e8 04 07 00 00       	callq  51e8 <_ZNSt10_HashtableImSt4pairIKmSt10shared_ptrIN15coroutine_mimic9CoroutineEEESaIS6_ENSt8__detail10_Select1stESt8equal_toImESt4hashImENS8_18_Mod_range_hashingENS8_20_Default_ranged_hashENS8_20_Prime_rehash_policyENS8_17_Hashtable_traitsILb0ELb0ELb1EEEE20_M_get_previous_nodeEmPNS8_15_Hash_node_baseE>
    4ae4:	48 89 45 f8          	mov    %rax,-0x8(%rbp)
    4ae8:	48 8b 4d e8          	mov    -0x18(%rbp),%rcx
    4aec:	48 8b 55 f8          	mov    -0x8(%rbp),%rdx
    4af0:	48 8b 75 f0          	mov    -0x10(%rbp),%rsi
    4af4:	48 8b 45 d8          	mov    -0x28(%rbp),%rax
    4af8:	48 89 c7             	mov    %rax,%rdi
    4afb:	e8 36 07 00 00       	callq  5236 <_ZNSt10_HashtableImSt4pairIKmSt10shared_ptrIN15coroutine_mimic9CoroutineEEESaIS6_ENSt8__detail10_Select1stESt8equal_toImESt4hashImENS8_18_Mod_range_hashingENS8_20_Default_ranged_hashENS8_20_Prime_rehash_policyENS8_17_Hashtable_traitsILb0ELb0ELb1EEEE8_M_eraseEmPNS8_15_Hash_node_baseEPNS8_10_Hash_nodeIS6_Lb0EEE>
    4b00:	c9                   	leaveq 
    4b01:	c3                   	retq   

0000000000004b02 <_ZNSt7__cxx1112basic_stringIcSt11char_traitsIcESaIcEE12_M_constructIPcEEvT_S7_>:
    4b02:	f3 0f 1e fa          	endbr64 
    4b06:	55                   	push   %rbp
    4b07:	48 89 e5             	mov    %rsp,%rbp
    4b0a:	48 83 ec 20          	sub    $0x20,%rsp
    4b0e:	48 89 7d f8          	mov    %rdi,-0x8(%rbp)
    4b12:	48 89 75 f0          	mov    %rsi,-0x10(%rbp)
    4b16:	48 89 55 e8          	mov    %rdx,-0x18(%rbp)
    4b1a:	48 8b 55 e8          	mov    -0x18(%rbp),%rdx
    4b1e:	48 8b 4d f0          	mov    -0x10(%rbp),%rcx
    4b22:	48 8b 45 f8          	mov    -0x8(%rbp),%rax
    4b26:	48 89 ce             	mov    %rcx,%rsi
    4b29:	48 89 c7             	mov    %rax,%rdi
    4b2c:	e8 67 08 00 00       	callq  5398 <_ZNSt7__cxx1112basic_stringIcSt11char_traitsIcESaIcEE16_M_construct_auxIPcEEvT_S7_St12__false_type>
    4b31:	90                   	nop
    4b32:	c9                   	leaveq 
    4b33:	c3                   	retq   

0000000000004b34 <_ZNSt11_Tuple_implILm1EJSt14default_deleteIhEEEC1Ev>:
    4b34:	f3 0f 1e fa          	endbr64 
    4b38:	55                   	push   %rbp
    4b39:	48 89 e5             	mov    %rsp,%rbp
    4b3c:	48 83 ec 10          	sub    $0x10,%rsp
    4b40:	48 89 7d f8          	mov    %rdi,-0x8(%rbp)
    4b44:	48 8b 45 f8          	mov    -0x8(%rbp),%rax
    4b48:	48 89 c7             	mov    %rax,%rdi
    4b4b:	e8 9e 08 00 00       	callq  53ee <_ZNSt10_Head_baseILm1ESt14default_deleteIhELb1EEC1Ev>
    4b50:	90                   	nop
    4b51:	c9                   	leaveq 
    4b52:	c3                   	retq   
    4b53:	90                   	nop

0000000000004b54 <_ZNSt10_Head_baseILm0EPhLb0EEC1Ev>:
    4b54:	f3 0f 1e fa          	endbr64 
    4b58:	55                   	push   %rbp
    4b59:	48 89 e5             	mov    %rsp,%rbp
    4b5c:	48 89 7d f8          	mov    %rdi,-0x8(%rbp)
    4b60:	48 8b 45 f8          	mov    -0x8(%rbp),%rax
    4b64:	48 c7 00 00 00 00 00 	movq   $0x0,(%rax)
    4b6b:	90                   	nop
    4b6c:	5d                   	pop    %rbp
    4b6d:	c3                   	retq   

0000000000004b6e <_ZSt3getILm0EJPhSt14default_deleteIhEEERNSt13tuple_elementIXT_ESt5tupleIJDpT0_EEE4typeERS7_>:
    4b6e:	f3 0f 1e fa          	endbr64 
    4b72:	55                   	push   %rbp
    4b73:	48 89 e5             	mov    %rsp,%rbp
    4b76:	48 83 ec 10          	sub    $0x10,%rsp
    4b7a:	48 89 7d f8          	mov    %rdi,-0x8(%rbp)
    4b7e:	48 8b 45 f8          	mov    -0x8(%rbp),%rax
    4b82:	48 89 c7             	mov    %rax,%rdi
    4b85:	e8 73 08 00 00       	callq  53fd <_ZSt12__get_helperILm0EPhJSt14default_deleteIhEEERT0_RSt11_Tuple_implIXT_EJS3_DpT1_EE>
    4b8a:	c9                   	leaveq 
    4b8b:	c3                   	retq   

0000000000004b8c <_ZNSt15__uniq_ptr_implIhSt14default_deleteIhEE10_M_deleterEv>:
    4b8c:	f3 0f 1e fa          	endbr64 
    4b90:	55                   	push   %rbp
    4b91:	48 89 e5             	mov    %rsp,%rbp
    4b94:	48 83 ec 10          	sub    $0x10,%rsp
    4b98:	48 89 7d f8          	mov    %rdi,-0x8(%rbp)
    4b9c:	48 8b 45 f8          	mov    -0x8(%rbp),%rax
    4ba0:	48 89 c7             	mov    %rax,%rdi
    4ba3:	e8 73 08 00 00       	callq  541b <_ZSt3getILm1EJPhSt14default_deleteIhEEERNSt13tuple_elementIXT_ESt5tupleIJDpT0_EEE4typeERS7_>
    4ba8:	c9                   	leaveq 
    4ba9:	c3                   	retq   

0000000000004baa <_ZNSt8__detail14_Node_iteratorISt4pairIKmSt10shared_ptrIN15coroutine_mimic9CoroutineEEELb0ELb0EEC1EPNS_10_Hash_nodeIS7_Lb0EEE>:
    4baa:	f3 0f 1e fa          	endbr64 
    4bae:	55                   	push   %rbp
    4baf:	48 89 e5             	mov    %rsp,%rbp
    4bb2:	48 83 ec 10          	sub    $0x10,%rsp
    4bb6:	48 89 7d f8          	mov    %rdi,-0x8(%rbp)
    4bba:	48 89 75 f0          	mov    %rsi,-0x10(%rbp)
    4bbe:	48 8b 45 f8          	mov    -0x8(%rbp),%rax
    4bc2:	48 8b 55 f0          	mov    -0x10(%rbp),%rdx
    4bc6:	48 89 d6             	mov    %rdx,%rsi
    4bc9:	48 89 c7             	mov    %rax,%rdi
    4bcc:	e8 8b fa ff ff       	callq  465c <_ZNSt8__detail19_Node_iterator_baseISt4pairIKmSt10shared_ptrIN15coroutine_mimic9CoroutineEEELb0EEC1EPNS_10_Hash_nodeIS7_Lb0EEE>
    4bd1:	90                   	nop
    4bd2:	c9                   	leaveq 
    4bd3:	c3                   	retq   

0000000000004bd4 <_ZSt3getILm0EJPhSt14default_deleteIhEEERKNSt13tuple_elementIXT_ESt5tupleIJDpT0_EEE4typeERKS7_>:
    4bd4:	f3 0f 1e fa          	endbr64 
    4bd8:	55                   	push   %rbp
    4bd9:	48 89 e5             	mov    %rsp,%rbp
    4bdc:	48 83 ec 10          	sub    $0x10,%rsp
    4be0:	48 89 7d f8          	mov    %rdi,-0x8(%rbp)
    4be4:	48 8b 45 f8          	mov    -0x8(%rbp),%rax
    4be8:	48 89 c7             	mov    %rax,%rdi
    4beb:	e8 49 08 00 00       	callq  5439 <_ZSt12__get_helperILm0EPhJSt14default_deleteIhEEERKT0_RKSt11_Tuple_implIXT_EJS3_DpT1_EE>
    4bf0:	c9                   	leaveq 
    4bf1:	c3                   	retq   

0000000000004bf2 <_ZNKSt10_HashtableImSt4pairIKmSt10shared_ptrIN15coroutine_mimic9CoroutineEEESaIS6_ENSt8__detail10_Select1stESt8equal_toImESt4hashImENS8_18_Mod_range_hashingENS8_20_Default_ranged_hashENS8_20_Prime_rehash_policyENS8_17_Hashtable_traitsILb0ELb0ELb1EEEE8_M_beginEv>:
    4bf2:	f3 0f 1e fa          	endbr64 
    4bf6:	55                   	push   %rbp
    4bf7:	48 89 e5             	mov    %rsp,%rbp
    4bfa:	48 89 7d f8          	mov    %rdi,-0x8(%rbp)
    4bfe:	48 8b 45 f8          	mov    -0x8(%rbp),%rax
    4c02:	48 8b 40 10          	mov    0x10(%rax),%rax
    4c06:	5d                   	pop    %rbp
    4c07:	c3                   	retq   

0000000000004c08 <_ZNSt8__detail16_Hashtable_allocISaINS_10_Hash_nodeISt4pairIKmSt10shared_ptrIN15coroutine_mimic9CoroutineEEELb0EEEEE19_M_deallocate_nodesEPS9_>:
    4c08:	f3 0f 1e fa          	endbr64 
    4c0c:	55                   	push   %rbp
    4c0d:	48 89 e5             	mov    %rsp,%rbp
    4c10:	48 83 ec 20          	sub    $0x20,%rsp
    4c14:	48 89 7d e8          	mov    %rdi,-0x18(%rbp)
    4c18:	48 89 75 e0          	mov    %rsi,-0x20(%rbp)
    4c1c:	48 83 7d e0 00       	cmpq   $0x0,-0x20(%rbp)
    4c21:	74 2d                	je     4c50 <_ZNSt8__detail16_Hashtable_allocISaINS_10_Hash_nodeISt4pairIKmSt10shared_ptrIN15coroutine_mimic9CoroutineEEELb0EEEEE19_M_deallocate_nodesEPS9_+0x48>
    4c23:	48 8b 45 e0          	mov    -0x20(%rbp),%rax
    4c27:	48 89 45 f8          	mov    %rax,-0x8(%rbp)
    4c2b:	48 8b 45 e0          	mov    -0x20(%rbp),%rax
    4c2f:	48 89 c7             	mov    %rax,%rdi
    4c32:	e8 21 08 00 00       	callq  5458 <_ZNKSt8__detail10_Hash_nodeISt4pairIKmSt10shared_ptrIN15coroutine_mimic9CoroutineEEELb0EE7_M_nextEv>
    4c37:	48 89 45 e0          	mov    %rax,-0x20(%rbp)
    4c3b:	48 8b 55 f8          	mov    -0x8(%rbp),%rdx
    4c3f:	48 8b 45 e8          	mov    -0x18(%rbp),%rax
    4c43:	48 89 d6             	mov    %rdx,%rsi
    4c46:	48 89 c7             	mov    %rax,%rdi
    4c49:	e8 20 08 00 00       	callq  546e <_ZNSt8__detail16_Hashtable_allocISaINS_10_Hash_nodeISt4pairIKmSt10shared_ptrIN15coroutine_mimic9CoroutineEEELb0EEEEE18_M_deallocate_nodeEPS9_>
    4c4e:	eb cc                	jmp    4c1c <_ZNSt8__detail16_Hashtable_allocISaINS_10_Hash_nodeISt4pairIKmSt10shared_ptrIN15coroutine_mimic9CoroutineEEELb0EEEEE19_M_deallocate_nodesEPS9_+0x14>
    4c50:	90                   	nop
    4c51:	c9                   	leaveq 
    4c52:	c3                   	retq   
    4c53:	90                   	nop

0000000000004c54 <_ZNSt10_HashtableImSt4pairIKmSt10shared_ptrIN15coroutine_mimic9CoroutineEEESaIS6_ENSt8__detail10_Select1stESt8equal_toImESt4hashImENS8_18_Mod_range_hashingENS8_20_Default_ranged_hashENS8_20_Prime_rehash_policyENS8_17_Hashtable_traitsILb0ELb0ELb1EEEE21_M_deallocate_bucketsEPPNS8_15_Hash_node_baseEm>:
    4c54:	f3 0f 1e fa          	endbr64 
    4c58:	55                   	push   %rbp
    4c59:	48 89 e5             	mov    %rsp,%rbp
    4c5c:	48 83 ec 20          	sub    $0x20,%rsp
    4c60:	48 89 7d f8          	mov    %rdi,-0x8(%rbp)
    4c64:	48 89 75 f0          	mov    %rsi,-0x10(%rbp)
    4c68:	48 89 55 e8          	mov    %rdx,-0x18(%rbp)
    4c6c:	48 8b 55 f0          	mov    -0x10(%rbp),%rdx
    4c70:	48 8b 45 f8          	mov    -0x8(%rbp),%rax
    4c74:	48 89 d6             	mov    %rdx,%rsi
    4c77:	48 89 c7             	mov    %rax,%rdi
    4c7a:	e8 45 08 00 00       	callq  54c4 <_ZNKSt10_HashtableImSt4pairIKmSt10shared_ptrIN15coroutine_mimic9CoroutineEEESaIS6_ENSt8__detail10_Select1stESt8equal_toImESt4hashImENS8_18_Mod_range_hashingENS8_20_Default_ranged_hashENS8_20_Prime_rehash_policyENS8_17_Hashtable_traitsILb0ELb0ELb1EEEE21_M_uses_single_bucketEPPNS8_15_Hash_node_baseE>
    4c7f:	84 c0                	test   %al,%al
    4c81:	75 19                	jne    4c9c <_ZNSt10_HashtableImSt4pairIKmSt10shared_ptrIN15coroutine_mimic9CoroutineEEESaIS6_ENSt8__detail10_Select1stESt8equal_toImESt4hashImENS8_18_Mod_range_hashingENS8_20_Default_ranged_hashENS8_20_Prime_rehash_policyENS8_17_Hashtable_traitsILb0ELb0ELb1EEEE21_M_deallocate_bucketsEPPNS8_15_Hash_node_baseEm+0x48>
    4c83:	48 8b 55 e8          	mov    -0x18(%rbp),%rdx
    4c87:	48 8b 4d f0          	mov    -0x10(%rbp),%rcx
    4c8b:	48 8b 45 f8          	mov    -0x8(%rbp),%rax
    4c8f:	48 89 ce             	mov    %rcx,%rsi
    4c92:	48 89 c7             	mov    %rax,%rdi
    4c95:	e8 54 08 00 00       	callq  54ee <_ZNSt8__detail16_Hashtable_allocISaINS_10_Hash_nodeISt4pairIKmSt10shared_ptrIN15coroutine_mimic9CoroutineEEELb0EEEEE21_M_deallocate_bucketsEPPNS_15_Hash_node_baseEm>
    4c9a:	eb 01                	jmp    4c9d <_ZNSt10_HashtableImSt4pairIKmSt10shared_ptrIN15coroutine_mimic9CoroutineEEESaIS6_ENSt8__detail10_Select1stESt8equal_toImESt4hashImENS8_18_Mod_range_hashingENS8_20_Default_ranged_hashENS8_20_Prime_rehash_policyENS8_17_Hashtable_traitsILb0ELb0ELb1EEEE21_M_deallocate_bucketsEPPNS8_15_Hash_node_baseEm+0x49>
    4c9c:	90                   	nop
    4c9d:	c9                   	leaveq 
    4c9e:	c3                   	retq   
    4c9f:	90                   	nop

0000000000004ca0 <_ZN9__gnu_cxx13new_allocatorIN15coroutine_mimic9CoroutineEEC1Ev>:
    4ca0:	f3 0f 1e fa          	endbr64 
    4ca4:	55                   	push   %rbp
    4ca5:	48 89 e5             	mov    %rsp,%rbp
    4ca8:	48 89 7d f8          	mov    %rdi,-0x8(%rbp)
    4cac:	90                   	nop
    4cad:	5d                   	pop    %rbp
    4cae:	c3                   	retq   
    4caf:	90                   	nop

0000000000004cb0 <_ZN9__gnu_cxx13new_allocatorIN15coroutine_mimic9CoroutineEED1Ev>:
    4cb0:	f3 0f 1e fa          	endbr64 
    4cb4:	55                   	push   %rbp
    4cb5:	48 89 e5             	mov    %rsp,%rbp
    4cb8:	48 89 7d f8          	mov    %rdi,-0x8(%rbp)
    4cbc:	90                   	nop
    4cbd:	5d                   	pop    %rbp
    4cbe:	c3                   	retq   
    4cbf:	90                   	nop

0000000000004cc0 <_ZNSt10shared_ptrIN15coroutine_mimic9CoroutineEEC1ISaIS1_EJPNS0_9SchedulerERSt8functionIFvS6_St3anyEERS8_EEESt20_Sp_alloc_shared_tagIT_EDpOT0_>:
    4cc0:	f3 0f 1e fa          	endbr64 
    4cc4:	55                   	push   %rbp
    4cc5:	48 89 e5             	mov    %rsp,%rbp
    4cc8:	41 55                	push   %r13
    4cca:	41 54                	push   %r12
    4ccc:	53                   	push   %rbx
    4ccd:	48 83 ec 38          	sub    $0x38,%rsp
    4cd1:	48 89 7d d8          	mov    %rdi,-0x28(%rbp)
    4cd5:	48 89 75 d0          	mov    %rsi,-0x30(%rbp)
    4cd9:	48 89 55 c8          	mov    %rdx,-0x38(%rbp)
    4cdd:	48 89 4d c0          	mov    %rcx,-0x40(%rbp)
    4ce1:	4c 89 45 b8          	mov    %r8,-0x48(%rbp)
    4ce5:	48 8b 5d d8          	mov    -0x28(%rbp),%rbx
    4ce9:	48 8b 45 b8          	mov    -0x48(%rbp),%rax
    4ced:	48 89 c7             	mov    %rax,%rdi
    4cf0:	e8 e8 f9 ff ff       	callq  46dd <_ZSt7forwardIRSt3anyEOT_RNSt16remove_referenceIS2_E4typeE>
    4cf5:	49 89 c5             	mov    %rax,%r13
    4cf8:	48 8b 45 c0          	mov    -0x40(%rbp),%rax
    4cfc:	48 89 c7             	mov    %rax,%rdi
    4cff:	e8 c7 f9 ff ff       	callq  46cb <_ZSt7forwardIRSt8functionIFvPN15coroutine_mimic9SchedulerESt3anyEEEOT_RNSt16remove_referenceIS8_E4typeE>
    4d04:	49 89 c4             	mov    %rax,%r12
    4d07:	48 8b 45 c8          	mov    -0x38(%rbp),%rax
    4d0b:	48 89 c7             	mov    %rax,%rdi
    4d0e:	e8 a6 f9 ff ff       	callq  46b9 <_ZSt7forwardIPN15coroutine_mimic9SchedulerEEOT_RNSt16remove_referenceIS3_E4typeE>
    4d13:	48 89 c2             	mov    %rax,%rdx
    4d16:	48 8b 45 d0          	mov    -0x30(%rbp),%rax
    4d1a:	4d 89 e8             	mov    %r13,%r8
    4d1d:	4c 89 e1             	mov    %r12,%rcx
    4d20:	48 89 c6             	mov    %rax,%rsi
    4d23:	48 89 df             	mov    %rbx,%rdi
    4d26:	e8 79 08 00 00       	callq  55a4 <_ZNSt12__shared_ptrIN15coroutine_mimic9CoroutineELN9__gnu_cxx12_Lock_policyE2EEC1ISaIS1_EJPNS0_9SchedulerERSt8functionIFvS8_St3anyEERSA_EEESt20_Sp_alloc_shared_tagIT_EDpOT0_>
    4d2b:	90                   	nop
    4d2c:	48 83 c4 38          	add    $0x38,%rsp
    4d30:	5b                   	pop    %rbx
    4d31:	41 5c                	pop    %r12
    4d33:	41 5d                	pop    %r13
    4d35:	5d                   	pop    %rbp
    4d36:	c3                   	retq   
    4d37:	90                   	nop

0000000000004d38 <_ZNSt16_Sp_counted_baseILN9__gnu_cxx12_Lock_policyE2EE10_M_destroyEv>:
    4d38:	f3 0f 1e fa          	endbr64 
    4d3c:	55                   	push   %rbp
    4d3d:	48 89 e5             	mov    %rsp,%rbp
    4d40:	48 83 ec 10          	sub    $0x10,%rsp
    4d44:	48 89 7d f8          	mov    %rdi,-0x8(%rbp)
    4d48:	48 83 7d f8 00       	cmpq   $0x0,-0x8(%rbp)
    4d4d:	74 17                	je     4d66 <_ZNSt16_Sp_counted_baseILN9__gnu_cxx12_Lock_policyE2EE10_M_destroyEv+0x2e>
    4d4f:	48 8b 45 f8          	mov    -0x8(%rbp),%rax
    4d53:	48 8b 00             	mov    (%rax),%rax
    4d56:	48 83 c0 08          	add    $0x8,%rax
    4d5a:	48 8b 10             	mov    (%rax),%rdx
    4d5d:	48 8b 45 f8          	mov    -0x8(%rbp),%rax
    4d61:	48 89 c7             	mov    %rax,%rdi
    4d64:	ff d2                	callq  *%rdx
    4d66:	90                   	nop
    4d67:	c9                   	leaveq 
    4d68:	c3                   	retq   
    4d69:	90                   	nop

0000000000004d6a <_ZNKSt8__detail15_Hash_code_baseImSt4pairIKmSt10shared_ptrIN15coroutine_mimic9CoroutineEEENS_10_Select1stESt4hashImENS_18_Mod_range_hashingENS_20_Default_ranged_hashELb0EE12_M_hash_codeERS2_>:
    4d6a:	f3 0f 1e fa          	endbr64 
    4d6e:	55                   	push   %rbp
    4d6f:	48 89 e5             	mov    %rsp,%rbp
    4d72:	48 83 ec 10          	sub    $0x10,%rsp
    4d76:	48 89 7d f8          	mov    %rdi,-0x8(%rbp)
    4d7a:	48 89 75 f0          	mov    %rsi,-0x10(%rbp)
    4d7e:	48 8b 45 f8          	mov    -0x8(%rbp),%rax
    4d82:	48 89 c7             	mov    %rax,%rdi
    4d85:	e8 08 09 00 00       	callq  5692 <_ZNKSt8__detail15_Hash_code_baseImSt4pairIKmSt10shared_ptrIN15coroutine_mimic9CoroutineEEENS_10_Select1stESt4hashImENS_18_Mod_range_hashingENS_20_Default_ranged_hashELb0EE5_M_h1Ev>
    4d8a:	48 89 c2             	mov    %rax,%rdx
    4d8d:	48 8b 45 f0          	mov    -0x10(%rbp),%rax
    4d91:	48 8b 00             	mov    (%rax),%rax
    4d94:	48 89 c6             	mov    %rax,%rsi
    4d97:	48 89 d7             	mov    %rdx,%rdi
    4d9a:	e8 5b e8 ff ff       	callq  35fa <_ZNKSt4hashImEclEm>
    4d9f:	c9                   	leaveq 
    4da0:	c3                   	retq   
    4da1:	90                   	nop

0000000000004da2 <_ZNKSt10_HashtableImSt4pairIKmSt10shared_ptrIN15coroutine_mimic9CoroutineEEESaIS6_ENSt8__detail10_Select1stESt8equal_toImESt4hashImENS8_18_Mod_range_hashingENS8_20_Default_ranged_hashENS8_20_Prime_rehash_policyENS8_17_Hashtable_traitsILb0ELb0ELb1EEEE15_M_bucket_indexERS1_m>:
    4da2:	f3 0f 1e fa          	endbr64 
    4da6:	55                   	push   %rbp
    4da7:	48 89 e5             	mov    %rsp,%rbp
    4daa:	48 83 ec 20          	sub    $0x20,%rsp
    4dae:	48 89 7d f8          	mov    %rdi,-0x8(%rbp)
    4db2:	48 89 75 f0          	mov    %rsi,-0x10(%rbp)
    4db6:	48 89 55 e8          	mov    %rdx,-0x18(%rbp)
    4dba:	48 8b 45 f8          	mov    -0x8(%rbp),%rax
    4dbe:	48 8b 48 08          	mov    0x8(%rax),%rcx
    4dc2:	48 8b 55 e8          	mov    -0x18(%rbp),%rdx
    4dc6:	48 8b 75 f0          	mov    -0x10(%rbp),%rsi
    4dca:	48 8b 45 f8          	mov    -0x8(%rbp),%rax
    4dce:	48 89 c7             	mov    %rax,%rdi
    4dd1:	e8 da 08 00 00       	callq  56b0 <_ZNKSt8__detail15_Hash_code_baseImSt4pairIKmSt10shared_ptrIN15coroutine_mimic9CoroutineEEENS_10_Select1stESt4hashImENS_18_Mod_range_hashingENS_20_Default_ranged_hashELb0EE15_M_bucket_indexERS2_mm>
    4dd6:	c9                   	leaveq 
    4dd7:	c3                   	retq   

0000000000004dd8 <_ZNKSt10_HashtableImSt4pairIKmSt10shared_ptrIN15coroutine_mimic9CoroutineEEESaIS6_ENSt8__detail10_Select1stESt8equal_toImESt4hashImENS8_18_Mod_range_hashingENS8_20_Default_ranged_hashENS8_20_Prime_rehash_policyENS8_17_Hashtable_traitsILb0ELb0ELb1EEEE12_M_find_nodeEmRS1_m>:
    4dd8:	f3 0f 1e fa          	endbr64 
    4ddc:	55                   	push   %rbp
    4ddd:	48 89 e5             	mov    %rsp,%rbp
    4de0:	48 83 ec 30          	sub    $0x30,%rsp
    4de4:	48 89 7d e8          	mov    %rdi,-0x18(%rbp)
    4de8:	48 89 75 e0          	mov    %rsi,-0x20(%rbp)
    4dec:	48 89 55 d8          	mov    %rdx,-0x28(%rbp)
    4df0:	48 89 4d d0          	mov    %rcx,-0x30(%rbp)
    4df4:	48 8b 4d d0          	mov    -0x30(%rbp),%rcx
    4df8:	48 8b 55 d8          	mov    -0x28(%rbp),%rdx
    4dfc:	48 8b 75 e0          	mov    -0x20(%rbp),%rsi
    4e00:	48 8b 45 e8          	mov    -0x18(%rbp),%rax
    4e04:	48 89 c7             	mov    %rax,%rdi
    4e07:	e8 e4 08 00 00       	callq  56f0 <_ZNKSt10_HashtableImSt4pairIKmSt10shared_ptrIN15coroutine_mimic9CoroutineEEESaIS6_ENSt8__detail10_Select1stESt8equal_toImESt4hashImENS8_18_Mod_range_hashingENS8_20_Default_ranged_hashENS8_20_Prime_rehash_policyENS8_17_Hashtable_traitsILb0ELb0ELb1EEEE19_M_find_before_nodeEmRS1_m>
    4e0c:	48 89 45 f8          	mov    %rax,-0x8(%rbp)
    4e10:	48 83 7d f8 00       	cmpq   $0x0,-0x8(%rbp)
    4e15:	74 09                	je     4e20 <_ZNKSt10_HashtableImSt4pairIKmSt10shared_ptrIN15coroutine_mimic9CoroutineEEESaIS6_ENSt8__detail10_Select1stESt8equal_toImESt4hashImENS8_18_Mod_range_hashingENS8_20_Default_ranged_hashENS8_20_Prime_rehash_policyENS8_17_Hashtable_traitsILb0ELb0ELb1EEEE12_M_find_nodeEmRS1_m+0x48>
    4e17:	48 8b 45 f8          	mov    -0x8(%rbp),%rax
    4e1b:	48 8b 00             	mov    (%rax),%rax
    4e1e:	eb 05                	jmp    4e25 <_ZNKSt10_HashtableImSt4pairIKmSt10shared_ptrIN15coroutine_mimic9CoroutineEEESaIS6_ENSt8__detail10_Select1stESt8equal_toImESt4hashImENS8_18_Mod_range_hashingENS8_20_Default_ranged_hashENS8_20_Prime_rehash_policyENS8_17_Hashtable_traitsILb0ELb0ELb1EEEE12_M_find_nodeEmRS1_m+0x4d>
    4e20:	b8 00 00 00 00       	mov    $0x0,%eax
    4e25:	c9                   	leaveq 
    4e26:	c3                   	retq   
    4e27:	90                   	nop

0000000000004e28 <_ZNSt5tupleIJRKmEEC1IvLb1EEES1_>:
    4e28:	f3 0f 1e fa          	endbr64 
    4e2c:	55                   	push   %rbp
    4e2d:	48 89 e5             	mov    %rsp,%rbp
    4e30:	48 83 ec 10          	sub    $0x10,%rsp
    4e34:	48 89 7d f8          	mov    %rdi,-0x8(%rbp)
    4e38:	48 89 75 f0          	mov    %rsi,-0x10(%rbp)
    4e3c:	48 8b 45 f8          	mov    -0x8(%rbp),%rax
    4e40:	48 8b 55 f0          	mov    -0x10(%rbp),%rdx
    4e44:	48 89 d6             	mov    %rdx,%rsi
    4e47:	48 89 c7             	mov    %rax,%rdi
    4e4a:	e8 77 09 00 00       	callq  57c6 <_ZNSt11_Tuple_implILm0EJRKmEEC1ES1_>
    4e4f:	90                   	nop
    4e50:	c9                   	leaveq 
    4e51:	c3                   	retq   

0000000000004e52 <_ZNSt8__detail21_Hash_node_value_baseISt4pairIKmSt10shared_ptrIN15coroutine_mimic9CoroutineEEEEC1Ev>:
    4e52:	f3 0f 1e fa          	endbr64 
    4e56:	55                   	push   %rbp
    4e57:	48 89 e5             	mov    %rsp,%rbp
    4e5a:	48 83 ec 10          	sub    $0x10,%rsp
    4e5e:	48 89 7d f8          	mov    %rdi,-0x8(%rbp)
    4e62:	48 8b 45 f8          	mov    -0x8(%rbp),%rax
    4e66:	48 89 c7             	mov    %rax,%rdi
    4e69:	e8 1a e8 ff ff       	callq  3688 <_ZNSt8__detail15_Hash_node_baseC1Ev>
    4e6e:	90                   	nop
    4e6f:	c9                   	leaveq 
    4e70:	c3                   	retq   
    4e71:	90                   	nop

0000000000004e72 <_ZNSt8__detail10_Hash_nodeISt4pairIKmSt10shared_ptrIN15coroutine_mimic9CoroutineEEELb0EEC1Ev>:
    4e72:	f3 0f 1e fa          	endbr64 
    4e76:	55                   	push   %rbp
    4e77:	48 89 e5             	mov    %rsp,%rbp
    4e7a:	48 83 ec 10          	sub    $0x10,%rsp
    4e7e:	48 89 7d f8          	mov    %rdi,-0x8(%rbp)
    4e82:	48 8b 45 f8          	mov    -0x8(%rbp),%rax
    4e86:	48 89 c7             	mov    %rax,%rdi
    4e89:	e8 c4 ff ff ff       	callq  4e52 <_ZNSt8__detail21_Hash_node_value_baseISt4pairIKmSt10shared_ptrIN15coroutine_mimic9CoroutineEEEEC1Ev>
    4e8e:	90                   	nop
    4e8f:	c9                   	leaveq 
    4e90:	c3                   	retq   
    4e91:	90                   	nop

0000000000004e92 <_ZNSt8__detail16_Hashtable_allocISaINS_10_Hash_nodeISt4pairIKmSt10shared_ptrIN15coroutine_mimic9CoroutineEEELb0EEEEE16_M_allocate_nodeIJRKSt21piecewise_construct_tSt5tupleIJRS3_EESG_IJEEEEEPS9_DpOT_>:
    4e92:	f3 0f 1e fa          	endbr64 
    4e96:	55                   	push   %rbp
    4e97:	48 89 e5             	mov    %rsp,%rbp
    4e9a:	41 56                	push   %r14
    4e9c:	41 55                	push   %r13
    4e9e:	41 54                	push   %r12
    4ea0:	53                   	push   %rbx
    4ea1:	48 83 ec 30          	sub    $0x30,%rsp
    4ea5:	48 89 7d c8          	mov    %rdi,-0x38(%rbp)
    4ea9:	48 89 75 c0          	mov    %rsi,-0x40(%rbp)
    4ead:	48 89 55 b8          	mov    %rdx,-0x48(%rbp)
    4eb1:	48 89 4d b0          	mov    %rcx,-0x50(%rbp)
    4eb5:	48 8b 45 c8          	mov    -0x38(%rbp),%rax
    4eb9:	48 89 c7             	mov    %rax,%rdi
    4ebc:	e8 2f 09 00 00       	callq  57f0 <_ZNSt8__detail16_Hashtable_allocISaINS_10_Hash_nodeISt4pairIKmSt10shared_ptrIN15coroutine_mimic9CoroutineEEELb0EEEEE17_M_node_allocatorEv>
    4ec1:	be 01 00 00 00       	mov    $0x1,%esi
    4ec6:	48 89 c7             	mov    %rax,%rdi
    4ec9:	e8 40 09 00 00       	callq  580e <_ZNSt16allocator_traitsISaINSt8__detail10_Hash_nodeISt4pairIKmSt10shared_ptrIN15coroutine_mimic9CoroutineEEELb0EEEEE8allocateERSA_m>
    4ece:	48 89 45 d0          	mov    %rax,-0x30(%rbp)
    4ed2:	48 8b 45 d0          	mov    -0x30(%rbp),%rax
    4ed6:	48 89 c7             	mov    %rax,%rdi
    4ed9:	e8 5e 09 00 00       	callq  583c <_ZSt12__to_addressINSt8__detail10_Hash_nodeISt4pairIKmSt10shared_ptrIN15coroutine_mimic9CoroutineEEELb0EEEEPT_SB_>
    4ede:	48 89 45 d8          	mov    %rax,-0x28(%rbp)
    4ee2:	48 8b 45 d8          	mov    -0x28(%rbp),%rax
    4ee6:	48 89 c6             	mov    %rax,%rsi
    4ee9:	bf 20 00 00 00       	mov    $0x20,%edi
    4eee:	e8 da e5 ff ff       	callq  34cd <_ZnwmPv>
    4ef3:	48 89 c7             	mov    %rax,%rdi
    4ef6:	e8 77 ff ff ff       	callq  4e72 <_ZNSt8__detail10_Hash_nodeISt4pairIKmSt10shared_ptrIN15coroutine_mimic9CoroutineEEELb0EEC1Ev>
    4efb:	48 8b 45 b0          	mov    -0x50(%rbp),%rax
    4eff:	48 89 c7             	mov    %rax,%rdi
    4f02:	e8 6b 09 00 00       	callq  5872 <_ZSt7forwardISt5tupleIJEEEOT_RNSt16remove_referenceIS2_E4typeE>
    4f07:	49 89 c6             	mov    %rax,%r14
    4f0a:	48 8b 45 b8          	mov    -0x48(%rbp),%rax
    4f0e:	48 89 c7             	mov    %rax,%rdi
    4f11:	e8 4a 09 00 00       	callq  5860 <_ZSt7forwardISt5tupleIJRKmEEEOT_RNSt16remove_referenceIS4_E4typeE>
    4f16:	49 89 c5             	mov    %rax,%r13
    4f19:	48 8b 45 c0          	mov    -0x40(%rbp),%rax
    4f1d:	48 89 c7             	mov    %rax,%rdi
    4f20:	e8 29 09 00 00       	callq  584e <_ZSt7forwardIRKSt21piecewise_construct_tEOT_RNSt16remove_referenceIS3_E4typeE>
    4f25:	49 89 c4             	mov    %rax,%r12
    4f28:	48 8b 45 d8          	mov    -0x28(%rbp),%rax
    4f2c:	48 89 c7             	mov    %rax,%rdi
    4f2f:	e8 b8 fa ff ff       	callq  49ec <_ZNSt8__detail21_Hash_node_value_baseISt4pairIKmSt10shared_ptrIN15coroutine_mimic9CoroutineEEEE9_M_valptrEv>
    4f34:	48 89 c3             	mov    %rax,%rbx
    4f37:	48 8b 45 c8          	mov    -0x38(%rbp),%rax
    4f3b:	48 89 c7             	mov    %rax,%rdi
    4f3e:	e8 ad 08 00 00       	callq  57f0 <_ZNSt8__detail16_Hashtable_allocISaINS_10_Hash_nodeISt4pairIKmSt10shared_ptrIN15coroutine_mimic9CoroutineEEELb0EEEEE17_M_node_allocatorEv>
    4f43:	4d 89 f0             	mov    %r14,%r8
    4f46:	4c 89 e9             	mov    %r13,%rcx
    4f49:	4c 89 e2             	mov    %r12,%rdx
    4f4c:	48 89 de             	mov    %rbx,%rsi
    4f4f:	48 89 c7             	mov    %rax,%rdi
    4f52:	e8 2d 09 00 00       	callq  5884 <_ZNSt16allocator_traitsISaINSt8__detail10_Hash_nodeISt4pairIKmSt10shared_ptrIN15coroutine_mimic9CoroutineEEELb0EEEEE9constructIS8_JRKSt21piecewise_construct_tSt5tupleIJRS3_EESG_IJEEEEEvRSA_PT_DpOT0_>
    4f57:	48 8b 45 d8          	mov    -0x28(%rbp),%rax
    4f5b:	eb 4b                	jmp    4fa8 <_ZNSt8__detail16_Hashtable_allocISaINS_10_Hash_nodeISt4pairIKmSt10shared_ptrIN15coroutine_mimic9CoroutineEEELb0EEEEE16_M_allocate_nodeIJRKSt21piecewise_construct_tSt5tupleIJRS3_EESG_IJEEEEEPS9_DpOT_+0x116>
    4f5d:	f3 0f 1e fa          	endbr64 
    4f61:	48 89 c7             	mov    %rax,%rdi
    4f64:	e8 27 d4 ff ff       	callq  2390 <__cxa_begin_catch@plt>
    4f69:	48 8b 45 c8          	mov    -0x38(%rbp),%rax
    4f6d:	48 89 c7             	mov    %rax,%rdi
    4f70:	e8 7b 08 00 00       	callq  57f0 <_ZNSt8__detail16_Hashtable_allocISaINS_10_Hash_nodeISt4pairIKmSt10shared_ptrIN15coroutine_mimic9CoroutineEEELb0EEEEE17_M_node_allocatorEv>
    4f75:	48 89 c1             	mov    %rax,%rcx
    4f78:	48 8b 45 d0          	mov    -0x30(%rbp),%rax
    4f7c:	ba 01 00 00 00       	mov    $0x1,%edx
    4f81:	48 89 c6             	mov    %rax,%rsi
    4f84:	48 89 cf             	mov    %rcx,%rdi
    4f87:	e8 68 09 00 00       	callq  58f4 <_ZNSt16allocator_traitsISaINSt8__detail10_Hash_nodeISt4pairIKmSt10shared_ptrIN15coroutine_mimic9CoroutineEEELb0EEEEE10deallocateERSA_PS9_m>
    4f8c:	e8 9f d5 ff ff       	callq  2530 <__cxa_rethrow@plt>
    4f91:	f3 0f 1e fa          	endbr64 
    4f95:	48 89 c3             	mov    %rax,%rbx
    4f98:	e8 e3 d5 ff ff       	callq  2580 <__cxa_end_catch@plt>
    4f9d:	48 89 d8             	mov    %rbx,%rax
    4fa0:	48 89 c7             	mov    %rax,%rdi
    4fa3:	e8 f8 d5 ff ff       	callq  25a0 <_Unwind_Resume@plt>
    4fa8:	48 83 c4 30          	add    $0x30,%rsp
    4fac:	5b                   	pop    %rbx
    4fad:	41 5c                	pop    %r12
    4faf:	41 5d                	pop    %r13
    4fb1:	41 5e                	pop    %r14
    4fb3:	5d                   	pop    %rbp
    4fb4:	c3                   	retq   
    4fb5:	90                   	nop

0000000000004fb6 <_ZNSt10_HashtableImSt4pairIKmSt10shared_ptrIN15coroutine_mimic9CoroutineEEESaIS6_ENSt8__detail10_Select1stESt8equal_toImESt4hashImENS8_18_Mod_range_hashingENS8_20_Default_ranged_hashENS8_20_Prime_rehash_policyENS8_17_Hashtable_traitsILb0ELb0ELb1EEEE21_M_insert_unique_nodeEmmPNS8_10_Hash_nodeIS6_Lb0EEEm>:
    4fb6:	f3 0f 1e fa          	endbr64 
    4fba:	55                   	push   %rbp
    4fbb:	48 89 e5             	mov    %rsp,%rbp
    4fbe:	53                   	push   %rbx
    4fbf:	48 83 ec 78          	sub    $0x78,%rsp
    4fc3:	48 89 7d a8          	mov    %rdi,-0x58(%rbp)
    4fc7:	48 89 75 a0          	mov    %rsi,-0x60(%rbp)
    4fcb:	48 89 55 98          	mov    %rdx,-0x68(%rbp)
    4fcf:	48 89 4d 90          	mov    %rcx,-0x70(%rbp)
    4fd3:	4c 89 45 88          	mov    %r8,-0x78(%rbp)
    4fd7:	64 48 8b 04 25 28 00 	mov    %fs:0x28,%rax
    4fde:	00 00 
    4fe0:	48 89 45 e8          	mov    %rax,-0x18(%rbp)
    4fe4:	31 c0                	xor    %eax,%eax
    4fe6:	48 8b 45 a8          	mov    -0x58(%rbp),%rax
    4fea:	48 83 c0 20          	add    $0x20,%rax
    4fee:	48 89 c7             	mov    %rax,%rdi
    4ff1:	e8 00 e7 ff ff       	callq  36f6 <_ZNKSt8__detail20_Prime_rehash_policy8_M_stateEv>
    4ff6:	48 89 45 c0          	mov    %rax,-0x40(%rbp)
    4ffa:	48 8d 45 c0          	lea    -0x40(%rbp),%rax
    4ffe:	48 89 45 c8          	mov    %rax,-0x38(%rbp)
    5002:	48 8b 45 a8          	mov    -0x58(%rbp),%rax
    5006:	48 8d 78 20          	lea    0x20(%rax),%rdi
    500a:	48 8b 45 a8          	mov    -0x58(%rbp),%rax
    500e:	48 8b 50 18          	mov    0x18(%rax),%rdx
    5012:	48 8b 45 a8          	mov    -0x58(%rbp),%rax
    5016:	48 8b 40 08          	mov    0x8(%rax),%rax
    501a:	48 8b 4d 88          	mov    -0x78(%rbp),%rcx
    501e:	48 89 c6             	mov    %rax,%rsi
    5021:	e8 ea d4 ff ff       	callq  2510 <_ZNKSt8__detail20_Prime_rehash_policy14_M_need_rehashEmmm@plt>
    5026:	89 c1                	mov    %eax,%ecx
    5028:	48 89 d0             	mov    %rdx,%rax
    502b:	89 4d d0             	mov    %ecx,-0x30(%rbp)
    502e:	48 89 45 d8          	mov    %rax,-0x28(%rbp)
    5032:	0f b6 45 d0          	movzbl -0x30(%rbp),%eax
    5036:	84 c0                	test   %al,%al
    5038:	74 57                	je     5091 <_ZNSt10_HashtableImSt4pairIKmSt10shared_ptrIN15coroutine_mimic9CoroutineEEESaIS6_ENSt8__detail10_Select1stESt8equal_toImESt4hashImENS8_18_Mod_range_hashingENS8_20_Default_ranged_hashENS8_20_Prime_rehash_policyENS8_17_Hashtable_traitsILb0ELb0ELb1EEEE21_M_insert_unique_nodeEmmPNS8_10_Hash_nodeIS6_Lb0EEEm+0xdb>
    503a:	48 8b 4d d8          	mov    -0x28(%rbp),%rcx
    503e:	48 8b 55 c8          	mov    -0x38(%rbp),%rdx
    5042:	48 8b 45 a8          	mov    -0x58(%rbp),%rax
    5046:	48 89 ce             	mov    %rcx,%rsi
    5049:	48 89 c7             	mov    %rax,%rdi
    504c:	e8 d5 08 00 00       	callq  5926 <_ZNSt10_HashtableImSt4pairIKmSt10shared_ptrIN15coroutine_mimic9CoroutineEEESaIS6_ENSt8__detail10_Select1stESt8equal_toImESt4hashImENS8_18_Mod_range_hashingENS8_20_Default_ranged_hashENS8_20_Prime_rehash_policyENS8_17_Hashtable_traitsILb0ELb0ELb1EEEE9_M_rehashEmRS1_>
    5051:	48 8b 45 a8          	mov    -0x58(%rbp),%rax
    5055:	48 89 c7             	mov    %rax,%rdi
    5058:	e8 63 09 00 00       	callq  59c0 <_ZNSt8__detail15_Hash_code_baseImSt4pairIKmSt10shared_ptrIN15coroutine_mimic9CoroutineEEENS_10_Select1stESt4hashImENS_18_Mod_range_hashingENS_20_Default_ranged_hashELb0EE10_M_extractEv>
    505d:	48 89 c3             	mov    %rax,%rbx
    5060:	48 8b 45 90          	mov    -0x70(%rbp),%rax
    5064:	48 89 c7             	mov    %rax,%rdi
    5067:	e8 f8 00 00 00       	callq  5164 <_ZNSt8__detail21_Hash_node_value_baseISt4pairIKmSt10shared_ptrIN15coroutine_mimic9CoroutineEEEE4_M_vEv>
    506c:	48 89 c6             	mov    %rax,%rsi
    506f:	48 89 df             	mov    %rbx,%rdi
    5072:	e8 67 09 00 00       	callq  59de <_ZNKSt8__detail10_Select1stclIRSt4pairIKmSt10shared_ptrIN15coroutine_mimic9CoroutineEEEEEDTcl3getILi0EEcl7forwardIT_Efp_EEEOSA_>
    5077:	48 89 c1             	mov    %rax,%rcx
    507a:	48 8b 55 98          	mov    -0x68(%rbp),%rdx
    507e:	48 8b 45 a8          	mov    -0x58(%rbp),%rax
    5082:	48 89 ce             	mov    %rcx,%rsi
    5085:	48 89 c7             	mov    %rax,%rdi
    5088:	e8 15 fd ff ff       	callq  4da2 <_ZNKSt10_HashtableImSt4pairIKmSt10shared_ptrIN15coroutine_mimic9CoroutineEEESaIS6_ENSt8__detail10_Select1stESt8equal_toImESt4hashImENS8_18_Mod_range_hashingENS8_20_Default_ranged_hashENS8_20_Prime_rehash_policyENS8_17_Hashtable_traitsILb0ELb0ELb1EEEE15_M_bucket_indexERS1_m>
    508d:	48 89 45 a0          	mov    %rax,-0x60(%rbp)
    5091:	48 8b 55 98          	mov    -0x68(%rbp),%rdx
    5095:	48 8b 4d 90          	mov    -0x70(%rbp),%rcx
    5099:	48 8b 45 a8          	mov    -0x58(%rbp),%rax
    509d:	48 89 ce             	mov    %rcx,%rsi
    50a0:	48 89 c7             	mov    %rax,%rdi
    50a3:	e8 60 09 00 00       	callq  5a08 <_ZNKSt8__detail15_Hash_code_baseImSt4pairIKmSt10shared_ptrIN15coroutine_mimic9CoroutineEEENS_10_Select1stESt4hashImENS_18_Mod_range_hashingENS_20_Default_ranged_hashELb0EE13_M_store_codeEPNS_10_Hash_nodeIS7_Lb0EEEm>
    50a8:	48 8b 55 90          	mov    -0x70(%rbp),%rdx
    50ac:	48 8b 4d a0          	mov    -0x60(%rbp),%rcx
    50b0:	48 8b 45 a8          	mov    -0x58(%rbp),%rax
    50b4:	48 89 ce             	mov    %rcx,%rsi
    50b7:	48 89 c7             	mov    %rax,%rdi
    50ba:	e8 61 09 00 00       	callq  5a20 <_ZNSt10_HashtableImSt4pairIKmSt10shared_ptrIN15coroutine_mimic9CoroutineEEESaIS6_ENSt8__detail10_Select1stESt8equal_toImESt4hashImENS8_18_Mod_range_hashingENS8_20_Default_ranged_hashENS8_20_Prime_rehash_policyENS8_17_Hashtable_traitsILb0ELb0ELb1EEEE22_M_insert_bucket_beginEmPNS8_10_Hash_nodeIS6_Lb0EEE>
    50bf:	48 8b 45 a8          	mov    -0x58(%rbp),%rax
    50c3:	48 8b 40 18          	mov    0x18(%rax),%rax
    50c7:	48 8d 50 01          	lea    0x1(%rax),%rdx
    50cb:	48 8b 45 a8          	mov    -0x58(%rbp),%rax
    50cf:	48 89 50 18          	mov    %rdx,0x18(%rax)
    50d3:	48 8b 55 90          	mov    -0x70(%rbp),%rdx
    50d7:	48 8d 45 b8          	lea    -0x48(%rbp),%rax
    50db:	48 89 d6             	mov    %rdx,%rsi
    50de:	48 89 c7             	mov    %rax,%rdi
    50e1:	e8 c4 fa ff ff       	callq  4baa <_ZNSt8__detail14_Node_iteratorISt4pairIKmSt10shared_ptrIN15coroutine_mimic9CoroutineEEELb0ELb0EEC1EPNS_10_Hash_nodeIS7_Lb0EEE>
    50e6:	48 8b 45 b8          	mov    -0x48(%rbp),%rax
    50ea:	48 8b 5d e8          	mov    -0x18(%rbp),%rbx
    50ee:	64 48 33 1c 25 28 00 	xor    %fs:0x28,%rbx
    50f5:	00 00 
    50f7:	74 42                	je     513b <_ZNSt10_HashtableImSt4pairIKmSt10shared_ptrIN15coroutine_mimic9CoroutineEEESaIS6_ENSt8__detail10_Select1stESt8equal_toImESt4hashImENS8_18_Mod_range_hashingENS8_20_Default_ranged_hashENS8_20_Prime_rehash_policyENS8_17_Hashtable_traitsILb0ELb0ELb1EEEE21_M_insert_unique_nodeEmmPNS8_10_Hash_nodeIS6_Lb0EEEm+0x185>
    50f9:	eb 3b                	jmp    5136 <_ZNSt10_HashtableImSt4pairIKmSt10shared_ptrIN15coroutine_mimic9CoroutineEEESaIS6_ENSt8__detail10_Select1stESt8equal_toImESt4hashImENS8_18_Mod_range_hashingENS8_20_Default_ranged_hashENS8_20_Prime_rehash_policyENS8_17_Hashtable_traitsILb0ELb0ELb1EEEE21_M_insert_unique_nodeEmmPNS8_10_Hash_nodeIS6_Lb0EEEm+0x180>
    50fb:	f3 0f 1e fa          	endbr64 
    50ff:	48 89 c7             	mov    %rax,%rdi
    5102:	e8 89 d2 ff ff       	callq  2390 <__cxa_begin_catch@plt>
    5107:	48 8b 55 90          	mov    -0x70(%rbp),%rdx
    510b:	48 8b 45 a8          	mov    -0x58(%rbp),%rax
    510f:	48 89 d6             	mov    %rdx,%rsi
    5112:	48 89 c7             	mov    %rax,%rdi
    5115:	e8 54 03 00 00       	callq  546e <_ZNSt8__detail16_Hashtable_allocISaINS_10_Hash_nodeISt4pairIKmSt10shared_ptrIN15coroutine_mimic9CoroutineEEELb0EEEEE18_M_deallocate_nodeEPS9_>
    511a:	e8 11 d4 ff ff       	callq  2530 <__cxa_rethrow@plt>
    511f:	f3 0f 1e fa          	endbr64 
    5123:	48 89 c3             	mov    %rax,%rbx
    5126:	e8 55 d4 ff ff       	callq  2580 <__cxa_end_catch@plt>
    512b:	48 89 d8             	mov    %rbx,%rax
    512e:	48 89 c7             	mov    %rax,%rdi
    5131:	e8 6a d4 ff ff       	callq  25a0 <_Unwind_Resume@plt>
    5136:	e8 b5 d3 ff ff       	callq  24f0 <__stack_chk_fail@plt>
    513b:	48 83 c4 78          	add    $0x78,%rsp
    513f:	5b                   	pop    %rbx
    5140:	5d                   	pop    %rbp
    5141:	c3                   	retq   

0000000000005142 <_ZNKSt8__detail14_Node_iteratorISt4pairIKmSt10shared_ptrIN15coroutine_mimic9CoroutineEEELb0ELb0EEptEv>:
    5142:	f3 0f 1e fa          	endbr64 
    5146:	55                   	push   %rbp
    5147:	48 89 e5             	mov    %rsp,%rbp
    514a:	48 83 ec 10          	sub    $0x10,%rsp
    514e:	48 89 7d f8          	mov    %rdi,-0x8(%rbp)
    5152:	48 8b 45 f8          	mov    -0x8(%rbp),%rax
    5156:	48 8b 00             	mov    (%rax),%rax
    5159:	48 89 c7             	mov    %rax,%rdi
    515c:	e8 8b f8 ff ff       	callq  49ec <_ZNSt8__detail21_Hash_node_value_baseISt4pairIKmSt10shared_ptrIN15coroutine_mimic9CoroutineEEEE9_M_valptrEv>
    5161:	c9                   	leaveq 
    5162:	c3                   	retq   
    5163:	90                   	nop

0000000000005164 <_ZNSt8__detail21_Hash_node_value_baseISt4pairIKmSt10shared_ptrIN15coroutine_mimic9CoroutineEEEE4_M_vEv>:
    5164:	f3 0f 1e fa          	endbr64 
    5168:	55                   	push   %rbp
    5169:	48 89 e5             	mov    %rsp,%rbp
    516c:	48 83 ec 10          	sub    $0x10,%rsp
    5170:	48 89 7d f8          	mov    %rdi,-0x8(%rbp)
    5174:	48 8b 45 f8          	mov    -0x8(%rbp),%rax
    5178:	48 89 c7             	mov    %rax,%rdi
    517b:	e8 6c f8 ff ff       	callq  49ec <_ZNSt8__detail21_Hash_node_value_baseISt4pairIKmSt10shared_ptrIN15coroutine_mimic9CoroutineEEEE9_M_valptrEv>
    5180:	c9                   	leaveq 
    5181:	c3                   	retq   

0000000000005182 <_ZNKSt12__shared_ptrIN15coroutine_mimic9CoroutineELN9__gnu_cxx12_Lock_policyE2EE3getEv>:
    5182:	f3 0f 1e fa          	endbr64 
    5186:	55                   	push   %rbp
    5187:	48 89 e5             	mov    %rsp,%rbp
    518a:	48 89 7d f8          	mov    %rdi,-0x8(%rbp)
    518e:	48 8b 45 f8          	mov    -0x8(%rbp),%rax
    5192:	48 8b 00             	mov    (%rax),%rax
    5195:	5d                   	pop    %rbp
    5196:	c3                   	retq   
    5197:	90                   	nop

0000000000005198 <_ZN9__gnu_cxx16__aligned_bufferISt4pairIKmSt10shared_ptrIN15coroutine_mimic9CoroutineEEEE6_M_ptrEv>:
    5198:	f3 0f 1e fa          	endbr64 
    519c:	55                   	push   %rbp
    519d:	48 89 e5             	mov    %rsp,%rbp
    51a0:	48 83 ec 10          	sub    $0x10,%rsp
    51a4:	48 89 7d f8          	mov    %rdi,-0x8(%rbp)
    51a8:	48 8b 45 f8          	mov    -0x8(%rbp),%rax
    51ac:	48 89 c7             	mov    %rax,%rdi
    51af:	e8 60 09 00 00       	callq  5b14 <_ZN9__gnu_cxx16__aligned_bufferISt4pairIKmSt10shared_ptrIN15coroutine_mimic9CoroutineEEEE7_M_addrEv>
    51b4:	c9                   	leaveq 
    51b5:	c3                   	retq   

00000000000051b6 <_ZNKSt10_HashtableImSt4pairIKmSt10shared_ptrIN15coroutine_mimic9CoroutineEEESaIS6_ENSt8__detail10_Select1stESt8equal_toImESt4hashImENS8_18_Mod_range_hashingENS8_20_Default_ranged_hashENS8_20_Prime_rehash_policyENS8_17_Hashtable_traitsILb0ELb0ELb1EEEE15_M_bucket_indexEPNS8_10_Hash_nodeIS6_Lb0EEE>:
    51b6:	f3 0f 1e fa          	endbr64 
    51ba:	55                   	push   %rbp
    51bb:	48 89 e5             	mov    %rsp,%rbp
    51be:	48 83 ec 10          	sub    $0x10,%rsp
    51c2:	48 89 7d f8          	mov    %rdi,-0x8(%rbp)
    51c6:	48 89 75 f0          	mov    %rsi,-0x10(%rbp)
    51ca:	48 8b 45 f8          	mov    -0x8(%rbp),%rax
    51ce:	48 8b 50 08          	mov    0x8(%rax),%rdx
    51d2:	48 8b 4d f0          	mov    -0x10(%rbp),%rcx
    51d6:	48 8b 45 f8          	mov    -0x8(%rbp),%rax
    51da:	48 89 ce             	mov    %rcx,%rsi
    51dd:	48 89 c7             	mov    %rax,%rdi
    51e0:	e8 41 09 00 00       	callq  5b26 <_ZNKSt8__detail15_Hash_code_baseImSt4pairIKmSt10shared_ptrIN15coroutine_mimic9CoroutineEEENS_10_Select1stESt4hashImENS_18_Mod_range_hashingENS_20_Default_ranged_hashELb0EE15_M_bucket_indexEPKNS_10_Hash_nodeIS7_Lb0EEEm>
    51e5:	c9                   	leaveq 
    51e6:	c3                   	retq   
    51e7:	90                   	nop

00000000000051e8 <_ZNSt10_HashtableImSt4pairIKmSt10shared_ptrIN15coroutine_mimic9CoroutineEEESaIS6_ENSt8__detail10_Select1stESt8equal_toImESt4hashImENS8_18_Mod_range_hashingENS8_20_Default_ranged_hashENS8_20_Prime_rehash_policyENS8_17_Hashtable_traitsILb0ELb0ELb1EEEE20_M_get_previous_nodeEmPNS8_15_Hash_node_baseE>:
    51e8:	f3 0f 1e fa          	endbr64 
    51ec:	55                   	push   %rbp
    51ed:	48 89 e5             	mov    %rsp,%rbp
    51f0:	48 89 7d e8          	mov    %rdi,-0x18(%rbp)
    51f4:	48 89 75 e0          	mov    %rsi,-0x20(%rbp)
    51f8:	48 89 55 d8          	mov    %rdx,-0x28(%rbp)
    51fc:	48 8b 45 e8          	mov    -0x18(%rbp),%rax
    5200:	48 8b 00             	mov    (%rax),%rax
    5203:	48 8b 55 e0          	mov    -0x20(%rbp),%rdx
    5207:	48 c1 e2 03          	shl    $0x3,%rdx
    520b:	48 01 d0             	add    %rdx,%rax
    520e:	48 8b 00             	mov    (%rax),%rax
    5211:	48 89 45 f8          	mov    %rax,-0x8(%rbp)
    5215:	48 8b 45 f8          	mov    -0x8(%rbp),%rax
    5219:	48 8b 00             	mov    (%rax),%rax
    521c:	48 39 45 d8          	cmp    %rax,-0x28(%rbp)
    5220:	74 0d                	je     522f <_ZNSt10_HashtableImSt4pairIKmSt10shared_ptrIN15coroutine_mimic9CoroutineEEESaIS6_ENSt8__detail10_Select1stESt8equal_toImESt4hashImENS8_18_Mod_range_hashingENS8_20_Default_ranged_hashENS8_20_Prime_rehash_policyENS8_17_Hashtable_traitsILb0ELb0ELb1EEEE20_M_get_previous_nodeEmPNS8_15_Hash_node_baseE+0x47>
    5222:	48 8b 45 f8          	mov    -0x8(%rbp),%rax
    5226:	48 8b 00             	mov    (%rax),%rax
    5229:	48 89 45 f8          	mov    %rax,-0x8(%rbp)
    522d:	eb e6                	jmp    5215 <_ZNSt10_HashtableImSt4pairIKmSt10shared_ptrIN15coroutine_mimic9CoroutineEEESaIS6_ENSt8__detail10_Select1stESt8equal_toImESt4hashImENS8_18_Mod_range_hashingENS8_20_Default_ranged_hashENS8_20_Prime_rehash_policyENS8_17_Hashtable_traitsILb0ELb0ELb1EEEE20_M_get_previous_nodeEmPNS8_15_Hash_node_baseE+0x2d>
    522f:	48 8b 45 f8          	mov    -0x8(%rbp),%rax
    5233:	5d                   	pop    %rbp
    5234:	c3                   	retq   
    5235:	90                   	nop

0000000000005236 <_ZNSt10_HashtableImSt4pairIKmSt10shared_ptrIN15coroutine_mimic9CoroutineEEESaIS6_ENSt8__detail10_Select1stESt8equal_toImESt4hashImENS8_18_Mod_range_hashingENS8_20_Default_ranged_hashENS8_20_Prime_rehash_policyENS8_17_Hashtable_traitsILb0ELb0ELb1EEEE8_M_eraseEmPNS8_15_Hash_node_baseEPNS8_10_Hash_nodeIS6_Lb0EEE>:
    5236:	f3 0f 1e fa          	endbr64 
    523a:	55                   	push   %rbp
    523b:	48 89 e5             	mov    %rsp,%rbp
    523e:	53                   	push   %rbx
    523f:	48 83 ec 48          	sub    $0x48,%rsp
    5243:	48 89 7d c8          	mov    %rdi,-0x38(%rbp)
    5247:	48 89 75 c0          	mov    %rsi,-0x40(%rbp)
    524b:	48 89 55 b8          	mov    %rdx,-0x48(%rbp)
    524f:	48 89 4d b0          	mov    %rcx,-0x50(%rbp)
    5253:	64 48 8b 04 25 28 00 	mov    %fs:0x28,%rax
    525a:	00 00 
    525c:	48 89 45 e8          	mov    %rax,-0x18(%rbp)
    5260:	31 c0                	xor    %eax,%eax
    5262:	48 8b 45 c8          	mov    -0x38(%rbp),%rax
    5266:	48 8b 00             	mov    (%rax),%rax
    5269:	48 8b 55 c0          	mov    -0x40(%rbp),%rdx
    526d:	48 c1 e2 03          	shl    $0x3,%rdx
    5271:	48 01 d0             	add    %rdx,%rax
    5274:	48 8b 00             	mov    (%rax),%rax
    5277:	48 39 45 b8          	cmp    %rax,-0x48(%rbp)
    527b:	75 58                	jne    52d5 <_ZNSt10_HashtableImSt4pairIKmSt10shared_ptrIN15coroutine_mimic9CoroutineEEESaIS6_ENSt8__detail10_Select1stESt8equal_toImESt4hashImENS8_18_Mod_range_hashingENS8_20_Default_ranged_hashENS8_20_Prime_rehash_policyENS8_17_Hashtable_traitsILb0ELb0ELb1EEEE8_M_eraseEmPNS8_15_Hash_node_baseEPNS8_10_Hash_nodeIS6_Lb0EEE+0x9f>
    527d:	48 8b 45 b0          	mov    -0x50(%rbp),%rax
    5281:	48 8b 00             	mov    (%rax),%rax
    5284:	48 85 c0             	test   %rax,%rax
    5287:	74 23                	je     52ac <_ZNSt10_HashtableImSt4pairIKmSt10shared_ptrIN15coroutine_mimic9CoroutineEEESaIS6_ENSt8__detail10_Select1stESt8equal_toImESt4hashImENS8_18_Mod_range_hashingENS8_20_Default_ranged_hashENS8_20_Prime_rehash_policyENS8_17_Hashtable_traitsILb0ELb0ELb1EEEE8_M_eraseEmPNS8_15_Hash_node_baseEPNS8_10_Hash_nodeIS6_Lb0EEE+0x76>
    5289:	48 8b 45 b0          	mov    -0x50(%rbp),%rax
    528d:	48 89 c7             	mov    %rax,%rdi
    5290:	e8 c3 01 00 00       	callq  5458 <_ZNKSt8__detail10_Hash_nodeISt4pairIKmSt10shared_ptrIN15coroutine_mimic9CoroutineEEELb0EE7_M_nextEv>
    5295:	48 89 c2             	mov    %rax,%rdx
    5298:	48 8b 45 c8          	mov    -0x38(%rbp),%rax
    529c:	48 89 d6             	mov    %rdx,%rsi
    529f:	48 89 c7             	mov    %rax,%rdi
    52a2:	e8 0f ff ff ff       	callq  51b6 <_ZNKSt10_HashtableImSt4pairIKmSt10shared_ptrIN15coroutine_mimic9CoroutineEEESaIS6_ENSt8__detail10_Select1stESt8equal_toImESt4hashImENS8_18_Mod_range_hashingENS8_20_Default_ranged_hashENS8_20_Prime_rehash_policyENS8_17_Hashtable_traitsILb0ELb0ELb1EEEE15_M_bucket_indexEPNS8_10_Hash_nodeIS6_Lb0EEE>
    52a7:	48 89 c3             	mov    %rax,%rbx
    52aa:	eb 05                	jmp    52b1 <_ZNSt10_HashtableImSt4pairIKmSt10shared_ptrIN15coroutine_mimic9CoroutineEEESaIS6_ENSt8__detail10_Select1stESt8equal_toImESt4hashImENS8_18_Mod_range_hashingENS8_20_Default_ranged_hashENS8_20_Prime_rehash_policyENS8_17_Hashtable_traitsILb0ELb0ELb1EEEE8_M_eraseEmPNS8_15_Hash_node_baseEPNS8_10_Hash_nodeIS6_Lb0EEE+0x7b>
    52ac:	bb 00 00 00 00       	mov    $0x0,%ebx
    52b1:	48 8b 45 b0          	mov    -0x50(%rbp),%rax
    52b5:	48 89 c7             	mov    %rax,%rdi
    52b8:	e8 9b 01 00 00       	callq  5458 <_ZNKSt8__detail10_Hash_nodeISt4pairIKmSt10shared_ptrIN15coroutine_mimic9CoroutineEEELb0EE7_M_nextEv>
    52bd:	48 89 c2             	mov    %rax,%rdx
    52c0:	48 8b 75 c0          	mov    -0x40(%rbp),%rsi
    52c4:	48 8b 45 c8          	mov    -0x38(%rbp),%rax
    52c8:	48 89 d9             	mov    %rbx,%rcx
    52cb:	48 89 c7             	mov    %rax,%rdi
    52ce:	e8 e3 08 00 00       	callq  5bb6 <_ZNSt10_HashtableImSt4pairIKmSt10shared_ptrIN15coroutine_mimic9CoroutineEEESaIS6_ENSt8__detail10_Select1stESt8equal_toImESt4hashImENS8_18_Mod_range_hashingENS8_20_Default_ranged_hashENS8_20_Prime_rehash_policyENS8_17_Hashtable_traitsILb0ELb0ELb1EEEE22_M_remove_bucket_beginEmPNS8_10_Hash_nodeIS6_Lb0EEEm>
    52d3:	eb 51                	jmp    5326 <_ZNSt10_HashtableImSt4pairIKmSt10shared_ptrIN15coroutine_mimic9CoroutineEEESaIS6_ENSt8__detail10_Select1stESt8equal_toImESt4hashImENS8_18_Mod_range_hashingENS8_20_Default_ranged_hashENS8_20_Prime_rehash_policyENS8_17_Hashtable_traitsILb0ELb0ELb1EEEE8_M_eraseEmPNS8_15_Hash_node_baseEPNS8_10_Hash_nodeIS6_Lb0EEE+0xf0>
    52d5:	48 8b 45 b0          	mov    -0x50(%rbp),%rax
    52d9:	48 8b 00             	mov    (%rax),%rax
    52dc:	48 85 c0             	test   %rax,%rax
    52df:	74 45                	je     5326 <_ZNSt10_HashtableImSt4pairIKmSt10shared_ptrIN15coroutine_mimic9CoroutineEEESaIS6_ENSt8__detail10_Select1stESt8equal_toImESt4hashImENS8_18_Mod_range_hashingENS8_20_Default_ranged_hashENS8_20_Prime_rehash_policyENS8_17_Hashtable_traitsILb0ELb0ELb1EEEE8_M_eraseEmPNS8_15_Hash_node_baseEPNS8_10_Hash_nodeIS6_Lb0EEE+0xf0>
    52e1:	48 8b 45 b0          	mov    -0x50(%rbp),%rax
    52e5:	48 89 c7             	mov    %rax,%rdi
    52e8:	e8 6b 01 00 00       	callq  5458 <_ZNKSt8__detail10_Hash_nodeISt4pairIKmSt10shared_ptrIN15coroutine_mimic9CoroutineEEELb0EE7_M_nextEv>
    52ed:	48 89 c2             	mov    %rax,%rdx
    52f0:	48 8b 45 c8          	mov    -0x38(%rbp),%rax
    52f4:	48 89 d6             	mov    %rdx,%rsi
    52f7:	48 89 c7             	mov    %rax,%rdi
    52fa:	e8 b7 fe ff ff       	callq  51b6 <_ZNKSt10_HashtableImSt4pairIKmSt10shared_ptrIN15coroutine_mimic9CoroutineEEESaIS6_ENSt8__detail10_Select1stESt8equal_toImESt4hashImENS8_18_Mod_range_hashingENS8_20_Default_ranged_hashENS8_20_Prime_rehash_policyENS8_17_Hashtable_traitsILb0ELb0ELb1EEEE15_M_bucket_indexEPNS8_10_Hash_nodeIS6_Lb0EEE>
    52ff:	48 89 45 e0          	mov    %rax,-0x20(%rbp)
    5303:	48 8b 45 e0          	mov    -0x20(%rbp),%rax
    5307:	48 3b 45 c0          	cmp    -0x40(%rbp),%rax
    530b:	74 19                	je     5326 <_ZNSt10_HashtableImSt4pairIKmSt10shared_ptrIN15coroutine_mimic9CoroutineEEESaIS6_ENSt8__detail10_Select1stESt8equal_toImESt4hashImENS8_18_Mod_range_hashingENS8_20_Default_ranged_hashENS8_20_Prime_rehash_policyENS8_17_Hashtable_traitsILb0ELb0ELb1EEEE8_M_eraseEmPNS8_15_Hash_node_baseEPNS8_10_Hash_nodeIS6_Lb0EEE+0xf0>
    530d:	48 8b 45 c8          	mov    -0x38(%rbp),%rax
    5311:	48 8b 00             	mov    (%rax),%rax
    5314:	48 8b 55 e0          	mov    -0x20(%rbp),%rdx
    5318:	48 c1 e2 03          	shl    $0x3,%rdx
    531c:	48 01 c2             	add    %rax,%rdx
    531f:	48 8b 45 b8          	mov    -0x48(%rbp),%rax
    5323:	48 89 02             	mov    %rax,(%rdx)
    5326:	48 8b 45 b0          	mov    -0x50(%rbp),%rax
    532a:	48 8b 10             	mov    (%rax),%rdx
    532d:	48 8b 45 b8          	mov    -0x48(%rbp),%rax
    5331:	48 89 10             	mov    %rdx,(%rax)
    5334:	48 8b 45 b0          	mov    -0x50(%rbp),%rax
    5338:	48 89 c7             	mov    %rax,%rdi
    533b:	e8 18 01 00 00       	callq  5458 <_ZNKSt8__detail10_Hash_nodeISt4pairIKmSt10shared_ptrIN15coroutine_mimic9CoroutineEEELb0EE7_M_nextEv>
    5340:	48 89 c2             	mov    %rax,%rdx
    5343:	48 8d 45 d8          	lea    -0x28(%rbp),%rax
    5347:	48 89 d6             	mov    %rdx,%rsi
    534a:	48 89 c7             	mov    %rax,%rdi
    534d:	e8 58 f8 ff ff       	callq  4baa <_ZNSt8__detail14_Node_iteratorISt4pairIKmSt10shared_ptrIN15coroutine_mimic9CoroutineEEELb0ELb0EEC1EPNS_10_Hash_nodeIS7_Lb0EEE>
    5352:	48 8b 55 b0          	mov    -0x50(%rbp),%rdx
    5356:	48 8b 45 c8          	mov    -0x38(%rbp),%rax
    535a:	48 89 d6             	mov    %rdx,%rsi
    535d:	48 89 c7             	mov    %rax,%rdi
    5360:	e8 09 01 00 00       	callq  546e <_ZNSt8__detail16_Hashtable_allocISaINS_10_Hash_nodeISt4pairIKmSt10shared_ptrIN15coroutine_mimic9CoroutineEEELb0EEEEE18_M_deallocate_nodeEPS9_>
    5365:	48 8b 45 c8          	mov    -0x38(%rbp),%rax
    5369:	48 8b 40 18          	mov    0x18(%rax),%rax
    536d:	48 8d 50 ff          	lea    -0x1(%rax),%rdx
    5371:	48 8b 45 c8          	mov    -0x38(%rbp),%rax
    5375:	48 89 50 18          	mov    %rdx,0x18(%rax)
    5379:	48 8b 45 d8          	mov    -0x28(%rbp),%rax
    537d:	48 8b 4d e8          	mov    -0x18(%rbp),%rcx
    5381:	64 48 33 0c 25 28 00 	xor    %fs:0x28,%rcx
    5388:	00 00 
    538a:	74 05                	je     5391 <_ZNSt10_HashtableImSt4pairIKmSt10shared_ptrIN15coroutine_mimic9CoroutineEEESaIS6_ENSt8__detail10_Select1stESt8equal_toImESt4hashImENS8_18_Mod_range_hashingENS8_20_Default_ranged_hashENS8_20_Prime_rehash_policyENS8_17_Hashtable_traitsILb0ELb0ELb1EEEE8_M_eraseEmPNS8_15_Hash_node_baseEPNS8_10_Hash_nodeIS6_Lb0EEE+0x15b>
    538c:	e8 5f d1 ff ff       	callq  24f0 <__stack_chk_fail@plt>
    5391:	48 83 c4 48          	add    $0x48,%rsp
    5395:	5b                   	pop    %rbx
    5396:	5d                   	pop    %rbp
    5397:	c3                   	retq   

0000000000005398 <_ZNSt7__cxx1112basic_stringIcSt11char_traitsIcESaIcEE16_M_construct_auxIPcEEvT_S7_St12__false_type>:
    5398:	f3 0f 1e fa          	endbr64 
    539c:	55                   	push   %rbp
    539d:	48 89 e5             	mov    %rsp,%rbp
    53a0:	48 83 ec 30          	sub    $0x30,%rsp
    53a4:	48 89 7d e8          	mov    %rdi,-0x18(%rbp)
    53a8:	48 89 75 e0          	mov    %rsi,-0x20(%rbp)
    53ac:	48 89 55 d8          	mov    %rdx,-0x28(%rbp)
    53b0:	64 48 8b 04 25 28 00 	mov    %fs:0x28,%rax
    53b7:	00 00 
    53b9:	48 89 45 f8          	mov    %rax,-0x8(%rbp)
    53bd:	31 c0                	xor    %eax,%eax
    53bf:	48 8b 55 d8          	mov    -0x28(%rbp),%rdx
    53c3:	48 8b 4d e0          	mov    -0x20(%rbp),%rcx
    53c7:	48 8b 45 e8          	mov    -0x18(%rbp),%rax
    53cb:	48 89 ce             	mov    %rcx,%rsi
    53ce:	48 89 c7             	mov    %rax,%rdi
    53d1:	e8 ba 08 00 00       	callq  5c90 <_ZNSt7__cxx1112basic_stringIcSt11char_traitsIcESaIcEE12_M_constructIPcEEvT_S7_St20forward_iterator_tag>
    53d6:	90                   	nop
    53d7:	48 8b 45 f8          	mov    -0x8(%rbp),%rax
    53db:	64 48 33 04 25 28 00 	xor    %fs:0x28,%rax
    53e2:	00 00 
    53e4:	74 05                	je     53eb <_ZNSt7__cxx1112basic_stringIcSt11char_traitsIcESaIcEE16_M_construct_auxIPcEEvT_S7_St12__false_type+0x53>
    53e6:	e8 05 d1 ff ff       	callq  24f0 <__stack_chk_fail@plt>
    53eb:	c9                   	leaveq 
    53ec:	c3                   	retq   
    53ed:	90                   	nop

00000000000053ee <_ZNSt10_Head_baseILm1ESt14default_deleteIhELb1EEC1Ev>:
    53ee:	f3 0f 1e fa          	endbr64 
    53f2:	55                   	push   %rbp
    53f3:	48 89 e5             	mov    %rsp,%rbp
    53f6:	48 89 7d f8          	mov    %rdi,-0x8(%rbp)
    53fa:	90                   	nop
    53fb:	5d                   	pop    %rbp
    53fc:	c3                   	retq   

00000000000053fd <_ZSt12__get_helperILm0EPhJSt14default_deleteIhEEERT0_RSt11_Tuple_implIXT_EJS3_DpT1_EE>:
    53fd:	f3 0f 1e fa          	endbr64 
    5401:	55                   	push   %rbp
    5402:	48 89 e5             	mov    %rsp,%rbp
    5405:	48 83 ec 10          	sub    $0x10,%rsp
    5409:	48 89 7d f8          	mov    %rdi,-0x8(%rbp)
    540d:	48 8b 45 f8          	mov    -0x8(%rbp),%rax
    5411:	48 89 c7             	mov    %rax,%rdi
    5414:	e8 ba 09 00 00       	callq  5dd3 <_ZNSt11_Tuple_implILm0EJPhSt14default_deleteIhEEE7_M_headERS3_>
    5419:	c9                   	leaveq 
    541a:	c3                   	retq   

000000000000541b <_ZSt3getILm1EJPhSt14default_deleteIhEEERNSt13tuple_elementIXT_ESt5tupleIJDpT0_EEE4typeERS7_>:
    541b:	f3 0f 1e fa          	endbr64 
    541f:	55                   	push   %rbp
    5420:	48 89 e5             	mov    %rsp,%rbp
    5423:	48 83 ec 10          	sub    $0x10,%rsp
    5427:	48 89 7d f8          	mov    %rdi,-0x8(%rbp)
    542b:	48 8b 45 f8          	mov    -0x8(%rbp),%rax
    542f:	48 89 c7             	mov    %rax,%rdi
    5432:	e8 ba 09 00 00       	callq  5df1 <_ZSt12__get_helperILm1ESt14default_deleteIhEJEERT0_RSt11_Tuple_implIXT_EJS2_DpT1_EE>
    5437:	c9                   	leaveq 
    5438:	c3                   	retq   

0000000000005439 <_ZSt12__get_helperILm0EPhJSt14default_deleteIhEEERKT0_RKSt11_Tuple_implIXT_EJS3_DpT1_EE>:
    5439:	f3 0f 1e fa          	endbr64 
    543d:	55                   	push   %rbp
    543e:	48 89 e5             	mov    %rsp,%rbp
    5441:	48 83 ec 10          	sub    $0x10,%rsp
    5445:	48 89 7d f8          	mov    %rdi,-0x8(%rbp)
    5449:	48 8b 45 f8          	mov    -0x8(%rbp),%rax
    544d:	48 89 c7             	mov    %rax,%rdi
    5450:	e8 ba 09 00 00       	callq  5e0f <_ZNSt11_Tuple_implILm0EJPhSt14default_deleteIhEEE7_M_headERKS3_>
    5455:	c9                   	leaveq 
    5456:	c3                   	retq   
    5457:	90                   	nop

0000000000005458 <_ZNKSt8__detail10_Hash_nodeISt4pairIKmSt10shared_ptrIN15coroutine_mimic9CoroutineEEELb0EE7_M_nextEv>:
    5458:	f3 0f 1e fa          	endbr64 
    545c:	55                   	push   %rbp
    545d:	48 89 e5             	mov    %rsp,%rbp
    5460:	48 89 7d f8          	mov    %rdi,-0x8(%rbp)
    5464:	48 8b 45 f8          	mov    -0x8(%rbp),%rax
    5468:	48 8b 00             	mov    (%rax),%rax
    546b:	5d                   	pop    %rbp
    546c:	c3                   	retq   
    546d:	90                   	nop

000000000000546e <_ZNSt8__detail16_Hashtable_allocISaINS_10_Hash_nodeISt4pairIKmSt10shared_ptrIN15coroutine_mimic9CoroutineEEELb0EEEEE18_M_deallocate_nodeEPS9_>:
    546e:	f3 0f 1e fa          	endbr64 
    5472:	55                   	push   %rbp
    5473:	48 89 e5             	mov    %rsp,%rbp
    5476:	53                   	push   %rbx
    5477:	48 83 ec 18          	sub    $0x18,%rsp
    547b:	48 89 7d e8          	mov    %rdi,-0x18(%rbp)
    547f:	48 89 75 e0          	mov    %rsi,-0x20(%rbp)
    5483:	48 8b 45 e0          	mov    -0x20(%rbp),%rax
    5487:	48 89 c7             	mov    %rax,%rdi
    548a:	e8 5d f5 ff ff       	callq  49ec <_ZNSt8__detail21_Hash_node_value_baseISt4pairIKmSt10shared_ptrIN15coroutine_mimic9CoroutineEEEE9_M_valptrEv>
    548f:	48 89 c3             	mov    %rax,%rbx
    5492:	48 8b 45 e8          	mov    -0x18(%rbp),%rax
    5496:	48 89 c7             	mov    %rax,%rdi
    5499:	e8 52 03 00 00       	callq  57f0 <_ZNSt8__detail16_Hashtable_allocISaINS_10_Hash_nodeISt4pairIKmSt10shared_ptrIN15coroutine_mimic9CoroutineEEELb0EEEEE17_M_node_allocatorEv>
    549e:	48 89 de             	mov    %rbx,%rsi
    54a1:	48 89 c7             	mov    %rax,%rdi
    54a4:	e8 84 09 00 00       	callq  5e2d <_ZNSt16allocator_traitsISaINSt8__detail10_Hash_nodeISt4pairIKmSt10shared_ptrIN15coroutine_mimic9CoroutineEEELb0EEEEE7destroyIS8_EEvRSA_PT_>
    54a9:	48 8b 55 e0          	mov    -0x20(%rbp),%rdx
    54ad:	48 8b 45 e8          	mov    -0x18(%rbp),%rax
    54b1:	48 89 d6             	mov    %rdx,%rsi
    54b4:	48 89 c7             	mov    %rax,%rdi
    54b7:	e8 9c 09 00 00       	callq  5e58 <_ZNSt8__detail16_Hashtable_allocISaINS_10_Hash_nodeISt4pairIKmSt10shared_ptrIN15coroutine_mimic9CoroutineEEELb0EEEEE22_M_deallocate_node_ptrEPS9_>
    54bc:	90                   	nop
    54bd:	48 83 c4 18          	add    $0x18,%rsp
    54c1:	5b                   	pop    %rbx
    54c2:	5d                   	pop    %rbp
    54c3:	c3                   	retq   

00000000000054c4 <_ZNKSt10_HashtableImSt4pairIKmSt10shared_ptrIN15coroutine_mimic9CoroutineEEESaIS6_ENSt8__detail10_Select1stESt8equal_toImESt4hashImENS8_18_Mod_range_hashingENS8_20_Default_ranged_hashENS8_20_Prime_rehash_policyENS8_17_Hashtable_traitsILb0ELb0ELb1EEEE21_M_uses_single_bucketEPPNS8_15_Hash_node_baseE>:
    54c4:	f3 0f 1e fa          	endbr64 
    54c8:	55                   	push   %rbp
    54c9:	48 89 e5             	mov    %rsp,%rbp
    54cc:	48 89 7d f8          	mov    %rdi,-0x8(%rbp)
    54d0:	48 89 75 f0          	mov    %rsi,-0x10(%rbp)
    54d4:	48 8b 45 f8          	mov    -0x8(%rbp),%rax
    54d8:	48 83 c0 30          	add    $0x30,%rax
    54dc:	48 39 45 f0          	cmp    %rax,-0x10(%rbp)
    54e0:	0f 94 c0             	sete   %al
    54e3:	0f b6 c0             	movzbl %al,%eax
    54e6:	48 85 c0             	test   %rax,%rax
    54e9:	0f 95 c0             	setne  %al
    54ec:	5d                   	pop    %rbp
    54ed:	c3                   	retq   

00000000000054ee <_ZNSt8__detail16_Hashtable_allocISaINS_10_Hash_nodeISt4pairIKmSt10shared_ptrIN15coroutine_mimic9CoroutineEEELb0EEEEE21_M_deallocate_bucketsEPPNS_15_Hash_node_baseEm>:
    54ee:	f3 0f 1e fa          	endbr64 
    54f2:	55                   	push   %rbp
    54f3:	48 89 e5             	mov    %rsp,%rbp
    54f6:	53                   	push   %rbx
    54f7:	48 83 ec 48          	sub    $0x48,%rsp
    54fb:	48 89 7d c8          	mov    %rdi,-0x38(%rbp)
    54ff:	48 89 75 c0          	mov    %rsi,-0x40(%rbp)
    5503:	48 89 55 b8          	mov    %rdx,-0x48(%rbp)
    5507:	64 48 8b 04 25 28 00 	mov    %fs:0x28,%rax
    550e:	00 00 
    5510:	48 89 45 e8          	mov    %rax,-0x18(%rbp)
    5514:	31 c0                	xor    %eax,%eax
    5516:	48 8b 45 c0          	mov    -0x40(%rbp),%rax
    551a:	48 89 c7             	mov    %rax,%rdi
    551d:	e8 80 09 00 00       	callq  5ea2 <_ZNSt14pointer_traitsIPPNSt8__detail15_Hash_node_baseEE10pointer_toERS2_>
    5522:	48 89 45 e0          	mov    %rax,-0x20(%rbp)
    5526:	48 8b 45 c8          	mov    -0x38(%rbp),%rax
    552a:	48 89 c7             	mov    %rax,%rdi
    552d:	e8 be 02 00 00       	callq  57f0 <_ZNSt8__detail16_Hashtable_allocISaINS_10_Hash_nodeISt4pairIKmSt10shared_ptrIN15coroutine_mimic9CoroutineEEELb0EEEEE17_M_node_allocatorEv>
    5532:	48 89 c2             	mov    %rax,%rdx
    5535:	48 8d 45 df          	lea    -0x21(%rbp),%rax
    5539:	48 89 d6             	mov    %rdx,%rsi
    553c:	48 89 c7             	mov    %rax,%rdi
    553f:	e8 7c 09 00 00       	callq  5ec0 <_ZNSaIPNSt8__detail15_Hash_node_baseEEC1INS_10_Hash_nodeISt4pairIKmSt10shared_ptrIN15coroutine_mimic9CoroutineEEELb0EEEEERKSaIT_E>
    5544:	48 8b 55 b8          	mov    -0x48(%rbp),%rdx
    5548:	48 8b 4d e0          	mov    -0x20(%rbp),%rcx
    554c:	48 8d 45 df          	lea    -0x21(%rbp),%rax
    5550:	48 89 ce             	mov    %rcx,%rsi
    5553:	48 89 c7             	mov    %rax,%rdi
    5556:	e8 a8 09 00 00       	callq  5f03 <_ZNSt16allocator_traitsISaIPNSt8__detail15_Hash_node_baseEEE10deallocateERS3_PS2_m>
    555b:	48 8d 45 df          	lea    -0x21(%rbp),%rax
    555f:	48 89 c7             	mov    %rax,%rdi
    5562:	e8 7d 09 00 00       	callq  5ee4 <_ZNSaIPNSt8__detail15_Hash_node_baseEED1Ev>
    5567:	90                   	nop
    5568:	48 8b 45 e8          	mov    -0x18(%rbp),%rax
    556c:	64 48 33 04 25 28 00 	xor    %fs:0x28,%rax
    5573:	00 00 
    5575:	74 25                	je     559c <_ZNSt8__detail16_Hashtable_allocISaINS_10_Hash_nodeISt4pairIKmSt10shared_ptrIN15coroutine_mimic9CoroutineEEELb0EEEEE21_M_deallocate_bucketsEPPNS_15_Hash_node_baseEm+0xae>
    5577:	eb 1e                	jmp    5597 <_ZNSt8__detail16_Hashtable_allocISaINS_10_Hash_nodeISt4pairIKmSt10shared_ptrIN15coroutine_mimic9CoroutineEEELb0EEEEE21_M_deallocate_bucketsEPPNS_15_Hash_node_baseEm+0xa9>
    5579:	f3 0f 1e fa          	endbr64 
    557d:	48 89 c3             	mov    %rax,%rbx
    5580:	48 8d 45 df          	lea    -0x21(%rbp),%rax
    5584:	48 89 c7             	mov    %rax,%rdi
    5587:	e8 58 09 00 00       	callq  5ee4 <_ZNSaIPNSt8__detail15_Hash_node_baseEED1Ev>
    558c:	48 89 d8             	mov    %rbx,%rax
    558f:	48 89 c7             	mov    %rax,%rdi
    5592:	e8 09 d0 ff ff       	callq  25a0 <_Unwind_Resume@plt>
    5597:	e8 54 cf ff ff       	callq  24f0 <__stack_chk_fail@plt>
    559c:	48 83 c4 48          	add    $0x48,%rsp
    55a0:	5b                   	pop    %rbx
    55a1:	5d                   	pop    %rbp
    55a2:	c3                   	retq   
    55a3:	90                   	nop

00000000000055a4 <_ZNSt12__shared_ptrIN15coroutine_mimic9CoroutineELN9__gnu_cxx12_Lock_policyE2EEC1ISaIS1_EJPNS0_9SchedulerERSt8functionIFvS8_St3anyEERSA_EEESt20_Sp_alloc_shared_tagIT_EDpOT0_>:
    55a4:	f3 0f 1e fa          	endbr64 
    55a8:	55                   	push   %rbp
    55a9:	48 89 e5             	mov    %rsp,%rbp
    55ac:	41 55                	push   %r13
    55ae:	41 54                	push   %r12
    55b0:	53                   	push   %rbx
    55b1:	48 83 ec 38          	sub    $0x38,%rsp
    55b5:	48 89 7d d8          	mov    %rdi,-0x28(%rbp)
    55b9:	48 89 75 d0          	mov    %rsi,-0x30(%rbp)
    55bd:	48 89 55 c8          	mov    %rdx,-0x38(%rbp)
    55c1:	48 89 4d c0          	mov    %rcx,-0x40(%rbp)
    55c5:	4c 89 45 b8          	mov    %r8,-0x48(%rbp)
    55c9:	48 8b 45 d8          	mov    -0x28(%rbp),%rax
    55cd:	48 c7 00 00 00 00 00 	movq   $0x0,(%rax)
    55d4:	48 8b 45 d8          	mov    -0x28(%rbp),%rax
    55d8:	48 8d 58 08          	lea    0x8(%rax),%rbx
    55dc:	48 8b 45 b8          	mov    -0x48(%rbp),%rax
    55e0:	48 89 c7             	mov    %rax,%rdi
    55e3:	e8 f5 f0 ff ff       	callq  46dd <_ZSt7forwardIRSt3anyEOT_RNSt16remove_referenceIS2_E4typeE>
    55e8:	49 89 c5             	mov    %rax,%r13
    55eb:	48 8b 45 c0          	mov    -0x40(%rbp),%rax
    55ef:	48 89 c7             	mov    %rax,%rdi
    55f2:	e8 d4 f0 ff ff       	callq  46cb <_ZSt7forwardIRSt8functionIFvPN15coroutine_mimic9SchedulerESt3anyEEEOT_RNSt16remove_referenceIS8_E4typeE>
    55f7:	49 89 c4             	mov    %rax,%r12
    55fa:	48 8b 45 c8          	mov    -0x38(%rbp),%rax
    55fe:	48 89 c7             	mov    %rax,%rdi
    5601:	e8 b3 f0 ff ff       	callq  46b9 <_ZSt7forwardIPN15coroutine_mimic9SchedulerEEOT_RNSt16remove_referenceIS3_E4typeE>
    5606:	48 89 c1             	mov    %rax,%rcx
    5609:	48 8b 45 d8          	mov    -0x28(%rbp),%rax
    560d:	48 8b 55 d0          	mov    -0x30(%rbp),%rdx
    5611:	4d 89 e9             	mov    %r13,%r9
    5614:	4d 89 e0             	mov    %r12,%r8
    5617:	48 89 c6             	mov    %rax,%rsi
    561a:	48 89 df             	mov    %rbx,%rdi
    561d:	e8 14 09 00 00       	callq  5f36 <_ZNSt14__shared_countILN9__gnu_cxx12_Lock_policyE2EEC1IN15coroutine_mimic9CoroutineESaIS5_EJPNS4_9SchedulerERSt8functionIFvS8_St3anyEERSA_EEERPT_St20_Sp_alloc_shared_tagIT0_EDpOT1_>
    5622:	48 8b 45 d8          	mov    -0x28(%rbp),%rax
    5626:	48 8b 10             	mov    (%rax),%rdx
    5629:	48 8b 45 d8          	mov    -0x28(%rbp),%rax
    562d:	48 89 d6             	mov    %rdx,%rsi
    5630:	48 89 c7             	mov    %rax,%rdi
    5633:	e8 d0 0a 00 00       	callq  6108 <_ZNSt12__shared_ptrIN15coroutine_mimic9CoroutineELN9__gnu_cxx12_Lock_policyE2EE31_M_enable_shared_from_this_withIS1_S1_EENSt9enable_ifIXntsrNS4_15__has_esft_baseIT0_vEE5valueEvE4typeEPT_>
    5638:	90                   	nop
    5639:	48 83 c4 38          	add    $0x38,%rsp
    563d:	5b                   	pop    %rbx
    563e:	41 5c                	pop    %r12
    5640:	41 5d                	pop    %r13
    5642:	5d                   	pop    %rbp
    5643:	c3                   	retq   

0000000000005644 <_ZNSt16_Sp_counted_baseILN9__gnu_cxx12_Lock_policyE2EED1Ev>:
    5644:	f3 0f 1e fa          	endbr64 
    5648:	55                   	push   %rbp
    5649:	48 89 e5             	mov    %rsp,%rbp
    564c:	48 89 7d f8          	mov    %rdi,-0x8(%rbp)
    5650:	48 8d 15 d9 a4 00 00 	lea    0xa4d9(%rip),%rdx        # fb30 <_ZTVSt16_Sp_counted_baseILN9__gnu_cxx12_Lock_policyE2EE+0x10>
    5657:	48 8b 45 f8          	mov    -0x8(%rbp),%rax
    565b:	48 89 10             	mov    %rdx,(%rax)
    565e:	90                   	nop
    565f:	5d                   	pop    %rbp
    5660:	c3                   	retq   
    5661:	90                   	nop

0000000000005662 <_ZNSt16_Sp_counted_baseILN9__gnu_cxx12_Lock_policyE2EED0Ev>:
    5662:	f3 0f 1e fa          	endbr64 
    5666:	55                   	push   %rbp
    5667:	48 89 e5             	mov    %rsp,%rbp
    566a:	48 83 ec 10          	sub    $0x10,%rsp
    566e:	48 89 7d f8          	mov    %rdi,-0x8(%rbp)
    5672:	48 8b 45 f8          	mov    -0x8(%rbp),%rax
    5676:	48 89 c7             	mov    %rax,%rdi
    5679:	e8 c6 ff ff ff       	callq  5644 <_ZNSt16_Sp_counted_baseILN9__gnu_cxx12_Lock_policyE2EED1Ev>
    567e:	48 8b 45 f8          	mov    -0x8(%rbp),%rax
    5682:	be 10 00 00 00       	mov    $0x10,%esi
    5687:	48 89 c7             	mov    %rax,%rdi
    568a:	e8 11 ce ff ff       	callq  24a0 <_ZdlPvm@plt>
    568f:	c9                   	leaveq 
    5690:	c3                   	retq   
    5691:	90                   	nop

0000000000005692 <_ZNKSt8__detail15_Hash_code_baseImSt4pairIKmSt10shared_ptrIN15coroutine_mimic9CoroutineEEENS_10_Select1stESt4hashImENS_18_Mod_range_hashingENS_20_Default_ranged_hashELb0EE5_M_h1Ev>:
    5692:	f3 0f 1e fa          	endbr64 
    5696:	55                   	push   %rbp
    5697:	48 89 e5             	mov    %rsp,%rbp
    569a:	48 83 ec 10          	sub    $0x10,%rsp
    569e:	48 89 7d f8          	mov    %rdi,-0x8(%rbp)
    56a2:	48 8b 45 f8          	mov    -0x8(%rbp),%rax
    56a6:	48 89 c7             	mov    %rax,%rdi
    56a9:	e8 6d 0a 00 00       	callq  611b <_ZNSt8__detail21_Hashtable_ebo_helperILi1ESt4hashImELb1EE7_S_cgetERKS3_>
    56ae:	c9                   	leaveq 
    56af:	c3                   	retq   

00000000000056b0 <_ZNKSt8__detail15_Hash_code_baseImSt4pairIKmSt10shared_ptrIN15coroutine_mimic9CoroutineEEENS_10_Select1stESt4hashImENS_18_Mod_range_hashingENS_20_Default_ranged_hashELb0EE15_M_bucket_indexERS2_mm>:
    56b0:	f3 0f 1e fa          	endbr64 
    56b4:	55                   	push   %rbp
    56b5:	48 89 e5             	mov    %rsp,%rbp
    56b8:	48 83 ec 20          	sub    $0x20,%rsp
    56bc:	48 89 7d f8          	mov    %rdi,-0x8(%rbp)
    56c0:	48 89 75 f0          	mov    %rsi,-0x10(%rbp)
    56c4:	48 89 55 e8          	mov    %rdx,-0x18(%rbp)
    56c8:	48 89 4d e0          	mov    %rcx,-0x20(%rbp)
    56cc:	48 8b 45 f8          	mov    -0x8(%rbp),%rax
    56d0:	48 89 c7             	mov    %rax,%rdi
    56d3:	e8 56 0a 00 00       	callq  612e <_ZNKSt8__detail15_Hash_code_baseImSt4pairIKmSt10shared_ptrIN15coroutine_mimic9CoroutineEEENS_10_Select1stESt4hashImENS_18_Mod_range_hashingENS_20_Default_ranged_hashELb0EE5_M_h2Ev>
    56d8:	48 89 c1             	mov    %rax,%rcx
    56db:	48 8b 55 e0          	mov    -0x20(%rbp),%rdx
    56df:	48 8b 45 e8          	mov    -0x18(%rbp),%rax
    56e3:	48 89 c6             	mov    %rax,%rsi
    56e6:	48 89 cf             	mov    %rcx,%rdi
    56e9:	e8 b4 df ff ff       	callq  36a2 <_ZNKSt8__detail18_Mod_range_hashingclEmm>
    56ee:	c9                   	leaveq 
    56ef:	c3                   	retq   

00000000000056f0 <_ZNKSt10_HashtableImSt4pairIKmSt10shared_ptrIN15coroutine_mimic9CoroutineEEESaIS6_ENSt8__detail10_Select1stESt8equal_toImESt4hashImENS8_18_Mod_range_hashingENS8_20_Default_ranged_hashENS8_20_Prime_rehash_policyENS8_17_Hashtable_traitsILb0ELb0ELb1EEEE19_M_find_before_nodeEmRS1_m>:
    56f0:	f3 0f 1e fa          	endbr64 
    56f4:	55                   	push   %rbp
    56f5:	48 89 e5             	mov    %rsp,%rbp
    56f8:	48 83 ec 30          	sub    $0x30,%rsp
    56fc:	48 89 7d e8          	mov    %rdi,-0x18(%rbp)
    5700:	48 89 75 e0          	mov    %rsi,-0x20(%rbp)
    5704:	48 89 55 d8          	mov    %rdx,-0x28(%rbp)
    5708:	48 89 4d d0          	mov    %rcx,-0x30(%rbp)
    570c:	48 8b 45 e8          	mov    -0x18(%rbp),%rax
    5710:	48 8b 00             	mov    (%rax),%rax
    5713:	48 8b 55 e0          	mov    -0x20(%rbp),%rdx
    5717:	48 c1 e2 03          	shl    $0x3,%rdx
    571b:	48 01 d0             	add    %rdx,%rax
    571e:	48 8b 00             	mov    (%rax),%rax
    5721:	48 89 45 f0          	mov    %rax,-0x10(%rbp)
    5725:	48 83 7d f0 00       	cmpq   $0x0,-0x10(%rbp)
    572a:	75 0a                	jne    5736 <_ZNKSt10_HashtableImSt4pairIKmSt10shared_ptrIN15coroutine_mimic9CoroutineEEESaIS6_ENSt8__detail10_Select1stESt8equal_toImESt4hashImENS8_18_Mod_range_hashingENS8_20_Default_ranged_hashENS8_20_Prime_rehash_policyENS8_17_Hashtable_traitsILb0ELb0ELb1EEEE19_M_find_before_nodeEmRS1_m+0x46>
    572c:	b8 00 00 00 00       	mov    $0x0,%eax
    5731:	e9 8d 00 00 00       	jmpq   57c3 <_ZNKSt10_HashtableImSt4pairIKmSt10shared_ptrIN15coroutine_mimic9CoroutineEEESaIS6_ENSt8__detail10_Select1stESt8equal_toImESt4hashImENS8_18_Mod_range_hashingENS8_20_Default_ranged_hashENS8_20_Prime_rehash_policyENS8_17_Hashtable_traitsILb0ELb0ELb1EEEE19_M_find_before_nodeEmRS1_m+0xd3>
    5736:	48 8b 45 f0          	mov    -0x10(%rbp),%rax
    573a:	48 8b 00             	mov    (%rax),%rax
    573d:	48 89 45 f8          	mov    %rax,-0x8(%rbp)
    5741:	48 8b 4d f8          	mov    -0x8(%rbp),%rcx
    5745:	48 8b 55 d0          	mov    -0x30(%rbp),%rdx
    5749:	48 8b 75 d8          	mov    -0x28(%rbp),%rsi
    574d:	48 8b 45 e8          	mov    -0x18(%rbp),%rax
    5751:	48 89 c7             	mov    %rax,%rdi
    5754:	e8 f3 09 00 00       	callq  614c <_ZNKSt8__detail15_Hashtable_baseImSt4pairIKmSt10shared_ptrIN15coroutine_mimic9CoroutineEEENS_10_Select1stESt8equal_toImESt4hashImENS_18_Mod_range_hashingENS_20_Default_ranged_hashENS_17_Hashtable_traitsILb0ELb0ELb1EEEE9_M_equalsERS2_mPNS_10_Hash_nodeIS7_Lb0EEE>
    5759:	84 c0                	test   %al,%al
    575b:	74 06                	je     5763 <_ZNKSt10_HashtableImSt4pairIKmSt10shared_ptrIN15coroutine_mimic9CoroutineEEESaIS6_ENSt8__detail10_Select1stESt8equal_toImESt4hashImENS8_18_Mod_range_hashingENS8_20_Default_ranged_hashENS8_20_Prime_rehash_policyENS8_17_Hashtable_traitsILb0ELb0ELb1EEEE19_M_find_before_nodeEmRS1_m+0x73>
    575d:	48 8b 45 f0          	mov    -0x10(%rbp),%rax
    5761:	eb 60                	jmp    57c3 <_ZNKSt10_HashtableImSt4pairIKmSt10shared_ptrIN15coroutine_mimic9CoroutineEEESaIS6_ENSt8__detail10_Select1stESt8equal_toImESt4hashImENS8_18_Mod_range_hashingENS8_20_Default_ranged_hashENS8_20_Prime_rehash_policyENS8_17_Hashtable_traitsILb0ELb0ELb1EEEE19_M_find_before_nodeEmRS1_m+0xd3>
    5763:	48 8b 45 f8          	mov    -0x8(%rbp),%rax
    5767:	48 8b 00             	mov    (%rax),%rax
    576a:	48 85 c0             	test   %rax,%rax
    576d:	74 24                	je     5793 <_ZNKSt10_HashtableImSt4pairIKmSt10shared_ptrIN15coroutine_mimic9CoroutineEEESaIS6_ENSt8__detail10_Select1stESt8equal_toImESt4hashImENS8_18_Mod_range_hashingENS8_20_Default_ranged_hashENS8_20_Prime_rehash_policyENS8_17_Hashtable_traitsILb0ELb0ELb1EEEE19_M_find_before_nodeEmRS1_m+0xa3>
    576f:	48 8b 45 f8          	mov    -0x8(%rbp),%rax
    5773:	48 89 c7             	mov    %rax,%rdi
    5776:	e8 dd fc ff ff       	callq  5458 <_ZNKSt8__detail10_Hash_nodeISt4pairIKmSt10shared_ptrIN15coroutine_mimic9CoroutineEEELb0EE7_M_nextEv>
    577b:	48 89 c2             	mov    %rax,%rdx
    577e:	48 8b 45 e8          	mov    -0x18(%rbp),%rax
    5782:	48 89 d6             	mov    %rdx,%rsi
    5785:	48 89 c7             	mov    %rax,%rdi
    5788:	e8 29 fa ff ff       	callq  51b6 <_ZNKSt10_HashtableImSt4pairIKmSt10shared_ptrIN15coroutine_mimic9CoroutineEEESaIS6_ENSt8__detail10_Select1stESt8equal_toImESt4hashImENS8_18_Mod_range_hashingENS8_20_Default_ranged_hashENS8_20_Prime_rehash_policyENS8_17_Hashtable_traitsILb0ELb0ELb1EEEE15_M_bucket_indexEPNS8_10_Hash_nodeIS6_Lb0EEE>
    578d:	48 39 45 e0          	cmp    %rax,-0x20(%rbp)
    5791:	74 07                	je     579a <_ZNKSt10_HashtableImSt4pairIKmSt10shared_ptrIN15coroutine_mimic9CoroutineEEESaIS6_ENSt8__detail10_Select1stESt8equal_toImESt4hashImENS8_18_Mod_range_hashingENS8_20_Default_ranged_hashENS8_20_Prime_rehash_policyENS8_17_Hashtable_traitsILb0ELb0ELb1EEEE19_M_find_before_nodeEmRS1_m+0xaa>
    5793:	b8 01 00 00 00       	mov    $0x1,%eax
    5798:	eb 05                	jmp    579f <_ZNKSt10_HashtableImSt4pairIKmSt10shared_ptrIN15coroutine_mimic9CoroutineEEESaIS6_ENSt8__detail10_Select1stESt8equal_toImESt4hashImENS8_18_Mod_range_hashingENS8_20_Default_ranged_hashENS8_20_Prime_rehash_policyENS8_17_Hashtable_traitsILb0ELb0ELb1EEEE19_M_find_before_nodeEmRS1_m+0xaf>
    579a:	b8 00 00 00 00       	mov    $0x0,%eax
    579f:	84 c0                	test   %al,%al
    57a1:	75 1a                	jne    57bd <_ZNKSt10_HashtableImSt4pairIKmSt10shared_ptrIN15coroutine_mimic9CoroutineEEESaIS6_ENSt8__detail10_Select1stESt8equal_toImESt4hashImENS8_18_Mod_range_hashingENS8_20_Default_ranged_hashENS8_20_Prime_rehash_policyENS8_17_Hashtable_traitsILb0ELb0ELb1EEEE19_M_find_before_nodeEmRS1_m+0xcd>
    57a3:	48 8b 45 f8          	mov    -0x8(%rbp),%rax
    57a7:	48 89 45 f0          	mov    %rax,-0x10(%rbp)
    57ab:	48 8b 45 f8          	mov    -0x8(%rbp),%rax
    57af:	48 89 c7             	mov    %rax,%rdi
    57b2:	e8 a1 fc ff ff       	callq  5458 <_ZNKSt8__detail10_Hash_nodeISt4pairIKmSt10shared_ptrIN15coroutine_mimic9CoroutineEEELb0EE7_M_nextEv>
    57b7:	48 89 45 f8          	mov    %rax,-0x8(%rbp)
    57bb:	eb 84                	jmp    5741 <_ZNKSt10_HashtableImSt4pairIKmSt10shared_ptrIN15coroutine_mimic9CoroutineEEESaIS6_ENSt8__detail10_Select1stESt8equal_toImESt4hashImENS8_18_Mod_range_hashingENS8_20_Default_ranged_hashENS8_20_Prime_rehash_policyENS8_17_Hashtable_traitsILb0ELb0ELb1EEEE19_M_find_before_nodeEmRS1_m+0x51>
    57bd:	90                   	nop
    57be:	b8 00 00 00 00       	mov    $0x0,%eax
    57c3:	c9                   	leaveq 
    57c4:	c3                   	retq   
    57c5:	90                   	nop

00000000000057c6 <_ZNSt11_Tuple_implILm0EJRKmEEC1ES1_>:
    57c6:	f3 0f 1e fa          	endbr64 
    57ca:	55                   	push   %rbp
    57cb:	48 89 e5             	mov    %rsp,%rbp
    57ce:	48 83 ec 10          	sub    $0x10,%rsp
    57d2:	48 89 7d f8          	mov    %rdi,-0x8(%rbp)
    57d6:	48 89 75 f0          	mov    %rsi,-0x10(%rbp)
    57da:	48 8b 45 f8          	mov    -0x8(%rbp),%rax
    57de:	48 8b 55 f0          	mov    -0x10(%rbp),%rdx
    57e2:	48 89 d6             	mov    %rdx,%rsi
    57e5:	48 89 c7             	mov    %rax,%rdi
    57e8:	e8 bf 09 00 00       	callq  61ac <_ZNSt10_Head_baseILm0ERKmLb0EEC1ES1_>
    57ed:	90                   	nop
    57ee:	c9                   	leaveq 
    57ef:	c3                   	retq   

00000000000057f0 <_ZNSt8__detail16_Hashtable_allocISaINS_10_Hash_nodeISt4pairIKmSt10shared_ptrIN15coroutine_mimic9CoroutineEEELb0EEEEE17_M_node_allocatorEv>:
    57f0:	f3 0f 1e fa          	endbr64 
    57f4:	55                   	push   %rbp
    57f5:	48 89 e5             	mov    %rsp,%rbp
    57f8:	48 83 ec 10          	sub    $0x10,%rsp
    57fc:	48 89 7d f8          	mov    %rdi,-0x8(%rbp)
    5800:	48 8b 45 f8          	mov    -0x8(%rbp),%rax
    5804:	48 89 c7             	mov    %rax,%rdi
    5807:	e8 be 09 00 00       	callq  61ca <_ZNSt8__detail21_Hashtable_ebo_helperILi0ESaINS_10_Hash_nodeISt4pairIKmSt10shared_ptrIN15coroutine_mimic9CoroutineEEELb0EEEELb1EE6_S_getERSB_>
    580c:	c9                   	leaveq 
    580d:	c3                   	retq   

000000000000580e <_ZNSt16allocator_traitsISaINSt8__detail10_Hash_nodeISt4pairIKmSt10shared_ptrIN15coroutine_mimic9CoroutineEEELb0EEEEE8allocateERSA_m>:
    580e:	f3 0f 1e fa          	endbr64 
    5812:	55                   	push   %rbp
    5813:	48 89 e5             	mov    %rsp,%rbp
    5816:	48 83 ec 10          	sub    $0x10,%rsp
    581a:	48 89 7d f8          	mov    %rdi,-0x8(%rbp)
    581e:	48 89 75 f0          	mov    %rsi,-0x10(%rbp)
    5822:	48 8b 4d f0          	mov    -0x10(%rbp),%rcx
    5826:	48 8b 45 f8          	mov    -0x8(%rbp),%rax
    582a:	ba 00 00 00 00       	mov    $0x0,%edx
    582f:	48 89 ce             	mov    %rcx,%rsi
    5832:	48 89 c7             	mov    %rax,%rdi
    5835:	e8 a2 09 00 00       	callq  61dc <_ZN9__gnu_cxx13new_allocatorINSt8__detail10_Hash_nodeISt4pairIKmSt10shared_ptrIN15coroutine_mimic9CoroutineEEELb0EEEE8allocateEmPKv>
    583a:	c9                   	leaveq 
    583b:	c3                   	retq   

000000000000583c <_ZSt12__to_addressINSt8__detail10_Hash_nodeISt4pairIKmSt10shared_ptrIN15coroutine_mimic9CoroutineEEELb0EEEEPT_SB_>:
    583c:	f3 0f 1e fa          	endbr64 
    5840:	55                   	push   %rbp
    5841:	48 89 e5             	mov    %rsp,%rbp
    5844:	48 89 7d f8          	mov    %rdi,-0x8(%rbp)
    5848:	48 8b 45 f8          	mov    -0x8(%rbp),%rax
    584c:	5d                   	pop    %rbp
    584d:	c3                   	retq   

000000000000584e <_ZSt7forwardIRKSt21piecewise_construct_tEOT_RNSt16remove_referenceIS3_E4typeE>:
    584e:	f3 0f 1e fa          	endbr64 
    5852:	55                   	push   %rbp
    5853:	48 89 e5             	mov    %rsp,%rbp
    5856:	48 89 7d f8          	mov    %rdi,-0x8(%rbp)
    585a:	48 8b 45 f8          	mov    -0x8(%rbp),%rax
    585e:	5d                   	pop    %rbp
    585f:	c3                   	retq   

0000000000005860 <_ZSt7forwardISt5tupleIJRKmEEEOT_RNSt16remove_referenceIS4_E4typeE>:
    5860:	f3 0f 1e fa          	endbr64 
    5864:	55                   	push   %rbp
    5865:	48 89 e5             	mov    %rsp,%rbp
    5868:	48 89 7d f8          	mov    %rdi,-0x8(%rbp)
    586c:	48 8b 45 f8          	mov    -0x8(%rbp),%rax
    5870:	5d                   	pop    %rbp
    5871:	c3                   	retq   

0000000000005872 <_ZSt7forwardISt5tupleIJEEEOT_RNSt16remove_referenceIS2_E4typeE>:
    5872:	f3 0f 1e fa          	endbr64 
    5876:	55                   	push   %rbp
    5877:	48 89 e5             	mov    %rsp,%rbp
    587a:	48 89 7d f8          	mov    %rdi,-0x8(%rbp)
    587e:	48 8b 45 f8          	mov    -0x8(%rbp),%rax
    5882:	5d                   	pop    %rbp
    5883:	c3                   	retq   

0000000000005884 <_ZNSt16allocator_traitsISaINSt8__detail10_Hash_nodeISt4pairIKmSt10shared_ptrIN15coroutine_mimic9CoroutineEEELb0EEEEE9constructIS8_JRKSt21piecewise_construct_tSt5tupleIJRS3_EESG_IJEEEEEvRSA_PT_DpOT0_>:
    5884:	f3 0f 1e fa          	endbr64 
    5888:	55                   	push   %rbp
    5889:	48 89 e5             	mov    %rsp,%rbp
    588c:	41 54                	push   %r12
    588e:	53                   	push   %rbx
    588f:	48 83 ec 30          	sub    $0x30,%rsp
    5893:	48 89 7d e8          	mov    %rdi,-0x18(%rbp)
    5897:	48 89 75 e0          	mov    %rsi,-0x20(%rbp)
    589b:	48 89 55 d8          	mov    %rdx,-0x28(%rbp)
    589f:	48 89 4d d0          	mov    %rcx,-0x30(%rbp)
    58a3:	4c 89 45 c8          	mov    %r8,-0x38(%rbp)
    58a7:	48 8b 45 c8          	mov    -0x38(%rbp),%rax
    58ab:	48 89 c7             	mov    %rax,%rdi
    58ae:	e8 bf ff ff ff       	callq  5872 <_ZSt7forwardISt5tupleIJEEEOT_RNSt16remove_referenceIS2_E4typeE>
    58b3:	49 89 c4             	mov    %rax,%r12
    58b6:	48 8b 45 d0          	mov    -0x30(%rbp),%rax
    58ba:	48 89 c7             	mov    %rax,%rdi
    58bd:	e8 9e ff ff ff       	callq  5860 <_ZSt7forwardISt5tupleIJRKmEEEOT_RNSt16remove_referenceIS4_E4typeE>
    58c2:	48 89 c3             	mov    %rax,%rbx
    58c5:	48 8b 45 d8          	mov    -0x28(%rbp),%rax
    58c9:	48 89 c7             	mov    %rax,%rdi
    58cc:	e8 7d ff ff ff       	callq  584e <_ZSt7forwardIRKSt21piecewise_construct_tEOT_RNSt16remove_referenceIS3_E4typeE>
    58d1:	48 89 c2             	mov    %rax,%rdx
    58d4:	48 8b 75 e0          	mov    -0x20(%rbp),%rsi
    58d8:	48 8b 45 e8          	mov    -0x18(%rbp),%rax
    58dc:	4d 89 e0             	mov    %r12,%r8
    58df:	48 89 d9             	mov    %rbx,%rcx
    58e2:	48 89 c7             	mov    %rax,%rdi
    58e5:	e8 64 09 00 00       	callq  624e <_ZN9__gnu_cxx13new_allocatorINSt8__detail10_Hash_nodeISt4pairIKmSt10shared_ptrIN15coroutine_mimic9CoroutineEEELb0EEEE9constructIS9_JRKSt21piecewise_construct_tSt5tupleIJRS4_EESG_IJEEEEEvPT_DpOT0_>
    58ea:	90                   	nop
    58eb:	48 83 c4 30          	add    $0x30,%rsp
    58ef:	5b                   	pop    %rbx
    58f0:	41 5c                	pop    %r12
    58f2:	5d                   	pop    %rbp
    58f3:	c3                   	retq   

00000000000058f4 <_ZNSt16allocator_traitsISaINSt8__detail10_Hash_nodeISt4pairIKmSt10shared_ptrIN15coroutine_mimic9CoroutineEEELb0EEEEE10deallocateERSA_PS9_m>:
    58f4:	f3 0f 1e fa          	endbr64 
    58f8:	55                   	push   %rbp
    58f9:	48 89 e5             	mov    %rsp,%rbp
    58fc:	48 83 ec 20          	sub    $0x20,%rsp
    5900:	48 89 7d f8          	mov    %rdi,-0x8(%rbp)
    5904:	48 89 75 f0          	mov    %rsi,-0x10(%rbp)
    5908:	48 89 55 e8          	mov    %rdx,-0x18(%rbp)
    590c:	48 8b 55 e8          	mov    -0x18(%rbp),%rdx
    5910:	48 8b 4d f0          	mov    -0x10(%rbp),%rcx
    5914:	48 8b 45 f8          	mov    -0x8(%rbp),%rax
    5918:	48 89 ce             	mov    %rcx,%rsi
    591b:	48 89 c7             	mov    %rax,%rdi
    591e:	e8 f7 09 00 00       	callq  631a <_ZN9__gnu_cxx13new_allocatorINSt8__detail10_Hash_nodeISt4pairIKmSt10shared_ptrIN15coroutine_mimic9CoroutineEEELb0EEEE10deallocateEPSA_m>
    5923:	90                   	nop
    5924:	c9                   	leaveq 
    5925:	c3                   	retq   

0000000000005926 <_ZNSt10_HashtableImSt4pairIKmSt10shared_ptrIN15coroutine_mimic9CoroutineEEESaIS6_ENSt8__detail10_Select1stESt8equal_toImESt4hashImENS8_18_Mod_range_hashingENS8_20_Default_ranged_hashENS8_20_Prime_rehash_policyENS8_17_Hashtable_traitsILb0ELb0ELb1EEEE9_M_rehashEmRS1_>:
    5926:	f3 0f 1e fa          	endbr64 
    592a:	55                   	push   %rbp
    592b:	48 89 e5             	mov    %rsp,%rbp
    592e:	53                   	push   %rbx
    592f:	48 83 ec 38          	sub    $0x38,%rsp
    5933:	48 89 7d d8          	mov    %rdi,-0x28(%rbp)
    5937:	48 89 75 d0          	mov    %rsi,-0x30(%rbp)
    593b:	48 89 55 c8          	mov    %rdx,-0x38(%rbp)
    593f:	64 48 8b 04 25 28 00 	mov    %fs:0x28,%rax
    5946:	00 00 
    5948:	48 89 45 e8          	mov    %rax,-0x18(%rbp)
    594c:	31 c0                	xor    %eax,%eax
    594e:	48 8b 55 d0          	mov    -0x30(%rbp),%rdx
    5952:	48 8b 45 d8          	mov    -0x28(%rbp),%rax
    5956:	48 89 d6             	mov    %rdx,%rsi
    5959:	48 89 c7             	mov    %rax,%rdi
    595c:	e8 df 09 00 00       	callq  6340 <_ZNSt10_HashtableImSt4pairIKmSt10shared_ptrIN15coroutine_mimic9CoroutineEEESaIS6_ENSt8__detail10_Select1stESt8equal_toImESt4hashImENS8_18_Mod_range_hashingENS8_20_Default_ranged_hashENS8_20_Prime_rehash_policyENS8_17_Hashtable_traitsILb0ELb0ELb1EEEE13_M_rehash_auxEmSt17integral_constantIbLb1EE>
    5961:	eb 42                	jmp    59a5 <_ZNSt10_HashtableImSt4pairIKmSt10shared_ptrIN15coroutine_mimic9CoroutineEEESaIS6_ENSt8__detail10_Select1stESt8equal_toImESt4hashImENS8_18_Mod_range_hashingENS8_20_Default_ranged_hashENS8_20_Prime_rehash_policyENS8_17_Hashtable_traitsILb0ELb0ELb1EEEE9_M_rehashEmRS1_+0x7f>
    5963:	f3 0f 1e fa          	endbr64 
    5967:	48 89 c7             	mov    %rax,%rdi
    596a:	e8 21 ca ff ff       	callq  2390 <__cxa_begin_catch@plt>
    596f:	48 8b 45 d8          	mov    -0x28(%rbp),%rax
    5973:	48 8d 50 20          	lea    0x20(%rax),%rdx
    5977:	48 8b 45 c8          	mov    -0x38(%rbp),%rax
    597b:	48 8b 00             	mov    (%rax),%rax
    597e:	48 89 c6             	mov    %rax,%rsi
    5981:	48 89 d7             	mov    %rdx,%rdi
    5984:	e8 83 dd ff ff       	callq  370c <_ZNSt8__detail20_Prime_rehash_policy8_M_resetEm>
    5989:	e8 a2 cb ff ff       	callq  2530 <__cxa_rethrow@plt>
    598e:	f3 0f 1e fa          	endbr64 
    5992:	48 89 c3             	mov    %rax,%rbx
    5995:	e8 e6 cb ff ff       	callq  2580 <__cxa_end_catch@plt>
    599a:	48 89 d8             	mov    %rbx,%rax
    599d:	48 89 c7             	mov    %rax,%rdi
    59a0:	e8 fb cb ff ff       	callq  25a0 <_Unwind_Resume@plt>
    59a5:	48 8b 45 e8          	mov    -0x18(%rbp),%rax
    59a9:	64 48 33 04 25 28 00 	xor    %fs:0x28,%rax
    59b0:	00 00 
    59b2:	74 05                	je     59b9 <_ZNSt10_HashtableImSt4pairIKmSt10shared_ptrIN15coroutine_mimic9CoroutineEEESaIS6_ENSt8__detail10_Select1stESt8equal_toImESt4hashImENS8_18_Mod_range_hashingENS8_20_Default_ranged_hashENS8_20_Prime_rehash_policyENS8_17_Hashtable_traitsILb0ELb0ELb1EEEE9_M_rehashEmRS1_+0x93>
    59b4:	e8 37 cb ff ff       	callq  24f0 <__stack_chk_fail@plt>
    59b9:	48 83 c4 38          	add    $0x38,%rsp
    59bd:	5b                   	pop    %rbx
    59be:	5d                   	pop    %rbp
    59bf:	c3                   	retq   

00000000000059c0 <_ZNSt8__detail15_Hash_code_baseImSt4pairIKmSt10shared_ptrIN15coroutine_mimic9CoroutineEEENS_10_Select1stESt4hashImENS_18_Mod_range_hashingENS_20_Default_ranged_hashELb0EE10_M_extractEv>:
    59c0:	f3 0f 1e fa          	endbr64 
    59c4:	55                   	push   %rbp
    59c5:	48 89 e5             	mov    %rsp,%rbp
    59c8:	48 83 ec 10          	sub    $0x10,%rsp
    59cc:	48 89 7d f8          	mov    %rdi,-0x8(%rbp)
    59d0:	48 8b 45 f8          	mov    -0x8(%rbp),%rax
    59d4:	48 89 c7             	mov    %rax,%rdi
    59d7:	e8 dd 0a 00 00       	callq  64b9 <_ZNSt8__detail21_Hashtable_ebo_helperILi0ENS_10_Select1stELb1EE6_S_getERS2_>
    59dc:	c9                   	leaveq 
    59dd:	c3                   	retq   

00000000000059de <_ZNKSt8__detail10_Select1stclIRSt4pairIKmSt10shared_ptrIN15coroutine_mimic9CoroutineEEEEEDTcl3getILi0EEcl7forwardIT_Efp_EEEOSA_>:
    59de:	f3 0f 1e fa          	endbr64 
    59e2:	55                   	push   %rbp
    59e3:	48 89 e5             	mov    %rsp,%rbp
    59e6:	48 83 ec 10          	sub    $0x10,%rsp
    59ea:	48 89 7d f8          	mov    %rdi,-0x8(%rbp)
    59ee:	48 89 75 f0          	mov    %rsi,-0x10(%rbp)
    59f2:	48 8b 45 f0          	mov    -0x10(%rbp),%rax
    59f6:	48 89 c7             	mov    %rax,%rdi
    59f9:	e8 cd 0a 00 00       	callq  64cb <_ZSt7forwardIRSt4pairIKmSt10shared_ptrIN15coroutine_mimic9CoroutineEEEEOT_RNSt16remove_referenceIS8_E4typeE>
    59fe:	48 89 c7             	mov    %rax,%rdi
    5a01:	e8 d7 0a 00 00       	callq  64dd <_ZSt3getILm0EKmSt10shared_ptrIN15coroutine_mimic9CoroutineEEERNSt13tuple_elementIXT_ESt4pairIT0_T1_EE4typeERS9_>
    5a06:	c9                   	leaveq 
    5a07:	c3                   	retq   

0000000000005a08 <_ZNKSt8__detail15_Hash_code_baseImSt4pairIKmSt10shared_ptrIN15coroutine_mimic9CoroutineEEENS_10_Select1stESt4hashImENS_18_Mod_range_hashingENS_20_Default_ranged_hashELb0EE13_M_store_codeEPNS_10_Hash_nodeIS7_Lb0EEEm>:
    5a08:	f3 0f 1e fa          	endbr64 
    5a0c:	55                   	push   %rbp
    5a0d:	48 89 e5             	mov    %rsp,%rbp
    5a10:	48 89 7d f8          	mov    %rdi,-0x8(%rbp)
    5a14:	48 89 75 f0          	mov    %rsi,-0x10(%rbp)
    5a18:	48 89 55 e8          	mov    %rdx,-0x18(%rbp)
    5a1c:	90                   	nop
    5a1d:	5d                   	pop    %rbp
    5a1e:	c3                   	retq   
    5a1f:	90                   	nop

0000000000005a20 <_ZNSt10_HashtableImSt4pairIKmSt10shared_ptrIN15coroutine_mimic9CoroutineEEESaIS6_ENSt8__detail10_Select1stESt8equal_toImESt4hashImENS8_18_Mod_range_hashingENS8_20_Default_ranged_hashENS8_20_Prime_rehash_policyENS8_17_Hashtable_traitsILb0ELb0ELb1EEEE22_M_insert_bucket_beginEmPNS8_10_Hash_nodeIS6_Lb0EEE>:
    5a20:	f3 0f 1e fa          	endbr64 
    5a24:	55                   	push   %rbp
    5a25:	48 89 e5             	mov    %rsp,%rbp
    5a28:	41 54                	push   %r12
    5a2a:	53                   	push   %rbx
    5a2b:	48 83 ec 20          	sub    $0x20,%rsp
    5a2f:	48 89 7d e8          	mov    %rdi,-0x18(%rbp)
    5a33:	48 89 75 e0          	mov    %rsi,-0x20(%rbp)
    5a37:	48 89 55 d8          	mov    %rdx,-0x28(%rbp)
    5a3b:	48 8b 45 e8          	mov    -0x18(%rbp),%rax
    5a3f:	48 8b 00             	mov    (%rax),%rax
    5a42:	48 8b 55 e0          	mov    -0x20(%rbp),%rdx
    5a46:	48 c1 e2 03          	shl    $0x3,%rdx
    5a4a:	48 01 d0             	add    %rdx,%rax
    5a4d:	48 8b 00             	mov    (%rax),%rax
    5a50:	48 85 c0             	test   %rax,%rax
    5a53:	74 3d                	je     5a92 <_ZNSt10_HashtableImSt4pairIKmSt10shared_ptrIN15coroutine_mimic9CoroutineEEESaIS6_ENSt8__detail10_Select1stESt8equal_toImESt4hashImENS8_18_Mod_range_hashingENS8_20_Default_ranged_hashENS8_20_Prime_rehash_policyENS8_17_Hashtable_traitsILb0ELb0ELb1EEEE22_M_insert_bucket_beginEmPNS8_10_Hash_nodeIS6_Lb0EEE+0x72>
    5a55:	48 8b 45 e8          	mov    -0x18(%rbp),%rax
    5a59:	48 8b 00             	mov    (%rax),%rax
    5a5c:	48 8b 55 e0          	mov    -0x20(%rbp),%rdx
    5a60:	48 c1 e2 03          	shl    $0x3,%rdx
    5a64:	48 01 d0             	add    %rdx,%rax
    5a67:	48 8b 00             	mov    (%rax),%rax
    5a6a:	48 8b 10             	mov    (%rax),%rdx
    5a6d:	48 8b 45 d8          	mov    -0x28(%rbp),%rax
    5a71:	48 89 10             	mov    %rdx,(%rax)
    5a74:	48 8b 45 e8          	mov    -0x18(%rbp),%rax
    5a78:	48 8b 00             	mov    (%rax),%rax
    5a7b:	48 8b 55 e0          	mov    -0x20(%rbp),%rdx
    5a7f:	48 c1 e2 03          	shl    $0x3,%rdx
    5a83:	48 01 d0             	add    %rdx,%rax
    5a86:	48 8b 00             	mov    (%rax),%rax
    5a89:	48 8b 55 d8          	mov    -0x28(%rbp),%rdx
    5a8d:	48 89 10             	mov    %rdx,(%rax)
    5a90:	eb 77                	jmp    5b09 <_ZNSt10_HashtableImSt4pairIKmSt10shared_ptrIN15coroutine_mimic9CoroutineEEESaIS6_ENSt8__detail10_Select1stESt8equal_toImESt4hashImENS8_18_Mod_range_hashingENS8_20_Default_ranged_hashENS8_20_Prime_rehash_policyENS8_17_Hashtable_traitsILb0ELb0ELb1EEEE22_M_insert_bucket_beginEmPNS8_10_Hash_nodeIS6_Lb0EEE+0xe9>
    5a92:	48 8b 45 e8          	mov    -0x18(%rbp),%rax
    5a96:	48 8b 50 10          	mov    0x10(%rax),%rdx
    5a9a:	48 8b 45 d8          	mov    -0x28(%rbp),%rax
    5a9e:	48 89 10             	mov    %rdx,(%rax)
    5aa1:	48 8b 45 e8          	mov    -0x18(%rbp),%rax
    5aa5:	48 8b 55 d8          	mov    -0x28(%rbp),%rdx
    5aa9:	48 89 50 10          	mov    %rdx,0x10(%rax)
    5aad:	48 8b 45 d8          	mov    -0x28(%rbp),%rax
    5ab1:	48 8b 00             	mov    (%rax),%rax
    5ab4:	48 85 c0             	test   %rax,%rax
    5ab7:	74 33                	je     5aec <_ZNSt10_HashtableImSt4pairIKmSt10shared_ptrIN15coroutine_mimic9CoroutineEEESaIS6_ENSt8__detail10_Select1stESt8equal_toImESt4hashImENS8_18_Mod_range_hashingENS8_20_Default_ranged_hashENS8_20_Prime_rehash_policyENS8_17_Hashtable_traitsILb0ELb0ELb1EEEE22_M_insert_bucket_beginEmPNS8_10_Hash_nodeIS6_Lb0EEE+0xcc>
    5ab9:	48 8b 5d d8          	mov    -0x28(%rbp),%rbx
    5abd:	48 8b 45 e8          	mov    -0x18(%rbp),%rax
    5ac1:	4c 8b 20             	mov    (%rax),%r12
    5ac4:	48 8b 45 d8          	mov    -0x28(%rbp),%rax
    5ac8:	48 89 c7             	mov    %rax,%rdi
    5acb:	e8 88 f9 ff ff       	callq  5458 <_ZNKSt8__detail10_Hash_nodeISt4pairIKmSt10shared_ptrIN15coroutine_mimic9CoroutineEEELb0EE7_M_nextEv>
    5ad0:	48 89 c2             	mov    %rax,%rdx
    5ad3:	48 8b 45 e8          	mov    -0x18(%rbp),%rax
    5ad7:	48 89 d6             	mov    %rdx,%rsi
    5ada:	48 89 c7             	mov    %rax,%rdi
    5add:	e8 d4 f6 ff ff       	callq  51b6 <_ZNKSt10_HashtableImSt4pairIKmSt10shared_ptrIN15coroutine_mimic9CoroutineEEESaIS6_ENSt8__detail10_Select1stESt8equal_toImESt4hashImENS8_18_Mod_range_hashingENS8_20_Default_ranged_hashENS8_20_Prime_rehash_policyENS8_17_Hashtable_traitsILb0ELb0ELb1EEEE15_M_bucket_indexEPNS8_10_Hash_nodeIS6_Lb0EEE>
    5ae2:	48 c1 e0 03          	shl    $0x3,%rax
    5ae6:	4c 01 e0             	add    %r12,%rax
    5ae9:	48 89 18             	mov    %rbx,(%rax)
    5aec:	48 8b 45 e8          	mov    -0x18(%rbp),%rax
    5af0:	48 8b 00             	mov    (%rax),%rax
    5af3:	48 8b 55 e0          	mov    -0x20(%rbp),%rdx
    5af7:	48 c1 e2 03          	shl    $0x3,%rdx
    5afb:	48 01 d0             	add    %rdx,%rax
    5afe:	48 8b 55 e8          	mov    -0x18(%rbp),%rdx
    5b02:	48 83 c2 10          	add    $0x10,%rdx
    5b06:	48 89 10             	mov    %rdx,(%rax)
    5b09:	90                   	nop
    5b0a:	48 83 c4 20          	add    $0x20,%rsp
    5b0e:	5b                   	pop    %rbx
    5b0f:	41 5c                	pop    %r12
    5b11:	5d                   	pop    %rbp
    5b12:	c3                   	retq   
    5b13:	90                   	nop

0000000000005b14 <_ZN9__gnu_cxx16__aligned_bufferISt4pairIKmSt10shared_ptrIN15coroutine_mimic9CoroutineEEEE7_M_addrEv>:
    5b14:	f3 0f 1e fa          	endbr64 
    5b18:	55                   	push   %rbp
    5b19:	48 89 e5             	mov    %rsp,%rbp
    5b1c:	48 89 7d f8          	mov    %rdi,-0x8(%rbp)
    5b20:	48 8b 45 f8          	mov    -0x8(%rbp),%rax
    5b24:	5d                   	pop    %rbp
    5b25:	c3                   	retq   

0000000000005b26 <_ZNKSt8__detail15_Hash_code_baseImSt4pairIKmSt10shared_ptrIN15coroutine_mimic9CoroutineEEENS_10_Select1stESt4hashImENS_18_Mod_range_hashingENS_20_Default_ranged_hashELb0EE15_M_bucket_indexEPKNS_10_Hash_nodeIS7_Lb0EEEm>:
    5b26:	f3 0f 1e fa          	endbr64 
    5b2a:	55                   	push   %rbp
    5b2b:	48 89 e5             	mov    %rsp,%rbp
    5b2e:	41 55                	push   %r13
    5b30:	41 54                	push   %r12
    5b32:	53                   	push   %rbx
    5b33:	48 83 ec 28          	sub    $0x28,%rsp
    5b37:	48 89 7d d8          	mov    %rdi,-0x28(%rbp)
    5b3b:	48 89 75 d0          	mov    %rsi,-0x30(%rbp)
    5b3f:	48 89 55 c8          	mov    %rdx,-0x38(%rbp)
    5b43:	48 8b 45 d8          	mov    -0x28(%rbp),%rax
    5b47:	48 89 c7             	mov    %rax,%rdi
    5b4a:	e8 df 05 00 00       	callq  612e <_ZNKSt8__detail15_Hash_code_baseImSt4pairIKmSt10shared_ptrIN15coroutine_mimic9CoroutineEEENS_10_Select1stESt4hashImENS_18_Mod_range_hashingENS_20_Default_ranged_hashELb0EE5_M_h2Ev>
    5b4f:	48 89 c3             	mov    %rax,%rbx
    5b52:	48 8b 45 d8          	mov    -0x28(%rbp),%rax
    5b56:	48 89 c7             	mov    %rax,%rdi
    5b59:	e8 34 fb ff ff       	callq  5692 <_ZNKSt8__detail15_Hash_code_baseImSt4pairIKmSt10shared_ptrIN15coroutine_mimic9CoroutineEEENS_10_Select1stESt4hashImENS_18_Mod_range_hashingENS_20_Default_ranged_hashELb0EE5_M_h1Ev>
    5b5e:	49 89 c4             	mov    %rax,%r12
    5b61:	48 8b 45 d8          	mov    -0x28(%rbp),%rax
    5b65:	48 89 c7             	mov    %rax,%rdi
    5b68:	e8 8f 09 00 00       	callq  64fc <_ZNKSt8__detail15_Hash_code_baseImSt4pairIKmSt10shared_ptrIN15coroutine_mimic9CoroutineEEENS_10_Select1stESt4hashImENS_18_Mod_range_hashingENS_20_Default_ranged_hashELb0EE10_M_extractEv>
    5b6d:	49 89 c5             	mov    %rax,%r13
    5b70:	48 8b 45 d0          	mov    -0x30(%rbp),%rax
    5b74:	48 89 c7             	mov    %rax,%rdi
    5b77:	e8 9e 09 00 00       	callq  651a <_ZNKSt8__detail21_Hash_node_value_baseISt4pairIKmSt10shared_ptrIN15coroutine_mimic9CoroutineEEEE4_M_vEv>
    5b7c:	48 89 c6             	mov    %rax,%rsi
    5b7f:	4c 89 ef             	mov    %r13,%rdi
    5b82:	e8 b1 09 00 00       	callq  6538 <_ZNKSt8__detail10_Select1stclIRKSt4pairIKmSt10shared_ptrIN15coroutine_mimic9CoroutineEEEEEDTcl3getILi0EEcl7forwardIT_Efp_EEEOSB_>
    5b87:	48 8b 00             	mov    (%rax),%rax
    5b8a:	48 89 c6             	mov    %rax,%rsi
    5b8d:	4c 89 e7             	mov    %r12,%rdi
    5b90:	e8 65 da ff ff       	callq  35fa <_ZNKSt4hashImEclEm>
    5b95:	48 89 c1             	mov    %rax,%rcx
    5b98:	48 8b 45 c8          	mov    -0x38(%rbp),%rax
    5b9c:	48 89 c2             	mov    %rax,%rdx
    5b9f:	48 89 ce             	mov    %rcx,%rsi
    5ba2:	48 89 df             	mov    %rbx,%rdi
    5ba5:	e8 f8 da ff ff       	callq  36a2 <_ZNKSt8__detail18_Mod_range_hashingclEmm>
    5baa:	48 83 c4 28          	add    $0x28,%rsp
    5bae:	5b                   	pop    %rbx
    5baf:	41 5c                	pop    %r12
    5bb1:	41 5d                	pop    %r13
    5bb3:	5d                   	pop    %rbp
    5bb4:	c3                   	retq   
    5bb5:	90                   	nop

0000000000005bb6 <_ZNSt10_HashtableImSt4pairIKmSt10shared_ptrIN15coroutine_mimic9CoroutineEEESaIS6_ENSt8__detail10_Select1stESt8equal_toImESt4hashImENS8_18_Mod_range_hashingENS8_20_Default_ranged_hashENS8_20_Prime_rehash_policyENS8_17_Hashtable_traitsILb0ELb0ELb1EEEE22_M_remove_bucket_beginEmPNS8_10_Hash_nodeIS6_Lb0EEEm>:
    5bb6:	f3 0f 1e fa          	endbr64 
    5bba:	55                   	push   %rbp
    5bbb:	48 89 e5             	mov    %rsp,%rbp
    5bbe:	48 89 7d f8          	mov    %rdi,-0x8(%rbp)
    5bc2:	48 89 75 f0          	mov    %rsi,-0x10(%rbp)
    5bc6:	48 89 55 e8          	mov    %rdx,-0x18(%rbp)
    5bca:	48 89 4d e0          	mov    %rcx,-0x20(%rbp)
    5bce:	48 83 7d e8 00       	cmpq   $0x0,-0x18(%rbp)
    5bd3:	74 0a                	je     5bdf <_ZNSt10_HashtableImSt4pairIKmSt10shared_ptrIN15coroutine_mimic9CoroutineEEESaIS6_ENSt8__detail10_Select1stESt8equal_toImESt4hashImENS8_18_Mod_range_hashingENS8_20_Default_ranged_hashENS8_20_Prime_rehash_policyENS8_17_Hashtable_traitsILb0ELb0ELb1EEEE22_M_remove_bucket_beginEmPNS8_10_Hash_nodeIS6_Lb0EEEm+0x29>
    5bd5:	48 8b 45 e0          	mov    -0x20(%rbp),%rax
    5bd9:	48 3b 45 f0          	cmp    -0x10(%rbp),%rax
    5bdd:	74 79                	je     5c58 <_ZNSt10_HashtableImSt4pairIKmSt10shared_ptrIN15coroutine_mimic9CoroutineEEESaIS6_ENSt8__detail10_Select1stESt8equal_toImESt4hashImENS8_18_Mod_range_hashingENS8_20_Default_ranged_hashENS8_20_Prime_rehash_policyENS8_17_Hashtable_traitsILb0ELb0ELb1EEEE22_M_remove_bucket_beginEmPNS8_10_Hash_nodeIS6_Lb0EEEm+0xa2>
    5bdf:	48 83 7d e8 00       	cmpq   $0x0,-0x18(%rbp)
    5be4:	74 2b                	je     5c11 <_ZNSt10_HashtableImSt4pairIKmSt10shared_ptrIN15coroutine_mimic9CoroutineEEESaIS6_ENSt8__detail10_Select1stESt8equal_toImESt4hashImENS8_18_Mod_range_hashingENS8_20_Default_ranged_hashENS8_20_Prime_rehash_policyENS8_17_Hashtable_traitsILb0ELb0ELb1EEEE22_M_remove_bucket_beginEmPNS8_10_Hash_nodeIS6_Lb0EEEm+0x5b>
    5be6:	48 8b 45 f8          	mov    -0x8(%rbp),%rax
    5bea:	48 8b 00             	mov    (%rax),%rax
    5bed:	48 8b 55 f0          	mov    -0x10(%rbp),%rdx
    5bf1:	48 c1 e2 03          	shl    $0x3,%rdx
    5bf5:	48 8d 0c 10          	lea    (%rax,%rdx,1),%rcx
    5bf9:	48 8b 45 f8          	mov    -0x8(%rbp),%rax
    5bfd:	48 8b 00             	mov    (%rax),%rax
    5c00:	48 8b 55 e0          	mov    -0x20(%rbp),%rdx
    5c04:	48 c1 e2 03          	shl    $0x3,%rdx
    5c08:	48 01 c2             	add    %rax,%rdx
    5c0b:	48 8b 01             	mov    (%rcx),%rax
    5c0e:	48 89 02             	mov    %rax,(%rdx)
    5c11:	48 8b 45 f8          	mov    -0x8(%rbp),%rax
    5c15:	48 8d 48 10          	lea    0x10(%rax),%rcx
    5c19:	48 8b 45 f8          	mov    -0x8(%rbp),%rax
    5c1d:	48 8b 00             	mov    (%rax),%rax
    5c20:	48 8b 55 f0          	mov    -0x10(%rbp),%rdx
    5c24:	48 c1 e2 03          	shl    $0x3,%rdx
    5c28:	48 01 d0             	add    %rdx,%rax
    5c2b:	48 8b 00             	mov    (%rax),%rax
    5c2e:	48 39 c1             	cmp    %rax,%rcx
    5c31:	75 0c                	jne    5c3f <_ZNSt10_HashtableImSt4pairIKmSt10shared_ptrIN15coroutine_mimic9CoroutineEEESaIS6_ENSt8__detail10_Select1stESt8equal_toImESt4hashImENS8_18_Mod_range_hashingENS8_20_Default_ranged_hashENS8_20_Prime_rehash_policyENS8_17_Hashtable_traitsILb0ELb0ELb1EEEE22_M_remove_bucket_beginEmPNS8_10_Hash_nodeIS6_Lb0EEEm+0x89>
    5c33:	48 8b 45 f8          	mov    -0x8(%rbp),%rax
    5c37:	48 8b 55 e8          	mov    -0x18(%rbp),%rdx
    5c3b:	48 89 50 10          	mov    %rdx,0x10(%rax)
    5c3f:	48 8b 45 f8          	mov    -0x8(%rbp),%rax
    5c43:	48 8b 00             	mov    (%rax),%rax
    5c46:	48 8b 55 f0          	mov    -0x10(%rbp),%rdx
    5c4a:	48 c1 e2 03          	shl    $0x3,%rdx
    5c4e:	48 01 d0             	add    %rdx,%rax
    5c51:	48 c7 00 00 00 00 00 	movq   $0x0,(%rax)
    5c58:	90                   	nop
    5c59:	5d                   	pop    %rbp
    5c5a:	c3                   	retq   

0000000000005c5b <_ZSt8distanceIPcENSt15iterator_traitsIT_E15difference_typeES2_S2_>:
    5c5b:	f3 0f 1e fa          	endbr64 
    5c5f:	55                   	push   %rbp
    5c60:	48 89 e5             	mov    %rsp,%rbp
    5c63:	48 83 ec 10          	sub    $0x10,%rsp
    5c67:	48 89 7d f8          	mov    %rdi,-0x8(%rbp)
    5c6b:	48 89 75 f0          	mov    %rsi,-0x10(%rbp)
    5c6f:	48 8d 45 f8          	lea    -0x8(%rbp),%rax
    5c73:	48 89 c7             	mov    %rax,%rdi
    5c76:	e8 fd 08 00 00       	callq  6578 <_ZSt19__iterator_categoryIPcENSt15iterator_traitsIT_E17iterator_categoryERKS2_>
    5c7b:	48 8b 45 f8          	mov    -0x8(%rbp),%rax
    5c7f:	48 8b 55 f0          	mov    -0x10(%rbp),%rdx
    5c83:	48 89 d6             	mov    %rdx,%rsi
    5c86:	48 89 c7             	mov    %rax,%rdi
    5c89:	e8 f8 08 00 00       	callq  6586 <_ZSt10__distanceIPcENSt15iterator_traitsIT_E15difference_typeES2_S2_St26random_access_iterator_tag>
    5c8e:	c9                   	leaveq 
    5c8f:	c3                   	retq   

0000000000005c90 <_ZNSt7__cxx1112basic_stringIcSt11char_traitsIcESaIcEE12_M_constructIPcEEvT_S7_St20forward_iterator_tag>:
    5c90:	f3 0f 1e fa          	endbr64 
    5c94:	55                   	push   %rbp
    5c95:	48 89 e5             	mov    %rsp,%rbp
    5c98:	53                   	push   %rbx
    5c99:	48 83 ec 38          	sub    $0x38,%rsp
    5c9d:	48 89 7d d8          	mov    %rdi,-0x28(%rbp)
    5ca1:	48 89 75 d0          	mov    %rsi,-0x30(%rbp)
    5ca5:	48 89 55 c8          	mov    %rdx,-0x38(%rbp)
    5ca9:	64 48 8b 04 25 28 00 	mov    %fs:0x28,%rax
    5cb0:	00 00 
    5cb2:	48 89 45 e8          	mov    %rax,-0x18(%rbp)
    5cb6:	31 c0                	xor    %eax,%eax
    5cb8:	48 8b 45 d0          	mov    -0x30(%rbp),%rax
    5cbc:	48 89 c7             	mov    %rax,%rdi
    5cbf:	e8 9e 08 00 00       	callq  6562 <_ZN9__gnu_cxx17__is_null_pointerIcEEbPT_>
    5cc4:	84 c0                	test   %al,%al
    5cc6:	74 11                	je     5cd9 <_ZNSt7__cxx1112basic_stringIcSt11char_traitsIcESaIcEE12_M_constructIPcEEvT_S7_St20forward_iterator_tag+0x49>
    5cc8:	48 8b 45 d0          	mov    -0x30(%rbp),%rax
    5ccc:	48 3b 45 c8          	cmp    -0x38(%rbp),%rax
    5cd0:	74 07                	je     5cd9 <_ZNSt7__cxx1112basic_stringIcSt11char_traitsIcESaIcEE12_M_constructIPcEEvT_S7_St20forward_iterator_tag+0x49>
    5cd2:	b8 01 00 00 00       	mov    $0x1,%eax
    5cd7:	eb 05                	jmp    5cde <_ZNSt7__cxx1112basic_stringIcSt11char_traitsIcESaIcEE12_M_constructIPcEEvT_S7_St20forward_iterator_tag+0x4e>
    5cd9:	b8 00 00 00 00       	mov    $0x0,%eax
    5cde:	84 c0                	test   %al,%al
    5ce0:	74 0c                	je     5cee <_ZNSt7__cxx1112basic_stringIcSt11char_traitsIcESaIcEE12_M_constructIPcEEvT_S7_St20forward_iterator_tag+0x5e>
    5ce2:	48 8d 3d 6f 44 00 00 	lea    0x446f(%rip),%rdi        # a158 <_ZN6__pstl9execution2v1L5unseqE+0x146>
    5ce9:	e8 32 c7 ff ff       	callq  2420 <_ZSt19__throw_logic_errorPKc@plt>
    5cee:	48 8b 55 c8          	mov    -0x38(%rbp),%rdx
    5cf2:	48 8b 45 d0          	mov    -0x30(%rbp),%rax
    5cf6:	48 89 d6             	mov    %rdx,%rsi
    5cf9:	48 89 c7             	mov    %rax,%rdi
    5cfc:	e8 5a ff ff ff       	callq  5c5b <_ZSt8distanceIPcENSt15iterator_traitsIT_E15difference_typeES2_S2_>
    5d01:	48 89 45 e0          	mov    %rax,-0x20(%rbp)
    5d05:	48 8b 45 e0          	mov    -0x20(%rbp),%rax
    5d09:	48 83 f8 0f          	cmp    $0xf,%rax
    5d0d:	76 3d                	jbe    5d4c <_ZNSt7__cxx1112basic_stringIcSt11char_traitsIcESaIcEE12_M_constructIPcEEvT_S7_St20forward_iterator_tag+0xbc>
    5d0f:	48 8d 4d e0          	lea    -0x20(%rbp),%rcx
    5d13:	48 8b 45 d8          	mov    -0x28(%rbp),%rax
    5d17:	ba 00 00 00 00       	mov    $0x0,%edx
    5d1c:	48 89 ce             	mov    %rcx,%rsi
    5d1f:	48 89 c7             	mov    %rax,%rdi
    5d22:	e8 99 c8 ff ff       	callq  25c0 <_ZNSt7__cxx1112basic_stringIcSt11char_traitsIcESaIcEE9_M_createERmm@plt>
    5d27:	48 89 c2             	mov    %rax,%rdx
    5d2a:	48 8b 45 d8          	mov    -0x28(%rbp),%rax
    5d2e:	48 89 d6             	mov    %rdx,%rsi
    5d31:	48 89 c7             	mov    %rax,%rdi
    5d34:	e8 17 c7 ff ff       	callq  2450 <_ZNSt7__cxx1112basic_stringIcSt11char_traitsIcESaIcEE7_M_dataEPc@plt>
    5d39:	48 8b 55 e0          	mov    -0x20(%rbp),%rdx
    5d3d:	48 8b 45 d8          	mov    -0x28(%rbp),%rax
    5d41:	48 89 d6             	mov    %rdx,%rsi
    5d44:	48 89 c7             	mov    %rax,%rdi
    5d47:	e8 84 c8 ff ff       	callq  25d0 <_ZNSt7__cxx1112basic_stringIcSt11char_traitsIcESaIcEE11_M_capacityEm@plt>
    5d4c:	48 8b 45 d8          	mov    -0x28(%rbp),%rax
    5d50:	48 89 c7             	mov    %rax,%rdi
    5d53:	e8 88 c7 ff ff       	callq  24e0 <_ZNKSt7__cxx1112basic_stringIcSt11char_traitsIcESaIcEE7_M_dataEv@plt>
    5d58:	48 89 c1             	mov    %rax,%rcx
    5d5b:	48 8b 55 c8          	mov    -0x38(%rbp),%rdx
    5d5f:	48 8b 45 d0          	mov    -0x30(%rbp),%rax
    5d63:	48 89 c6             	mov    %rax,%rsi
    5d66:	48 89 cf             	mov    %rcx,%rdi
    5d69:	e8 e2 c5 ff ff       	callq  2350 <_ZNSt7__cxx1112basic_stringIcSt11char_traitsIcESaIcEE13_S_copy_charsEPcS5_S5_@plt>
    5d6e:	48 8b 55 e0          	mov    -0x20(%rbp),%rdx
    5d72:	48 8b 45 d8          	mov    -0x28(%rbp),%rax
    5d76:	48 89 d6             	mov    %rdx,%rsi
    5d79:	48 89 c7             	mov    %rax,%rdi
    5d7c:	e8 8f c6 ff ff       	callq  2410 <_ZNSt7__cxx1112basic_stringIcSt11char_traitsIcESaIcEE13_M_set_lengthEm@plt>
    5d81:	90                   	nop
    5d82:	48 8b 45 e8          	mov    -0x18(%rbp),%rax
    5d86:	64 48 33 04 25 28 00 	xor    %fs:0x28,%rax
    5d8d:	00 00 
    5d8f:	74 3b                	je     5dcc <_ZNSt7__cxx1112basic_stringIcSt11char_traitsIcESaIcEE12_M_constructIPcEEvT_S7_St20forward_iterator_tag+0x13c>
    5d91:	eb 34                	jmp    5dc7 <_ZNSt7__cxx1112basic_stringIcSt11char_traitsIcESaIcEE12_M_constructIPcEEvT_S7_St20forward_iterator_tag+0x137>
    5d93:	f3 0f 1e fa          	endbr64 
    5d97:	48 89 c7             	mov    %rax,%rdi
    5d9a:	e8 f1 c5 ff ff       	callq  2390 <__cxa_begin_catch@plt>
    5d9f:	48 8b 45 d8          	mov    -0x28(%rbp),%rax
    5da3:	48 89 c7             	mov    %rax,%rdi
    5da6:	e8 55 c7 ff ff       	callq  2500 <_ZNSt7__cxx1112basic_stringIcSt11char_traitsIcESaIcEE10_M_disposeEv@plt>
    5dab:	e8 80 c7 ff ff       	callq  2530 <__cxa_rethrow@plt>
    5db0:	f3 0f 1e fa          	endbr64 
    5db4:	48 89 c3             	mov    %rax,%rbx
    5db7:	e8 c4 c7 ff ff       	callq  2580 <__cxa_end_catch@plt>
    5dbc:	48 89 d8             	mov    %rbx,%rax
    5dbf:	48 89 c7             	mov    %rax,%rdi
    5dc2:	e8 d9 c7 ff ff       	callq  25a0 <_Unwind_Resume@plt>
    5dc7:	e8 24 c7 ff ff       	callq  24f0 <__stack_chk_fail@plt>
    5dcc:	48 83 c4 38          	add    $0x38,%rsp
    5dd0:	5b                   	pop    %rbx
    5dd1:	5d                   	pop    %rbp
    5dd2:	c3                   	retq   

0000000000005dd3 <_ZNSt11_Tuple_implILm0EJPhSt14default_deleteIhEEE7_M_headERS3_>:
    5dd3:	f3 0f 1e fa          	endbr64 
    5dd7:	55                   	push   %rbp
    5dd8:	48 89 e5             	mov    %rsp,%rbp
    5ddb:	48 83 ec 10          	sub    $0x10,%rsp
    5ddf:	48 89 7d f8          	mov    %rdi,-0x8(%rbp)
    5de3:	48 8b 45 f8          	mov    -0x8(%rbp),%rax
    5de7:	48 89 c7             	mov    %rax,%rdi
    5dea:	e8 b1 07 00 00       	callq  65a0 <_ZNSt10_Head_baseILm0EPhLb0EE7_M_headERS1_>
    5def:	c9                   	leaveq 
    5df0:	c3                   	retq   

0000000000005df1 <_ZSt12__get_helperILm1ESt14default_deleteIhEJEERT0_RSt11_Tuple_implIXT_EJS2_DpT1_EE>:
    5df1:	f3 0f 1e fa          	endbr64 
    5df5:	55                   	push   %rbp
    5df6:	48 89 e5             	mov    %rsp,%rbp
    5df9:	48 83 ec 10          	sub    $0x10,%rsp
    5dfd:	48 89 7d f8          	mov    %rdi,-0x8(%rbp)
    5e01:	48 8b 45 f8          	mov    -0x8(%rbp),%rax
    5e05:	48 89 c7             	mov    %rax,%rdi
    5e08:	e8 a5 07 00 00       	callq  65b2 <_ZNSt11_Tuple_implILm1EJSt14default_deleteIhEEE7_M_headERS2_>
    5e0d:	c9                   	leaveq 
    5e0e:	c3                   	retq   

0000000000005e0f <_ZNSt11_Tuple_implILm0EJPhSt14default_deleteIhEEE7_M_headERKS3_>:
    5e0f:	f3 0f 1e fa          	endbr64 
    5e13:	55                   	push   %rbp
    5e14:	48 89 e5             	mov    %rsp,%rbp
    5e17:	48 83 ec 10          	sub    $0x10,%rsp
    5e1b:	48 89 7d f8          	mov    %rdi,-0x8(%rbp)
    5e1f:	48 8b 45 f8          	mov    -0x8(%rbp),%rax
    5e23:	48 89 c7             	mov    %rax,%rdi
    5e26:	e8 a5 07 00 00       	callq  65d0 <_ZNSt10_Head_baseILm0EPhLb0EE7_M_headERKS1_>
    5e2b:	c9                   	leaveq 
    5e2c:	c3                   	retq   

0000000000005e2d <_ZNSt16allocator_traitsISaINSt8__detail10_Hash_nodeISt4pairIKmSt10shared_ptrIN15coroutine_mimic9CoroutineEEELb0EEEEE7destroyIS8_EEvRSA_PT_>:
    5e2d:	f3 0f 1e fa          	endbr64 
    5e31:	55                   	push   %rbp
    5e32:	48 89 e5             	mov    %rsp,%rbp
    5e35:	48 83 ec 10          	sub    $0x10,%rsp
    5e39:	48 89 7d f8          	mov    %rdi,-0x8(%rbp)
    5e3d:	48 89 75 f0          	mov    %rsi,-0x10(%rbp)
    5e41:	48 8b 55 f0          	mov    -0x10(%rbp),%rdx
    5e45:	48 8b 45 f8          	mov    -0x8(%rbp),%rax
    5e49:	48 89 d6             	mov    %rdx,%rsi
    5e4c:	48 89 c7             	mov    %rax,%rdi
    5e4f:	e8 b2 07 00 00       	callq  6606 <_ZN9__gnu_cxx13new_allocatorINSt8__detail10_Hash_nodeISt4pairIKmSt10shared_ptrIN15coroutine_mimic9CoroutineEEELb0EEEE7destroyIS9_EEvPT_>
    5e54:	90                   	nop
    5e55:	c9                   	leaveq 
    5e56:	c3                   	retq   
    5e57:	90                   	nop

0000000000005e58 <_ZNSt8__detail16_Hashtable_allocISaINS_10_Hash_nodeISt4pairIKmSt10shared_ptrIN15coroutine_mimic9CoroutineEEELb0EEEEE22_M_deallocate_node_ptrEPS9_>:
    5e58:	f3 0f 1e fa          	endbr64 
    5e5c:	55                   	push   %rbp
    5e5d:	48 89 e5             	mov    %rsp,%rbp
    5e60:	48 83 ec 20          	sub    $0x20,%rsp
    5e64:	48 89 7d e8          	mov    %rdi,-0x18(%rbp)
    5e68:	48 89 75 e0          	mov    %rsi,-0x20(%rbp)
    5e6c:	48 8b 45 e0          	mov    -0x20(%rbp),%rax
    5e70:	48 89 c7             	mov    %rax,%rdi
    5e73:	e8 b1 07 00 00       	callq  6629 <_ZNSt14pointer_traitsIPNSt8__detail10_Hash_nodeISt4pairIKmSt10shared_ptrIN15coroutine_mimic9CoroutineEEELb0EEEE10pointer_toERS9_>
    5e78:	48 89 45 f8          	mov    %rax,-0x8(%rbp)
    5e7c:	48 8b 45 e8          	mov    -0x18(%rbp),%rax
    5e80:	48 89 c7             	mov    %rax,%rdi
    5e83:	e8 68 f9 ff ff       	callq  57f0 <_ZNSt8__detail16_Hashtable_allocISaINS_10_Hash_nodeISt4pairIKmSt10shared_ptrIN15coroutine_mimic9CoroutineEEELb0EEEEE17_M_node_allocatorEv>
    5e88:	48 89 c1             	mov    %rax,%rcx
    5e8b:	48 8b 45 f8          	mov    -0x8(%rbp),%rax
    5e8f:	ba 01 00 00 00       	mov    $0x1,%edx
    5e94:	48 89 c6             	mov    %rax,%rsi
    5e97:	48 89 cf             	mov    %rcx,%rdi
    5e9a:	e8 55 fa ff ff       	callq  58f4 <_ZNSt16allocator_traitsISaINSt8__detail10_Hash_nodeISt4pairIKmSt10shared_ptrIN15coroutine_mimic9CoroutineEEELb0EEEEE10deallocateERSA_PS9_m>
    5e9f:	90                   	nop
    5ea0:	c9                   	leaveq 
    5ea1:	c3                   	retq   

0000000000005ea2 <_ZNSt14pointer_traitsIPPNSt8__detail15_Hash_node_baseEE10pointer_toERS2_>:
    5ea2:	f3 0f 1e fa          	endbr64 
    5ea6:	55                   	push   %rbp
    5ea7:	48 89 e5             	mov    %rsp,%rbp
    5eaa:	48 83 ec 10          	sub    $0x10,%rsp
    5eae:	48 89 7d f8          	mov    %rdi,-0x8(%rbp)
    5eb2:	48 8b 45 f8          	mov    -0x8(%rbp),%rax
    5eb6:	48 89 c7             	mov    %rax,%rdi
    5eb9:	e8 89 07 00 00       	callq  6647 <_ZSt9addressofIPNSt8__detail15_Hash_node_baseEEPT_RS3_>
    5ebe:	c9                   	leaveq 
    5ebf:	c3                   	retq   

0000000000005ec0 <_ZNSaIPNSt8__detail15_Hash_node_baseEEC1INS_10_Hash_nodeISt4pairIKmSt10shared_ptrIN15coroutine_mimic9CoroutineEEELb0EEEEERKSaIT_E>:
    5ec0:	f3 0f 1e fa          	endbr64 
    5ec4:	55                   	push   %rbp
    5ec5:	48 89 e5             	mov    %rsp,%rbp
    5ec8:	48 83 ec 10          	sub    $0x10,%rsp
    5ecc:	48 89 7d f8          	mov    %rdi,-0x8(%rbp)
    5ed0:	48 89 75 f0          	mov    %rsi,-0x10(%rbp)
    5ed4:	48 8b 45 f8          	mov    -0x8(%rbp),%rax
    5ed8:	48 89 c7             	mov    %rax,%rdi
    5edb:	e8 86 07 00 00       	callq  6666 <_ZN9__gnu_cxx13new_allocatorIPNSt8__detail15_Hash_node_baseEEC1Ev>
    5ee0:	90                   	nop
    5ee1:	c9                   	leaveq 
    5ee2:	c3                   	retq   
    5ee3:	90                   	nop

0000000000005ee4 <_ZNSaIPNSt8__detail15_Hash_node_baseEED1Ev>:
    5ee4:	f3 0f 1e fa          	endbr64 
    5ee8:	55                   	push   %rbp
    5ee9:	48 89 e5             	mov    %rsp,%rbp
    5eec:	48 83 ec 10          	sub    $0x10,%rsp
    5ef0:	48 89 7d f8          	mov    %rdi,-0x8(%rbp)
    5ef4:	48 8b 45 f8          	mov    -0x8(%rbp),%rax
    5ef8:	48 89 c7             	mov    %rax,%rdi
    5efb:	e8 76 07 00 00       	callq  6676 <_ZN9__gnu_cxx13new_allocatorIPNSt8__detail15_Hash_node_baseEED1Ev>
    5f00:	90                   	nop
    5f01:	c9                   	leaveq 
    5f02:	c3                   	retq   

0000000000005f03 <_ZNSt16allocator_traitsISaIPNSt8__detail15_Hash_node_baseEEE10deallocateERS3_PS2_m>:
    5f03:	f3 0f 1e fa          	endbr64 
    5f07:	55                   	push   %rbp
    5f08:	48 89 e5             	mov    %rsp,%rbp
    5f0b:	48 83 ec 20          	sub    $0x20,%rsp
    5f0f:	48 89 7d f8          	mov    %rdi,-0x8(%rbp)
    5f13:	48 89 75 f0          	mov    %rsi,-0x10(%rbp)
    5f17:	48 89 55 e8          	mov    %rdx,-0x18(%rbp)
    5f1b:	48 8b 55 e8          	mov    -0x18(%rbp),%rdx
    5f1f:	48 8b 4d f0          	mov    -0x10(%rbp),%rcx
    5f23:	48 8b 45 f8          	mov    -0x8(%rbp),%rax
    5f27:	48 89 ce             	mov    %rcx,%rsi
    5f2a:	48 89 c7             	mov    %rax,%rdi
    5f2d:	e8 54 07 00 00       	callq  6686 <_ZN9__gnu_cxx13new_allocatorIPNSt8__detail15_Hash_node_baseEE10deallocateEPS3_m>
    5f32:	90                   	nop
    5f33:	c9                   	leaveq 
    5f34:	c3                   	retq   
    5f35:	90                   	nop

0000000000005f36 <_ZNSt14__shared_countILN9__gnu_cxx12_Lock_policyE2EEC1IN15coroutine_mimic9CoroutineESaIS5_EJPNS4_9SchedulerERSt8functionIFvS8_St3anyEERSA_EEERPT_St20_Sp_alloc_shared_tagIT0_EDpOT1_>:
    5f36:	f3 0f 1e fa          	endbr64 
    5f3a:	55                   	push   %rbp
    5f3b:	48 89 e5             	mov    %rsp,%rbp
    5f3e:	41 57                	push   %r15
    5f40:	41 56                	push   %r14
    5f42:	41 55                	push   %r13
    5f44:	41 54                	push   %r12
    5f46:	53                   	push   %rbx
    5f47:	48 81 ec 88 00 00 00 	sub    $0x88,%rsp
    5f4e:	48 89 7d 88          	mov    %rdi,-0x78(%rbp)
    5f52:	48 89 75 80          	mov    %rsi,-0x80(%rbp)
    5f56:	48 89 95 78 ff ff ff 	mov    %rdx,-0x88(%rbp)
    5f5d:	48 89 8d 70 ff ff ff 	mov    %rcx,-0x90(%rbp)
    5f64:	4c 89 85 68 ff ff ff 	mov    %r8,-0x98(%rbp)
    5f6b:	4c 89 8d 60 ff ff ff 	mov    %r9,-0xa0(%rbp)
    5f72:	64 48 8b 04 25 28 00 	mov    %fs:0x28,%rax
    5f79:	00 00 
    5f7b:	48 89 45 c8          	mov    %rax,-0x38(%rbp)
    5f7f:	31 c0                	xor    %eax,%eax
    5f81:	48 8b 95 78 ff ff ff 	mov    -0x88(%rbp),%rdx
    5f88:	48 8d 45 9e          	lea    -0x62(%rbp),%rax
    5f8c:	48 89 d6             	mov    %rdx,%rsi
    5f8f:	48 89 c7             	mov    %rax,%rdi
    5f92:	e8 15 07 00 00       	callq  66ac <_ZNSaISt23_Sp_counted_ptr_inplaceIN15coroutine_mimic9CoroutineESaIS1_ELN9__gnu_cxx12_Lock_policyE2EEEC1IS1_EERKSaIT_E>
    5f97:	48 8d 45 b0          	lea    -0x50(%rbp),%rax
    5f9b:	48 8d 55 9e          	lea    -0x62(%rbp),%rdx
    5f9f:	48 89 d6             	mov    %rdx,%rsi
    5fa2:	48 89 c7             	mov    %rax,%rdi
    5fa5:	e8 45 07 00 00       	callq  66ef <_ZSt18__allocate_guardedISaISt23_Sp_counted_ptr_inplaceIN15coroutine_mimic9CoroutineESaIS2_ELN9__gnu_cxx12_Lock_policyE2EEEESt15__allocated_ptrIT_ERS9_>
    5faa:	48 8d 45 b0          	lea    -0x50(%rbp),%rax
    5fae:	48 89 c7             	mov    %rax,%rdi
    5fb1:	e8 ba 07 00 00       	callq  6770 <_ZNSt15__allocated_ptrISaISt23_Sp_counted_ptr_inplaceIN15coroutine_mimic9CoroutineESaIS2_ELN9__gnu_cxx12_Lock_policyE2EEEE3getEv>
    5fb6:	48 89 45 a0          	mov    %rax,-0x60(%rbp)
    5fba:	48 8b 95 78 ff ff ff 	mov    -0x88(%rbp),%rdx
    5fc1:	48 8d 45 9f          	lea    -0x61(%rbp),%rax
    5fc5:	48 89 d6             	mov    %rdx,%rsi
    5fc8:	48 89 c7             	mov    %rax,%rdi
    5fcb:	e8 c2 07 00 00       	callq  6792 <_ZNSaIN15coroutine_mimic9CoroutineEEC1ERKS1_>
    5fd0:	4c 8d 6d 9f          	lea    -0x61(%rbp),%r13
    5fd4:	48 8b 85 70 ff ff ff 	mov    -0x90(%rbp),%rax
    5fdb:	48 89 c7             	mov    %rax,%rdi
    5fde:	e8 d6 e6 ff ff       	callq  46b9 <_ZSt7forwardIPN15coroutine_mimic9SchedulerEEOT_RNSt16remove_referenceIS3_E4typeE>
    5fe3:	49 89 c6             	mov    %rax,%r14
    5fe6:	48 8b 85 68 ff ff ff 	mov    -0x98(%rbp),%rax
    5fed:	48 89 c7             	mov    %rax,%rdi
    5ff0:	e8 d6 e6 ff ff       	callq  46cb <_ZSt7forwardIRSt8functionIFvPN15coroutine_mimic9SchedulerESt3anyEEEOT_RNSt16remove_referenceIS8_E4typeE>
    5ff5:	49 89 c7             	mov    %rax,%r15
    5ff8:	48 8b 85 60 ff ff ff 	mov    -0xa0(%rbp),%rax
    5fff:	48 89 c7             	mov    %rax,%rdi
    6002:	e8 d6 e6 ff ff       	callq  46dd <_ZSt7forwardIRSt3anyEOT_RNSt16remove_referenceIS2_E4typeE>
    6007:	48 89 85 58 ff ff ff 	mov    %rax,-0xa8(%rbp)
    600e:	4c 8b 65 a0          	mov    -0x60(%rbp),%r12
    6012:	4c 89 e6             	mov    %r12,%rsi
    6015:	bf 50 04 00 00       	mov    $0x450,%edi
    601a:	e8 ae d4 ff ff       	callq  34cd <_ZnwmPv>
    601f:	48 89 c3             	mov    %rax,%rbx
    6022:	4c 8b 85 58 ff ff ff 	mov    -0xa8(%rbp),%r8
    6029:	4c 89 f9             	mov    %r15,%rcx
    602c:	4c 89 f2             	mov    %r14,%rdx
    602f:	4c 89 ee             	mov    %r13,%rsi
    6032:	48 89 df             	mov    %rbx,%rdi
    6035:	e8 c2 07 00 00       	callq  67fc <_ZNSt23_Sp_counted_ptr_inplaceIN15coroutine_mimic9CoroutineESaIS1_ELN9__gnu_cxx12_Lock_policyE2EEC1IJPNS0_9SchedulerERSt8functionIFvS8_St3anyEERSA_EEES2_DpOT_>
    603a:	48 89 5d a8          	mov    %rbx,-0x58(%rbp)
    603e:	48 8d 45 9f          	lea    -0x61(%rbp),%rax
    6042:	48 89 c7             	mov    %rax,%rdi
    6045:	e8 50 e6 ff ff       	callq  469a <_ZNSaIN15coroutine_mimic9CoroutineEED1Ev>
    604a:	48 8d 45 b0          	lea    -0x50(%rbp),%rax
    604e:	be 00 00 00 00       	mov    $0x0,%esi
    6053:	48 89 c7             	mov    %rax,%rdi
    6056:	e8 c5 08 00 00       	callq  6920 <_ZNSt15__allocated_ptrISaISt23_Sp_counted_ptr_inplaceIN15coroutine_mimic9CoroutineESaIS2_ELN9__gnu_cxx12_Lock_policyE2EEEEaSEDn>
    605b:	48 8b 45 88          	mov    -0x78(%rbp),%rax
    605f:	48 8b 55 a8          	mov    -0x58(%rbp),%rdx
    6063:	48 89 10             	mov    %rdx,(%rax)
    6066:	48 8b 45 a8          	mov    -0x58(%rbp),%rax
    606a:	48 89 c7             	mov    %rax,%rdi
    606d:	e8 d0 08 00 00       	callq  6942 <_ZNSt23_Sp_counted_ptr_inplaceIN15coroutine_mimic9CoroutineESaIS1_ELN9__gnu_cxx12_Lock_policyE2EE6_M_ptrEv>
    6072:	48 8b 55 80          	mov    -0x80(%rbp),%rdx
    6076:	48 89 02             	mov    %rax,(%rdx)
    6079:	48 8d 45 b0          	lea    -0x50(%rbp),%rax
    607d:	48 89 c7             	mov    %rax,%rdi
    6080:	e8 ab 06 00 00       	callq  6730 <_ZNSt15__allocated_ptrISaISt23_Sp_counted_ptr_inplaceIN15coroutine_mimic9CoroutineESaIS2_ELN9__gnu_cxx12_Lock_policyE2EEEED1Ev>
    6085:	48 8d 45 9e          	lea    -0x62(%rbp),%rax
    6089:	48 89 c7             	mov    %rax,%rdi
    608c:	e8 3f 06 00 00       	callq  66d0 <_ZNSaISt23_Sp_counted_ptr_inplaceIN15coroutine_mimic9CoroutineESaIS1_ELN9__gnu_cxx12_Lock_policyE2EEED1Ev>
    6091:	90                   	nop
    6092:	48 8b 45 c8          	mov    -0x38(%rbp),%rax
    6096:	64 48 33 04 25 28 00 	xor    %fs:0x28,%rax
    609d:	00 00 
    609f:	74 54                	je     60f5 <_ZNSt14__shared_countILN9__gnu_cxx12_Lock_policyE2EEC1IN15coroutine_mimic9CoroutineESaIS5_EJPNS4_9SchedulerERSt8functionIFvS8_St3anyEERSA_EEERPT_St20_Sp_alloc_shared_tagIT0_EDpOT1_+0x1bf>
    60a1:	eb 4d                	jmp    60f0 <_ZNSt14__shared_countILN9__gnu_cxx12_Lock_policyE2EEC1IN15coroutine_mimic9CoroutineESaIS5_EJPNS4_9SchedulerERSt8functionIFvS8_St3anyEERSA_EEERPT_St20_Sp_alloc_shared_tagIT0_EDpOT1_+0x1ba>
    60a3:	f3 0f 1e fa          	endbr64 
    60a7:	49 89 c5             	mov    %rax,%r13
    60aa:	4c 89 e6             	mov    %r12,%rsi
    60ad:	48 89 df             	mov    %rbx,%rdi
    60b0:	e8 2e d4 ff ff       	callq  34e3 <_ZdlPvS_>
    60b5:	4c 89 eb             	mov    %r13,%rbx
    60b8:	48 8d 45 9f          	lea    -0x61(%rbp),%rax
    60bc:	48 89 c7             	mov    %rax,%rdi
    60bf:	e8 d6 e5 ff ff       	callq  469a <_ZNSaIN15coroutine_mimic9CoroutineEED1Ev>
    60c4:	48 8d 45 b0          	lea    -0x50(%rbp),%rax
    60c8:	48 89 c7             	mov    %rax,%rdi
    60cb:	e8 60 06 00 00       	callq  6730 <_ZNSt15__allocated_ptrISaISt23_Sp_counted_ptr_inplaceIN15coroutine_mimic9CoroutineESaIS2_ELN9__gnu_cxx12_Lock_policyE2EEEED1Ev>
    60d0:	eb 07                	jmp    60d9 <_ZNSt14__shared_countILN9__gnu_cxx12_Lock_policyE2EEC1IN15coroutine_mimic9CoroutineESaIS5_EJPNS4_9SchedulerERSt8functionIFvS8_St3anyEERSA_EEERPT_St20_Sp_alloc_shared_tagIT0_EDpOT1_+0x1a3>
    60d2:	f3 0f 1e fa          	endbr64 
    60d6:	48 89 c3             	mov    %rax,%rbx
    60d9:	48 8d 45 9e          	lea    -0x62(%rbp),%rax
    60dd:	48 89 c7             	mov    %rax,%rdi
    60e0:	e8 eb 05 00 00       	callq  66d0 <_ZNSaISt23_Sp_counted_ptr_inplaceIN15coroutine_mimic9CoroutineESaIS1_ELN9__gnu_cxx12_Lock_policyE2EEED1Ev>
    60e5:	48 89 d8             	mov    %rbx,%rax
    60e8:	48 89 c7             	mov    %rax,%rdi
    60eb:	e8 b0 c4 ff ff       	callq  25a0 <_Unwind_Resume@plt>
    60f0:	e8 fb c3 ff ff       	callq  24f0 <__stack_chk_fail@plt>
    60f5:	48 81 c4 88 00 00 00 	add    $0x88,%rsp
    60fc:	5b                   	pop    %rbx
    60fd:	41 5c                	pop    %r12
    60ff:	41 5d                	pop    %r13
    6101:	41 5e                	pop    %r14
    6103:	41 5f                	pop    %r15
    6105:	5d                   	pop    %rbp
    6106:	c3                   	retq   
    6107:	90                   	nop

0000000000006108 <_ZNSt12__shared_ptrIN15coroutine_mimic9CoroutineELN9__gnu_cxx12_Lock_policyE2EE31_M_enable_shared_from_this_withIS1_S1_EENSt9enable_ifIXntsrNS4_15__has_esft_baseIT0_vEE5valueEvE4typeEPT_>:
    6108:	f3 0f 1e fa          	endbr64 
    610c:	55                   	push   %rbp
    610d:	48 89 e5             	mov    %rsp,%rbp
    6110:	48 89 7d f8          	mov    %rdi,-0x8(%rbp)
    6114:	48 89 75 f0          	mov    %rsi,-0x10(%rbp)
    6118:	90                   	nop
    6119:	5d                   	pop    %rbp
    611a:	c3                   	retq   

000000000000611b <_ZNSt8__detail21_Hashtable_ebo_helperILi1ESt4hashImELb1EE7_S_cgetERKS3_>:
    611b:	f3 0f 1e fa          	endbr64 
    611f:	55                   	push   %rbp
    6120:	48 89 e5             	mov    %rsp,%rbp
    6123:	48 89 7d f8          	mov    %rdi,-0x8(%rbp)
    6127:	48 8b 45 f8          	mov    -0x8(%rbp),%rax
    612b:	5d                   	pop    %rbp
    612c:	c3                   	retq   
    612d:	90                   	nop

000000000000612e <_ZNKSt8__detail15_Hash_code_baseImSt4pairIKmSt10shared_ptrIN15coroutine_mimic9CoroutineEEENS_10_Select1stESt4hashImENS_18_Mod_range_hashingENS_20_Default_ranged_hashELb0EE5_M_h2Ev>:
    612e:	f3 0f 1e fa          	endbr64 
    6132:	55                   	push   %rbp
    6133:	48 89 e5             	mov    %rsp,%rbp
    6136:	48 83 ec 10          	sub    $0x10,%rsp
    613a:	48 89 7d f8          	mov    %rdi,-0x8(%rbp)
    613e:	48 8b 45 f8          	mov    -0x8(%rbp),%rax
    6142:	48 89 c7             	mov    %rax,%rdi
    6145:	e8 1a 08 00 00       	callq  6964 <_ZNSt8__detail21_Hashtable_ebo_helperILi2ENS_18_Mod_range_hashingELb1EE7_S_cgetERKS2_>
    614a:	c9                   	leaveq 
    614b:	c3                   	retq   

000000000000614c <_ZNKSt8__detail15_Hashtable_baseImSt4pairIKmSt10shared_ptrIN15coroutine_mimic9CoroutineEEENS_10_Select1stESt8equal_toImESt4hashImENS_18_Mod_range_hashingENS_20_Default_ranged_hashENS_17_Hashtable_traitsILb0ELb0ELb1EEEE9_M_equalsERS2_mPNS_10_Hash_nodeIS7_Lb0EEE>:
    614c:	f3 0f 1e fa          	endbr64 
    6150:	55                   	push   %rbp
    6151:	48 89 e5             	mov    %rsp,%rbp
    6154:	53                   	push   %rbx
    6155:	48 83 ec 28          	sub    $0x28,%rsp
    6159:	48 89 7d e8          	mov    %rdi,-0x18(%rbp)
    615d:	48 89 75 e0          	mov    %rsi,-0x20(%rbp)
    6161:	48 89 55 d8          	mov    %rdx,-0x28(%rbp)
    6165:	48 89 4d d0          	mov    %rcx,-0x30(%rbp)
    6169:	48 8b 45 e8          	mov    -0x18(%rbp),%rax
    616d:	48 89 c7             	mov    %rax,%rdi
    6170:	e8 87 03 00 00       	callq  64fc <_ZNKSt8__detail15_Hash_code_baseImSt4pairIKmSt10shared_ptrIN15coroutine_mimic9CoroutineEEENS_10_Select1stESt4hashImENS_18_Mod_range_hashingENS_20_Default_ranged_hashELb0EE10_M_extractEv>
    6175:	48 89 c3             	mov    %rax,%rbx
    6178:	48 8b 45 e8          	mov    -0x18(%rbp),%rax
    617c:	48 89 c7             	mov    %rax,%rdi
    617f:	e8 48 08 00 00       	callq  69cc <_ZNKSt8__detail15_Hashtable_baseImSt4pairIKmSt10shared_ptrIN15coroutine_mimic9CoroutineEEENS_10_Select1stESt8equal_toImESt4hashImENS_18_Mod_range_hashingENS_20_Default_ranged_hashENS_17_Hashtable_traitsILb0ELb0ELb1EEEE5_M_eqEv>
    6184:	48 89 c7             	mov    %rax,%rdi
    6187:	48 8b 4d d0          	mov    -0x30(%rbp),%rcx
    618b:	48 8b 55 d8          	mov    -0x28(%rbp),%rdx
    618f:	48 8b 45 e0          	mov    -0x20(%rbp),%rax
    6193:	49 89 c8             	mov    %rcx,%r8
    6196:	48 89 d1             	mov    %rdx,%rcx
    6199:	48 89 c2             	mov    %rax,%rdx
    619c:	48 89 de             	mov    %rbx,%rsi
    619f:	e8 d2 07 00 00       	callq  6976 <_ZNSt8__detail13_Equal_helperImSt4pairIKmSt10shared_ptrIN15coroutine_mimic9CoroutineEEENS_10_Select1stESt8equal_toImEmLb0EE9_S_equalsERKSA_RKS8_RS2_mPNS_10_Hash_nodeIS7_Lb0EEE>
    61a4:	48 83 c4 28          	add    $0x28,%rsp
    61a8:	5b                   	pop    %rbx
    61a9:	5d                   	pop    %rbp
    61aa:	c3                   	retq   
    61ab:	90                   	nop

00000000000061ac <_ZNSt10_Head_baseILm0ERKmLb0EEC1ES1_>:
    61ac:	f3 0f 1e fa          	endbr64 
    61b0:	55                   	push   %rbp
    61b1:	48 89 e5             	mov    %rsp,%rbp
    61b4:	48 89 7d f8          	mov    %rdi,-0x8(%rbp)
    61b8:	48 89 75 f0          	mov    %rsi,-0x10(%rbp)
    61bc:	48 8b 45 f8          	mov    -0x8(%rbp),%rax
    61c0:	48 8b 55 f0          	mov    -0x10(%rbp),%rdx
    61c4:	48 89 10             	mov    %rdx,(%rax)
    61c7:	90                   	nop
    61c8:	5d                   	pop    %rbp
    61c9:	c3                   	retq   

00000000000061ca <_ZNSt8__detail21_Hashtable_ebo_helperILi0ESaINS_10_Hash_nodeISt4pairIKmSt10shared_ptrIN15coroutine_mimic9CoroutineEEELb0EEEELb1EE6_S_getERSB_>:
    61ca:	f3 0f 1e fa          	endbr64 
    61ce:	55                   	push   %rbp
    61cf:	48 89 e5             	mov    %rsp,%rbp
    61d2:	48 89 7d f8          	mov    %rdi,-0x8(%rbp)
    61d6:	48 8b 45 f8          	mov    -0x8(%rbp),%rax
    61da:	5d                   	pop    %rbp
    61db:	c3                   	retq   

00000000000061dc <_ZN9__gnu_cxx13new_allocatorINSt8__detail10_Hash_nodeISt4pairIKmSt10shared_ptrIN15coroutine_mimic9CoroutineEEELb0EEEE8allocateEmPKv>:
    61dc:	f3 0f 1e fa          	endbr64 
    61e0:	55                   	push   %rbp
    61e1:	48 89 e5             	mov    %rsp,%rbp
    61e4:	48 83 ec 20          	sub    $0x20,%rsp
    61e8:	48 89 7d f8          	mov    %rdi,-0x8(%rbp)
    61ec:	48 89 75 f0          	mov    %rsi,-0x10(%rbp)
    61f0:	48 89 55 e8          	mov    %rdx,-0x18(%rbp)
    61f4:	48 8b 45 f8          	mov    -0x8(%rbp),%rax
    61f8:	48 89 c7             	mov    %rax,%rdi
    61fb:	e8 ea 07 00 00       	callq  69ea <_ZNK9__gnu_cxx13new_allocatorINSt8__detail10_Hash_nodeISt4pairIKmSt10shared_ptrIN15coroutine_mimic9CoroutineEEELb0EEEE8max_sizeEv>
    6200:	48 39 45 f0          	cmp    %rax,-0x10(%rbp)
    6204:	0f 97 c0             	seta   %al
    6207:	84 c0                	test   %al,%al
    6209:	74 05                	je     6210 <_ZN9__gnu_cxx13new_allocatorINSt8__detail10_Hash_nodeISt4pairIKmSt10shared_ptrIN15coroutine_mimic9CoroutineEEELb0EEEE8allocateEmPKv+0x34>
    620b:	e8 60 c1 ff ff       	callq  2370 <_ZSt17__throw_bad_allocv@plt>
    6210:	48 8b 45 f0          	mov    -0x10(%rbp),%rax
    6214:	48 c1 e0 05          	shl    $0x5,%rax
    6218:	48 89 c7             	mov    %rax,%rdi
    621b:	e8 70 c2 ff ff       	callq  2490 <_Znwm@plt>
    6220:	90                   	nop
    6221:	c9                   	leaveq 
    6222:	c3                   	retq   
    6223:	90                   	nop

0000000000006224 <_ZNSt5tupleIJRKmEEC1EOS2_>:
    6224:	f3 0f 1e fa          	endbr64 
    6228:	55                   	push   %rbp
    6229:	48 89 e5             	mov    %rsp,%rbp
    622c:	48 83 ec 10          	sub    $0x10,%rsp
    6230:	48 89 7d f8          	mov    %rdi,-0x8(%rbp)
    6234:	48 89 75 f0          	mov    %rsi,-0x10(%rbp)
    6238:	48 8b 45 f8          	mov    -0x8(%rbp),%rax
    623c:	48 8b 55 f0          	mov    -0x10(%rbp),%rdx
    6240:	48 89 d6             	mov    %rdx,%rsi
    6243:	48 89 c7             	mov    %rax,%rdi
    6246:	e8 b7 07 00 00       	callq  6a02 <_ZNSt11_Tuple_implILm0EJRKmEEC1EOS2_>
    624b:	90                   	nop
    624c:	c9                   	leaveq 
    624d:	c3                   	retq   

000000000000624e <_ZN9__gnu_cxx13new_allocatorINSt8__detail10_Hash_nodeISt4pairIKmSt10shared_ptrIN15coroutine_mimic9CoroutineEEELb0EEEE9constructIS9_JRKSt21piecewise_construct_tSt5tupleIJRS4_EESG_IJEEEEEvPT_DpOT0_>:
    624e:	f3 0f 1e fa          	endbr64 
    6252:	55                   	push   %rbp
    6253:	48 89 e5             	mov    %rsp,%rbp
    6256:	41 55                	push   %r13
    6258:	41 54                	push   %r12
    625a:	53                   	push   %rbx
    625b:	48 83 ec 58          	sub    $0x58,%rsp
    625f:	48 89 7d b8          	mov    %rdi,-0x48(%rbp)
    6263:	48 89 75 b0          	mov    %rsi,-0x50(%rbp)
    6267:	48 89 55 a8          	mov    %rdx,-0x58(%rbp)
    626b:	48 89 4d a0          	mov    %rcx,-0x60(%rbp)
    626f:	4c 89 45 98          	mov    %r8,-0x68(%rbp)
    6273:	64 48 8b 04 25 28 00 	mov    %fs:0x28,%rax
    627a:	00 00 
    627c:	48 89 45 d8          	mov    %rax,-0x28(%rbp)
    6280:	31 c0                	xor    %eax,%eax
    6282:	48 8b 45 a8          	mov    -0x58(%rbp),%rax
    6286:	48 89 c7             	mov    %rax,%rdi
    6289:	e8 c0 f5 ff ff       	callq  584e <_ZSt7forwardIRKSt21piecewise_construct_tEOT_RNSt16remove_referenceIS3_E4typeE>
    628e:	48 8b 45 a0          	mov    -0x60(%rbp),%rax
    6292:	48 89 c7             	mov    %rax,%rdi
    6295:	e8 c6 f5 ff ff       	callq  5860 <_ZSt7forwardISt5tupleIJRKmEEEOT_RNSt16remove_referenceIS4_E4typeE>
    629a:	48 89 c2             	mov    %rax,%rdx
    629d:	48 8d 45 d0          	lea    -0x30(%rbp),%rax
    62a1:	48 89 d6             	mov    %rdx,%rsi
    62a4:	48 89 c7             	mov    %rax,%rdi
    62a7:	e8 78 ff ff ff       	callq  6224 <_ZNSt5tupleIJRKmEEC1EOS2_>
    62ac:	4c 8d 6d d0          	lea    -0x30(%rbp),%r13
    62b0:	48 8b 45 98          	mov    -0x68(%rbp),%rax
    62b4:	48 89 c7             	mov    %rax,%rdi
    62b7:	e8 b6 f5 ff ff       	callq  5872 <_ZSt7forwardISt5tupleIJEEEOT_RNSt16remove_referenceIS2_E4typeE>
    62bc:	48 8b 5d b0          	mov    -0x50(%rbp),%rbx
    62c0:	48 89 de             	mov    %rbx,%rsi
    62c3:	bf 18 00 00 00       	mov    $0x18,%edi
    62c8:	e8 00 d2 ff ff       	callq  34cd <_ZnwmPv>
    62cd:	49 89 c4             	mov    %rax,%r12
    62d0:	4c 89 ee             	mov    %r13,%rsi
    62d3:	4c 89 e7             	mov    %r12,%rdi
    62d6:	e8 67 07 00 00       	callq  6a42 <_ZNSt4pairIKmSt10shared_ptrIN15coroutine_mimic9CoroutineEEEC1IJRS0_EJEEESt21piecewise_construct_tSt5tupleIJDpT_EES9_IJDpT0_EE>
    62db:	eb 1d                	jmp    62fa <_ZN9__gnu_cxx13new_allocatorINSt8__detail10_Hash_nodeISt4pairIKmSt10shared_ptrIN15coroutine_mimic9CoroutineEEELb0EEEE9constructIS9_JRKSt21piecewise_construct_tSt5tupleIJRS4_EESG_IJEEEEEvPT_DpOT0_+0xac>
    62dd:	f3 0f 1e fa          	endbr64 
    62e1:	49 89 c5             	mov    %rax,%r13
    62e4:	48 89 de             	mov    %rbx,%rsi
    62e7:	4c 89 e7             	mov    %r12,%rdi
    62ea:	e8 f4 d1 ff ff       	callq  34e3 <_ZdlPvS_>
    62ef:	4c 89 e8             	mov    %r13,%rax
    62f2:	48 89 c7             	mov    %rax,%rdi
    62f5:	e8 a6 c2 ff ff       	callq  25a0 <_Unwind_Resume@plt>
    62fa:	48 8b 45 d8          	mov    -0x28(%rbp),%rax
    62fe:	64 48 33 04 25 28 00 	xor    %fs:0x28,%rax
    6305:	00 00 
    6307:	74 05                	je     630e <_ZN9__gnu_cxx13new_allocatorINSt8__detail10_Hash_nodeISt4pairIKmSt10shared_ptrIN15coroutine_mimic9CoroutineEEELb0EEEE9constructIS9_JRKSt21piecewise_construct_tSt5tupleIJRS4_EESG_IJEEEEEvPT_DpOT0_+0xc0>
    6309:	e8 e2 c1 ff ff       	callq  24f0 <__stack_chk_fail@plt>
    630e:	48 83 c4 58          	add    $0x58,%rsp
    6312:	5b                   	pop    %rbx
    6313:	41 5c                	pop    %r12
    6315:	41 5d                	pop    %r13
    6317:	5d                   	pop    %rbp
    6318:	c3                   	retq   
    6319:	90                   	nop

000000000000631a <_ZN9__gnu_cxx13new_allocatorINSt8__detail10_Hash_nodeISt4pairIKmSt10shared_ptrIN15coroutine_mimic9CoroutineEEELb0EEEE10deallocateEPSA_m>:
    631a:	f3 0f 1e fa          	endbr64 
    631e:	55                   	push   %rbp
    631f:	48 89 e5             	mov    %rsp,%rbp
    6322:	48 83 ec 20          	sub    $0x20,%rsp
    6326:	48 89 7d f8          	mov    %rdi,-0x8(%rbp)
    632a:	48 89 75 f0          	mov    %rsi,-0x10(%rbp)
    632e:	48 89 55 e8          	mov    %rdx,-0x18(%rbp)
    6332:	48 8b 45 f0          	mov    -0x10(%rbp),%rax
    6336:	48 89 c7             	mov    %rax,%rdi
    6339:	e8 32 c1 ff ff       	callq  2470 <_ZdlPv@plt>
    633e:	c9                   	leaveq 
    633f:	c3                   	retq   

0000000000006340 <_ZNSt10_HashtableImSt4pairIKmSt10shared_ptrIN15coroutine_mimic9CoroutineEEESaIS6_ENSt8__detail10_Select1stESt8equal_toImESt4hashImENS8_18_Mod_range_hashingENS8_20_Default_ranged_hashENS8_20_Prime_rehash_policyENS8_17_Hashtable_traitsILb0ELb0ELb1EEEE13_M_rehash_auxEmSt17integral_constantIbLb1EE>:
    6340:	f3 0f 1e fa          	endbr64 
    6344:	55                   	push   %rbp
    6345:	48 89 e5             	mov    %rsp,%rbp
    6348:	48 83 ec 40          	sub    $0x40,%rsp
    634c:	48 89 7d c8          	mov    %rdi,-0x38(%rbp)
    6350:	48 89 75 c0          	mov    %rsi,-0x40(%rbp)
    6354:	48 8b 55 c0          	mov    -0x40(%rbp),%rdx
    6358:	48 8b 45 c8          	mov    -0x38(%rbp),%rax
    635c:	48 89 d6             	mov    %rdx,%rsi
    635f:	48 89 c7             	mov    %rax,%rdi
    6362:	e8 09 07 00 00       	callq  6a70 <_ZNSt10_HashtableImSt4pairIKmSt10shared_ptrIN15coroutine_mimic9CoroutineEEESaIS6_ENSt8__detail10_Select1stESt8equal_toImESt4hashImENS8_18_Mod_range_hashingENS8_20_Default_ranged_hashENS8_20_Prime_rehash_policyENS8_17_Hashtable_traitsILb0ELb0ELb1EEEE19_M_allocate_bucketsEm>
    6367:	48 89 45 e8          	mov    %rax,-0x18(%rbp)
    636b:	48 8b 45 c8          	mov    -0x38(%rbp),%rax
    636f:	48 89 c7             	mov    %rax,%rdi
    6372:	e8 7b e8 ff ff       	callq  4bf2 <_ZNKSt10_HashtableImSt4pairIKmSt10shared_ptrIN15coroutine_mimic9CoroutineEEESaIS6_ENSt8__detail10_Select1stESt8equal_toImESt4hashImENS8_18_Mod_range_hashingENS8_20_Default_ranged_hashENS8_20_Prime_rehash_policyENS8_17_Hashtable_traitsILb0ELb0ELb1EEEE8_M_beginEv>
    6377:	48 89 45 d8          	mov    %rax,-0x28(%rbp)
    637b:	48 8b 45 c8          	mov    -0x38(%rbp),%rax
    637f:	48 c7 40 10 00 00 00 	movq   $0x0,0x10(%rax)
    6386:	00 
    6387:	48 c7 45 e0 00 00 00 	movq   $0x0,-0x20(%rbp)
    638e:	00 
    638f:	48 83 7d d8 00       	cmpq   $0x0,-0x28(%rbp)
    6394:	0f 84 f9 00 00 00    	je     6493 <_ZNSt10_HashtableImSt4pairIKmSt10shared_ptrIN15coroutine_mimic9CoroutineEEESaIS6_ENSt8__detail10_Select1stESt8equal_toImESt4hashImENS8_18_Mod_range_hashingENS8_20_Default_ranged_hashENS8_20_Prime_rehash_policyENS8_17_Hashtable_traitsILb0ELb0ELb1EEEE13_M_rehash_auxEmSt17integral_constantIbLb1EE+0x153>
    639a:	48 8b 45 d8          	mov    -0x28(%rbp),%rax
    639e:	48 89 c7             	mov    %rax,%rdi
    63a1:	e8 b2 f0 ff ff       	callq  5458 <_ZNKSt8__detail10_Hash_nodeISt4pairIKmSt10shared_ptrIN15coroutine_mimic9CoroutineEEELb0EE7_M_nextEv>
    63a6:	48 89 45 f0          	mov    %rax,-0x10(%rbp)
    63aa:	48 8b 55 c0          	mov    -0x40(%rbp),%rdx
    63ae:	48 8b 4d d8          	mov    -0x28(%rbp),%rcx
    63b2:	48 8b 45 c8          	mov    -0x38(%rbp),%rax
    63b6:	48 89 ce             	mov    %rcx,%rsi
    63b9:	48 89 c7             	mov    %rax,%rdi
    63bc:	e8 65 f7 ff ff       	callq  5b26 <_ZNKSt8__detail15_Hash_code_baseImSt4pairIKmSt10shared_ptrIN15coroutine_mimic9CoroutineEEENS_10_Select1stESt4hashImENS_18_Mod_range_hashingENS_20_Default_ranged_hashELb0EE15_M_bucket_indexEPKNS_10_Hash_nodeIS7_Lb0EEEm>
    63c1:	48 89 45 f8          	mov    %rax,-0x8(%rbp)
    63c5:	48 8b 45 f8          	mov    -0x8(%rbp),%rax
    63c9:	48 8d 14 c5 00 00 00 	lea    0x0(,%rax,8),%rdx
    63d0:	00 
    63d1:	48 8b 45 e8          	mov    -0x18(%rbp),%rax
    63d5:	48 01 d0             	add    %rdx,%rax
    63d8:	48 8b 00             	mov    (%rax),%rax
    63db:	48 85 c0             	test   %rax,%rax
    63de:	75 69                	jne    6449 <_ZNSt10_HashtableImSt4pairIKmSt10shared_ptrIN15coroutine_mimic9CoroutineEEESaIS6_ENSt8__detail10_Select1stESt8equal_toImESt4hashImENS8_18_Mod_range_hashingENS8_20_Default_ranged_hashENS8_20_Prime_rehash_policyENS8_17_Hashtable_traitsILb0ELb0ELb1EEEE13_M_rehash_auxEmSt17integral_constantIbLb1EE+0x109>
    63e0:	48 8b 45 c8          	mov    -0x38(%rbp),%rax
    63e4:	48 8b 50 10          	mov    0x10(%rax),%rdx
    63e8:	48 8b 45 d8          	mov    -0x28(%rbp),%rax
    63ec:	48 89 10             	mov    %rdx,(%rax)
    63ef:	48 8b 45 c8          	mov    -0x38(%rbp),%rax
    63f3:	48 8b 55 d8          	mov    -0x28(%rbp),%rdx
    63f7:	48 89 50 10          	mov    %rdx,0x10(%rax)
    63fb:	48 8b 45 f8          	mov    -0x8(%rbp),%rax
    63ff:	48 8d 14 c5 00 00 00 	lea    0x0(,%rax,8),%rdx
    6406:	00 
    6407:	48 8b 45 e8          	mov    -0x18(%rbp),%rax
    640b:	48 01 d0             	add    %rdx,%rax
    640e:	48 8b 55 c8          	mov    -0x38(%rbp),%rdx
    6412:	48 83 c2 10          	add    $0x10,%rdx
    6416:	48 89 10             	mov    %rdx,(%rax)
    6419:	48 8b 45 d8          	mov    -0x28(%rbp),%rax
    641d:	48 8b 00             	mov    (%rax),%rax
    6420:	48 85 c0             	test   %rax,%rax
    6423:	74 1a                	je     643f <_ZNSt10_HashtableImSt4pairIKmSt10shared_ptrIN15coroutine_mimic9CoroutineEEESaIS6_ENSt8__detail10_Select1stESt8equal_toImESt4hashImENS8_18_Mod_range_hashingENS8_20_Default_ranged_hashENS8_20_Prime_rehash_policyENS8_17_Hashtable_traitsILb0ELb0ELb1EEEE13_M_rehash_auxEmSt17integral_constantIbLb1EE+0xff>
    6425:	48 8b 45 e0          	mov    -0x20(%rbp),%rax
    6429:	48 8d 14 c5 00 00 00 	lea    0x0(,%rax,8),%rdx
    6430:	00 
    6431:	48 8b 45 e8          	mov    -0x18(%rbp),%rax
    6435:	48 01 c2             	add    %rax,%rdx
    6438:	48 8b 45 d8          	mov    -0x28(%rbp),%rax
    643c:	48 89 02             	mov    %rax,(%rdx)
    643f:	48 8b 45 f8          	mov    -0x8(%rbp),%rax
    6443:	48 89 45 e0          	mov    %rax,-0x20(%rbp)
    6447:	eb 3d                	jmp    6486 <_ZNSt10_HashtableImSt4pairIKmSt10shared_ptrIN15coroutine_mimic9CoroutineEEESaIS6_ENSt8__detail10_Select1stESt8equal_toImESt4hashImENS8_18_Mod_range_hashingENS8_20_Default_ranged_hashENS8_20_Prime_rehash_policyENS8_17_Hashtable_traitsILb0ELb0ELb1EEEE13_M_rehash_auxEmSt17integral_constantIbLb1EE+0x146>
    6449:	48 8b 45 f8          	mov    -0x8(%rbp),%rax
    644d:	48 8d 14 c5 00 00 00 	lea    0x0(,%rax,8),%rdx
    6454:	00 
    6455:	48 8b 45 e8          	mov    -0x18(%rbp),%rax
    6459:	48 01 d0             	add    %rdx,%rax
    645c:	48 8b 00             	mov    (%rax),%rax
    645f:	48 8b 10             	mov    (%rax),%rdx
    6462:	48 8b 45 d8          	mov    -0x28(%rbp),%rax
    6466:	48 89 10             	mov    %rdx,(%rax)
    6469:	48 8b 45 f8          	mov    -0x8(%rbp),%rax
    646d:	48 8d 14 c5 00 00 00 	lea    0x0(,%rax,8),%rdx
    6474:	00 
    6475:	48 8b 45 e8          	mov    -0x18(%rbp),%rax
    6479:	48 01 d0             	add    %rdx,%rax
    647c:	48 8b 00             	mov    (%rax),%rax
    647f:	48 8b 55 d8          	mov    -0x28(%rbp),%rdx
    6483:	48 89 10             	mov    %rdx,(%rax)
    6486:	48 8b 45 f0          	mov    -0x10(%rbp),%rax
    648a:	48 89 45 d8          	mov    %rax,-0x28(%rbp)
    648e:	e9 fc fe ff ff       	jmpq   638f <_ZNSt10_HashtableImSt4pairIKmSt10shared_ptrIN15coroutine_mimic9CoroutineEEESaIS6_ENSt8__detail10_Select1stESt8equal_toImESt4hashImENS8_18_Mod_range_hashingENS8_20_Default_ranged_hashENS8_20_Prime_rehash_policyENS8_17_Hashtable_traitsILb0ELb0ELb1EEEE13_M_rehash_auxEmSt17integral_constantIbLb1EE+0x4f>
    6493:	48 8b 45 c8          	mov    -0x38(%rbp),%rax
    6497:	48 89 c7             	mov    %rax,%rdi
    649a:	e8 4f e1 ff ff       	callq  45ee <_ZNSt10_HashtableImSt4pairIKmSt10shared_ptrIN15coroutine_mimic9CoroutineEEESaIS6_ENSt8__detail10_Select1stESt8equal_toImESt4hashImENS8_18_Mod_range_hashingENS8_20_Default_ranged_hashENS8_20_Prime_rehash_policyENS8_17_Hashtable_traitsILb0ELb0ELb1EEEE21_M_deallocate_bucketsEv>
    649f:	48 8b 45 c8          	mov    -0x38(%rbp),%rax
    64a3:	48 8b 55 c0          	mov    -0x40(%rbp),%rdx
    64a7:	48 89 50 08          	mov    %rdx,0x8(%rax)
    64ab:	48 8b 45 c8          	mov    -0x38(%rbp),%rax
    64af:	48 8b 55 e8          	mov    -0x18(%rbp),%rdx
    64b3:	48 89 10             	mov    %rdx,(%rax)
    64b6:	90                   	nop
    64b7:	c9                   	leaveq 
    64b8:	c3                   	retq   

00000000000064b9 <_ZNSt8__detail21_Hashtable_ebo_helperILi0ENS_10_Select1stELb1EE6_S_getERS2_>:
    64b9:	f3 0f 1e fa          	endbr64 
    64bd:	55                   	push   %rbp
    64be:	48 89 e5             	mov    %rsp,%rbp
    64c1:	48 89 7d f8          	mov    %rdi,-0x8(%rbp)
    64c5:	48 8b 45 f8          	mov    -0x8(%rbp),%rax
    64c9:	5d                   	pop    %rbp
    64ca:	c3                   	retq   

00000000000064cb <_ZSt7forwardIRSt4pairIKmSt10shared_ptrIN15coroutine_mimic9CoroutineEEEEOT_RNSt16remove_referenceIS8_E4typeE>:
    64cb:	f3 0f 1e fa          	endbr64 
    64cf:	55                   	push   %rbp
    64d0:	48 89 e5             	mov    %rsp,%rbp
    64d3:	48 89 7d f8          	mov    %rdi,-0x8(%rbp)
    64d7:	48 8b 45 f8          	mov    -0x8(%rbp),%rax
    64db:	5d                   	pop    %rbp
    64dc:	c3                   	retq   

00000000000064dd <_ZSt3getILm0EKmSt10shared_ptrIN15coroutine_mimic9CoroutineEEERNSt13tuple_elementIXT_ESt4pairIT0_T1_EE4typeERS9_>:
    64dd:	f3 0f 1e fa          	endbr64 
    64e1:	55                   	push   %rbp
    64e2:	48 89 e5             	mov    %rsp,%rbp
    64e5:	48 83 ec 10          	sub    $0x10,%rsp
    64e9:	48 89 7d f8          	mov    %rdi,-0x8(%rbp)
    64ed:	48 8b 45 f8          	mov    -0x8(%rbp),%rax
    64f1:	48 89 c7             	mov    %rax,%rdi
    64f4:	e8 c7 05 00 00       	callq  6ac0 <_ZNSt10__pair_getILm0EE5__getIKmSt10shared_ptrIN15coroutine_mimic9CoroutineEEEERT_RSt4pairIS7_T0_E>
    64f9:	c9                   	leaveq 
    64fa:	c3                   	retq   
    64fb:	90                   	nop

00000000000064fc <_ZNKSt8__detail15_Hash_code_baseImSt4pairIKmSt10shared_ptrIN15coroutine_mimic9CoroutineEEENS_10_Select1stESt4hashImENS_18_Mod_range_hashingENS_20_Default_ranged_hashELb0EE10_M_extractEv>:
    64fc:	f3 0f 1e fa          	endbr64 
    6500:	55                   	push   %rbp
    6501:	48 89 e5             	mov    %rsp,%rbp
    6504:	48 83 ec 10          	sub    $0x10,%rsp
    6508:	48 89 7d f8          	mov    %rdi,-0x8(%rbp)
    650c:	48 8b 45 f8          	mov    -0x8(%rbp),%rax
    6510:	48 89 c7             	mov    %rax,%rdi
    6513:	e8 ba 05 00 00       	callq  6ad2 <_ZNSt8__detail21_Hashtable_ebo_helperILi0ENS_10_Select1stELb1EE7_S_cgetERKS2_>
    6518:	c9                   	leaveq 
    6519:	c3                   	retq   

000000000000651a <_ZNKSt8__detail21_Hash_node_value_baseISt4pairIKmSt10shared_ptrIN15coroutine_mimic9CoroutineEEEE4_M_vEv>:
    651a:	f3 0f 1e fa          	endbr64 
    651e:	55                   	push   %rbp
    651f:	48 89 e5             	mov    %rsp,%rbp
    6522:	48 83 ec 10          	sub    $0x10,%rsp
    6526:	48 89 7d f8          	mov    %rdi,-0x8(%rbp)
    652a:	48 8b 45 f8          	mov    -0x8(%rbp),%rax
    652e:	48 89 c7             	mov    %rax,%rdi
    6531:	e8 ae 05 00 00       	callq  6ae4 <_ZNKSt8__detail21_Hash_node_value_baseISt4pairIKmSt10shared_ptrIN15coroutine_mimic9CoroutineEEEE9_M_valptrEv>
    6536:	c9                   	leaveq 
    6537:	c3                   	retq   

0000000000006538 <_ZNKSt8__detail10_Select1stclIRKSt4pairIKmSt10shared_ptrIN15coroutine_mimic9CoroutineEEEEEDTcl3getILi0EEcl7forwardIT_Efp_EEEOSB_>:
    6538:	f3 0f 1e fa          	endbr64 
    653c:	55                   	push   %rbp
    653d:	48 89 e5             	mov    %rsp,%rbp
    6540:	48 83 ec 10          	sub    $0x10,%rsp
    6544:	48 89 7d f8          	mov    %rdi,-0x8(%rbp)
    6548:	48 89 75 f0          	mov    %rsi,-0x10(%rbp)
    654c:	48 8b 45 f0          	mov    -0x10(%rbp),%rax
    6550:	48 89 c7             	mov    %rax,%rdi
    6553:	e8 ae 05 00 00       	callq  6b06 <_ZSt7forwardIRKSt4pairIKmSt10shared_ptrIN15coroutine_mimic9CoroutineEEEEOT_RNSt16remove_referenceIS9_E4typeE>
    6558:	48 89 c7             	mov    %rax,%rdi
    655b:	e8 b8 05 00 00       	callq  6b18 <_ZSt3getILm0EKmSt10shared_ptrIN15coroutine_mimic9CoroutineEEERKNSt13tuple_elementIXT_ESt4pairIT0_T1_EE4typeERKS9_>
    6560:	c9                   	leaveq 
    6561:	c3                   	retq   

0000000000006562 <_ZN9__gnu_cxx17__is_null_pointerIcEEbPT_>:
    6562:	f3 0f 1e fa          	endbr64 
    6566:	55                   	push   %rbp
    6567:	48 89 e5             	mov    %rsp,%rbp
    656a:	48 89 7d f8          	mov    %rdi,-0x8(%rbp)
    656e:	48 83 7d f8 00       	cmpq   $0x0,-0x8(%rbp)
    6573:	0f 94 c0             	sete   %al
    6576:	5d                   	pop    %rbp
    6577:	c3                   	retq   

0000000000006578 <_ZSt19__iterator_categoryIPcENSt15iterator_traitsIT_E17iterator_categoryERKS2_>:
    6578:	f3 0f 1e fa          	endbr64 
    657c:	55                   	push   %rbp
    657d:	48 89 e5             	mov    %rsp,%rbp
    6580:	48 89 7d f8          	mov    %rdi,-0x8(%rbp)
    6584:	5d                   	pop    %rbp
    6585:	c3                   	retq   

0000000000006586 <_ZSt10__distanceIPcENSt15iterator_traitsIT_E15difference_typeES2_S2_St26random_access_iterator_tag>:
    6586:	f3 0f 1e fa          	endbr64 
    658a:	55                   	push   %rbp
    658b:	48 89 e5             	mov    %rsp,%rbp
    658e:	48 89 7d f8          	mov    %rdi,-0x8(%rbp)
    6592:	48 89 75 f0          	mov    %rsi,-0x10(%rbp)
    6596:	48 8b 45 f0          	mov    -0x10(%rbp),%rax
    659a:	48 2b 45 f8          	sub    -0x8(%rbp),%rax
    659e:	5d                   	pop    %rbp
    659f:	c3                   	retq   

00000000000065a0 <_ZNSt10_Head_baseILm0EPhLb0EE7_M_headERS1_>:
    65a0:	f3 0f 1e fa          	endbr64 
    65a4:	55                   	push   %rbp
    65a5:	48 89 e5             	mov    %rsp,%rbp
    65a8:	48 89 7d f8          	mov    %rdi,-0x8(%rbp)
    65ac:	48 8b 45 f8          	mov    -0x8(%rbp),%rax
    65b0:	5d                   	pop    %rbp
    65b1:	c3                   	retq   

00000000000065b2 <_ZNSt11_Tuple_implILm1EJSt14default_deleteIhEEE7_M_headERS2_>:
    65b2:	f3 0f 1e fa          	endbr64 
    65b6:	55                   	push   %rbp
    65b7:	48 89 e5             	mov    %rsp,%rbp
    65ba:	48 83 ec 10          	sub    $0x10,%rsp
    65be:	48 89 7d f8          	mov    %rdi,-0x8(%rbp)
    65c2:	48 8b 45 f8          	mov    -0x8(%rbp),%rax
    65c6:	48 89 c7             	mov    %rax,%rdi
    65c9:	e8 68 05 00 00       	callq  6b36 <_ZNSt10_Head_baseILm1ESt14default_deleteIhELb1EE7_M_headERS2_>
    65ce:	c9                   	leaveq 
    65cf:	c3                   	retq   

00000000000065d0 <_ZNSt10_Head_baseILm0EPhLb0EE7_M_headERKS1_>:
    65d0:	f3 0f 1e fa          	endbr64 
    65d4:	55                   	push   %rbp
    65d5:	48 89 e5             	mov    %rsp,%rbp
    65d8:	48 89 7d f8          	mov    %rdi,-0x8(%rbp)
    65dc:	48 8b 45 f8          	mov    -0x8(%rbp),%rax
    65e0:	5d                   	pop    %rbp
    65e1:	c3                   	retq   

00000000000065e2 <_ZNSt4pairIKmSt10shared_ptrIN15coroutine_mimic9CoroutineEEED1Ev>:
    65e2:	f3 0f 1e fa          	endbr64 
    65e6:	55                   	push   %rbp
    65e7:	48 89 e5             	mov    %rsp,%rbp
    65ea:	48 83 ec 10          	sub    $0x10,%rsp
    65ee:	48 89 7d f8          	mov    %rdi,-0x8(%rbp)
    65f2:	48 8b 45 f8          	mov    -0x8(%rbp),%rax
    65f6:	48 83 c0 08          	add    $0x8,%rax
    65fa:	48 89 c7             	mov    %rax,%rdi
    65fd:	e8 60 d4 ff ff       	callq  3a62 <_ZNSt10shared_ptrIN15coroutine_mimic9CoroutineEED1Ev>
    6602:	90                   	nop
    6603:	c9                   	leaveq 
    6604:	c3                   	retq   
    6605:	90                   	nop

0000000000006606 <_ZN9__gnu_cxx13new_allocatorINSt8__detail10_Hash_nodeISt4pairIKmSt10shared_ptrIN15coroutine_mimic9CoroutineEEELb0EEEE7destroyIS9_EEvPT_>:
    6606:	f3 0f 1e fa          	endbr64 
    660a:	55                   	push   %rbp
    660b:	48 89 e5             	mov    %rsp,%rbp
    660e:	48 83 ec 10          	sub    $0x10,%rsp
    6612:	48 89 7d f8          	mov    %rdi,-0x8(%rbp)
    6616:	48 89 75 f0          	mov    %rsi,-0x10(%rbp)
    661a:	48 8b 45 f0          	mov    -0x10(%rbp),%rax
    661e:	48 89 c7             	mov    %rax,%rdi
    6621:	e8 bc ff ff ff       	callq  65e2 <_ZNSt4pairIKmSt10shared_ptrIN15coroutine_mimic9CoroutineEEED1Ev>
    6626:	90                   	nop
    6627:	c9                   	leaveq 
    6628:	c3                   	retq   

0000000000006629 <_ZNSt14pointer_traitsIPNSt8__detail10_Hash_nodeISt4pairIKmSt10shared_ptrIN15coroutine_mimic9CoroutineEEELb0EEEE10pointer_toERS9_>:
    6629:	f3 0f 1e fa          	endbr64 
    662d:	55                   	push   %rbp
    662e:	48 89 e5             	mov    %rsp,%rbp
    6631:	48 83 ec 10          	sub    $0x10,%rsp
    6635:	48 89 7d f8          	mov    %rdi,-0x8(%rbp)
    6639:	48 8b 45 f8          	mov    -0x8(%rbp),%rax
    663d:	48 89 c7             	mov    %rax,%rdi
    6640:	e8 03 05 00 00       	callq  6b48 <_ZSt9addressofINSt8__detail10_Hash_nodeISt4pairIKmSt10shared_ptrIN15coroutine_mimic9CoroutineEEELb0EEEEPT_RSA_>
    6645:	c9                   	leaveq 
    6646:	c3                   	retq   

0000000000006647 <_ZSt9addressofIPNSt8__detail15_Hash_node_baseEEPT_RS3_>:
    6647:	f3 0f 1e fa          	endbr64 
    664b:	55                   	push   %rbp
    664c:	48 89 e5             	mov    %rsp,%rbp
    664f:	48 83 ec 10          	sub    $0x10,%rsp
    6653:	48 89 7d f8          	mov    %rdi,-0x8(%rbp)
    6657:	48 8b 45 f8          	mov    -0x8(%rbp),%rax
    665b:	48 89 c7             	mov    %rax,%rdi
    665e:	e8 03 05 00 00       	callq  6b66 <_ZSt11__addressofIPNSt8__detail15_Hash_node_baseEEPT_RS3_>
    6663:	c9                   	leaveq 
    6664:	c3                   	retq   
    6665:	90                   	nop

0000000000006666 <_ZN9__gnu_cxx13new_allocatorIPNSt8__detail15_Hash_node_baseEEC1Ev>:
    6666:	f3 0f 1e fa          	endbr64 
    666a:	55                   	push   %rbp
    666b:	48 89 e5             	mov    %rsp,%rbp
    666e:	48 89 7d f8          	mov    %rdi,-0x8(%rbp)
    6672:	90                   	nop
    6673:	5d                   	pop    %rbp
    6674:	c3                   	retq   
    6675:	90                   	nop

0000000000006676 <_ZN9__gnu_cxx13new_allocatorIPNSt8__detail15_Hash_node_baseEED1Ev>:
    6676:	f3 0f 1e fa          	endbr64 
    667a:	55                   	push   %rbp
    667b:	48 89 e5             	mov    %rsp,%rbp
    667e:	48 89 7d f8          	mov    %rdi,-0x8(%rbp)
    6682:	90                   	nop
    6683:	5d                   	pop    %rbp
    6684:	c3                   	retq   
    6685:	90                   	nop

0000000000006686 <_ZN9__gnu_cxx13new_allocatorIPNSt8__detail15_Hash_node_baseEE10deallocateEPS3_m>:
    6686:	f3 0f 1e fa          	endbr64 
    668a:	55                   	push   %rbp
    668b:	48 89 e5             	mov    %rsp,%rbp
    668e:	48 83 ec 20          	sub    $0x20,%rsp
    6692:	48 89 7d f8          	mov    %rdi,-0x8(%rbp)
    6696:	48 89 75 f0          	mov    %rsi,-0x10(%rbp)
    669a:	48 89 55 e8          	mov    %rdx,-0x18(%rbp)
    669e:	48 8b 45 f0          	mov    -0x10(%rbp),%rax
    66a2:	48 89 c7             	mov    %rax,%rdi
    66a5:	e8 c6 bd ff ff       	callq  2470 <_ZdlPv@plt>
    66aa:	c9                   	leaveq 
    66ab:	c3                   	retq   

00000000000066ac <_ZNSaISt23_Sp_counted_ptr_inplaceIN15coroutine_mimic9CoroutineESaIS1_ELN9__gnu_cxx12_Lock_policyE2EEEC1IS1_EERKSaIT_E>:
    66ac:	f3 0f 1e fa          	endbr64 
    66b0:	55                   	push   %rbp
    66b1:	48 89 e5             	mov    %rsp,%rbp
    66b4:	48 83 ec 10          	sub    $0x10,%rsp
    66b8:	48 89 7d f8          	mov    %rdi,-0x8(%rbp)
    66bc:	48 89 75 f0          	mov    %rsi,-0x10(%rbp)
    66c0:	48 8b 45 f8          	mov    -0x8(%rbp),%rax
    66c4:	48 89 c7             	mov    %rax,%rdi
    66c7:	e8 ac 04 00 00       	callq  6b78 <_ZN9__gnu_cxx13new_allocatorISt23_Sp_counted_ptr_inplaceIN15coroutine_mimic9CoroutineESaIS3_ELNS_12_Lock_policyE2EEEC1Ev>
    66cc:	90                   	nop
    66cd:	c9                   	leaveq 
    66ce:	c3                   	retq   
    66cf:	90                   	nop

00000000000066d0 <_ZNSaISt23_Sp_counted_ptr_inplaceIN15coroutine_mimic9CoroutineESaIS1_ELN9__gnu_cxx12_Lock_policyE2EEED1Ev>:
    66d0:	f3 0f 1e fa          	endbr64 
    66d4:	55                   	push   %rbp
    66d5:	48 89 e5             	mov    %rsp,%rbp
    66d8:	48 83 ec 10          	sub    $0x10,%rsp
    66dc:	48 89 7d f8          	mov    %rdi,-0x8(%rbp)
    66e0:	48 8b 45 f8          	mov    -0x8(%rbp),%rax
    66e4:	48 89 c7             	mov    %rax,%rdi
    66e7:	e8 9c 04 00 00       	callq  6b88 <_ZN9__gnu_cxx13new_allocatorISt23_Sp_counted_ptr_inplaceIN15coroutine_mimic9CoroutineESaIS3_ELNS_12_Lock_policyE2EEED1Ev>
    66ec:	90                   	nop
    66ed:	c9                   	leaveq 
    66ee:	c3                   	retq   

00000000000066ef <_ZSt18__allocate_guardedISaISt23_Sp_counted_ptr_inplaceIN15coroutine_mimic9CoroutineESaIS2_ELN9__gnu_cxx12_Lock_policyE2EEEESt15__allocated_ptrIT_ERS9_>:
    66ef:	f3 0f 1e fa          	endbr64 
    66f3:	55                   	push   %rbp
    66f4:	48 89 e5             	mov    %rsp,%rbp
    66f7:	48 83 ec 10          	sub    $0x10,%rsp
    66fb:	48 89 7d f8          	mov    %rdi,-0x8(%rbp)
    66ff:	48 89 75 f0          	mov    %rsi,-0x10(%rbp)
    6703:	48 8b 45 f0          	mov    -0x10(%rbp),%rax
    6707:	be 01 00 00 00       	mov    $0x1,%esi
    670c:	48 89 c7             	mov    %rax,%rdi
    670f:	e8 83 04 00 00       	callq  6b97 <_ZNSt16allocator_traitsISaISt23_Sp_counted_ptr_inplaceIN15coroutine_mimic9CoroutineESaIS2_ELN9__gnu_cxx12_Lock_policyE2EEEE8allocateERS7_m>
    6714:	48 89 c2             	mov    %rax,%rdx
    6717:	48 8b 4d f0          	mov    -0x10(%rbp),%rcx
    671b:	48 8b 45 f8          	mov    -0x8(%rbp),%rax
    671f:	48 89 ce             	mov    %rcx,%rsi
    6722:	48 89 c7             	mov    %rax,%rdi
    6725:	e8 9c 04 00 00       	callq  6bc6 <_ZNSt15__allocated_ptrISaISt23_Sp_counted_ptr_inplaceIN15coroutine_mimic9CoroutineESaIS2_ELN9__gnu_cxx12_Lock_policyE2EEEEC1ERS7_PS6_>
    672a:	48 8b 45 f8          	mov    -0x8(%rbp),%rax
    672e:	c9                   	leaveq 
    672f:	c3                   	retq   

0000000000006730 <_ZNSt15__allocated_ptrISaISt23_Sp_counted_ptr_inplaceIN15coroutine_mimic9CoroutineESaIS2_ELN9__gnu_cxx12_Lock_policyE2EEEED1Ev>:
    6730:	f3 0f 1e fa          	endbr64 
    6734:	55                   	push   %rbp
    6735:	48 89 e5             	mov    %rsp,%rbp
    6738:	48 83 ec 10          	sub    $0x10,%rsp
    673c:	48 89 7d f8          	mov    %rdi,-0x8(%rbp)
    6740:	48 8b 45 f8          	mov    -0x8(%rbp),%rax
    6744:	48 8b 40 08          	mov    0x8(%rax),%rax
    6748:	48 85 c0             	test   %rax,%rax
    674b:	74 1f                	je     676c <_ZNSt15__allocated_ptrISaISt23_Sp_counted_ptr_inplaceIN15coroutine_mimic9CoroutineESaIS2_ELN9__gnu_cxx12_Lock_policyE2EEEED1Ev+0x3c>
    674d:	48 8b 45 f8          	mov    -0x8(%rbp),%rax
    6751:	48 8b 48 08          	mov    0x8(%rax),%rcx
    6755:	48 8b 45 f8          	mov    -0x8(%rbp),%rax
    6759:	48 8b 00             	mov    (%rax),%rax
    675c:	ba 01 00 00 00       	mov    $0x1,%edx
    6761:	48 89 ce             	mov    %rcx,%rsi
    6764:	48 89 c7             	mov    %rax,%rdi
    6767:	e8 94 04 00 00       	callq  6c00 <_ZNSt16allocator_traitsISaISt23_Sp_counted_ptr_inplaceIN15coroutine_mimic9CoroutineESaIS2_ELN9__gnu_cxx12_Lock_policyE2EEEE10deallocateERS7_PS6_m>
    676c:	90                   	nop
    676d:	c9                   	leaveq 
    676e:	c3                   	retq   
    676f:	90                   	nop

0000000000006770 <_ZNSt15__allocated_ptrISaISt23_Sp_counted_ptr_inplaceIN15coroutine_mimic9CoroutineESaIS2_ELN9__gnu_cxx12_Lock_policyE2EEEE3getEv>:
    6770:	f3 0f 1e fa          	endbr64 
    6774:	55                   	push   %rbp
    6775:	48 89 e5             	mov    %rsp,%rbp
    6778:	48 83 ec 10          	sub    $0x10,%rsp
    677c:	48 89 7d f8          	mov    %rdi,-0x8(%rbp)
    6780:	48 8b 45 f8          	mov    -0x8(%rbp),%rax
    6784:	48 8b 40 08          	mov    0x8(%rax),%rax
    6788:	48 89 c7             	mov    %rax,%rdi
    678b:	e8 a2 04 00 00       	callq  6c32 <_ZSt12__to_addressISt23_Sp_counted_ptr_inplaceIN15coroutine_mimic9CoroutineESaIS2_ELN9__gnu_cxx12_Lock_policyE2EEEPT_S8_>
    6790:	c9                   	leaveq 
    6791:	c3                   	retq   

0000000000006792 <_ZNSaIN15coroutine_mimic9CoroutineEEC1ERKS1_>:
    6792:	f3 0f 1e fa          	endbr64 
    6796:	55                   	push   %rbp
    6797:	48 89 e5             	mov    %rsp,%rbp
    679a:	48 83 ec 10          	sub    $0x10,%rsp
    679e:	48 89 7d f8          	mov    %rdi,-0x8(%rbp)
    67a2:	48 89 75 f0          	mov    %rsi,-0x10(%rbp)
    67a6:	48 8b 55 f0          	mov    -0x10(%rbp),%rdx
    67aa:	48 8b 45 f8          	mov    -0x8(%rbp),%rax
    67ae:	48 89 d6             	mov    %rdx,%rsi
    67b1:	48 89 c7             	mov    %rax,%rdi
    67b4:	e8 8b 04 00 00       	callq  6c44 <_ZN9__gnu_cxx13new_allocatorIN15coroutine_mimic9CoroutineEEC1ERKS3_>
    67b9:	90                   	nop
    67ba:	c9                   	leaveq 
    67bb:	c3                   	retq   

00000000000067bc <_ZNSt14_Sp_ebo_helperILi0ESaIN15coroutine_mimic9CoroutineEELb1EED1Ev>:
    67bc:	f3 0f 1e fa          	endbr64 
    67c0:	55                   	push   %rbp
    67c1:	48 89 e5             	mov    %rsp,%rbp
    67c4:	48 83 ec 10          	sub    $0x10,%rsp
    67c8:	48 89 7d f8          	mov    %rdi,-0x8(%rbp)
    67cc:	48 8b 45 f8          	mov    -0x8(%rbp),%rax
    67d0:	48 89 c7             	mov    %rax,%rdi
    67d3:	e8 c2 de ff ff       	callq  469a <_ZNSaIN15coroutine_mimic9CoroutineEED1Ev>
    67d8:	90                   	nop
    67d9:	c9                   	leaveq 
    67da:	c3                   	retq   
    67db:	90                   	nop

00000000000067dc <_ZNSt23_Sp_counted_ptr_inplaceIN15coroutine_mimic9CoroutineESaIS1_ELN9__gnu_cxx12_Lock_policyE2EE5_ImplD1Ev>:
    67dc:	f3 0f 1e fa          	endbr64 
    67e0:	55                   	push   %rbp
    67e1:	48 89 e5             	mov    %rsp,%rbp
    67e4:	48 83 ec 10          	sub    $0x10,%rsp
    67e8:	48 89 7d f8          	mov    %rdi,-0x8(%rbp)
    67ec:	48 8b 45 f8          	mov    -0x8(%rbp),%rax
    67f0:	48 89 c7             	mov    %rax,%rdi
    67f3:	e8 c4 ff ff ff       	callq  67bc <_ZNSt14_Sp_ebo_helperILi0ESaIN15coroutine_mimic9CoroutineEELb1EED1Ev>
    67f8:	90                   	nop
    67f9:	c9                   	leaveq 
    67fa:	c3                   	retq   
    67fb:	90                   	nop

00000000000067fc <_ZNSt23_Sp_counted_ptr_inplaceIN15coroutine_mimic9CoroutineESaIS1_ELN9__gnu_cxx12_Lock_policyE2EEC1IJPNS0_9SchedulerERSt8functionIFvS8_St3anyEERSA_EEES2_DpOT_>:
    67fc:	f3 0f 1e fa          	endbr64 
    6800:	55                   	push   %rbp
    6801:	48 89 e5             	mov    %rsp,%rbp
    6804:	41 55                	push   %r13
    6806:	41 54                	push   %r12
    6808:	53                   	push   %rbx
    6809:	48 83 ec 48          	sub    $0x48,%rsp
    680d:	48 89 7d c8          	mov    %rdi,-0x38(%rbp)
    6811:	48 89 75 c0          	mov    %rsi,-0x40(%rbp)
    6815:	48 89 55 b8          	mov    %rdx,-0x48(%rbp)
    6819:	48 89 4d b0          	mov    %rcx,-0x50(%rbp)
    681d:	4c 89 45 a8          	mov    %r8,-0x58(%rbp)
    6821:	64 48 8b 04 25 28 00 	mov    %fs:0x28,%rax
    6828:	00 00 
    682a:	48 89 45 d8          	mov    %rax,-0x28(%rbp)
    682e:	31 c0                	xor    %eax,%eax
    6830:	48 8b 45 c8          	mov    -0x38(%rbp),%rax
    6834:	48 89 c7             	mov    %rax,%rdi
    6837:	e8 1c 04 00 00       	callq  6c58 <_ZNSt16_Sp_counted_baseILN9__gnu_cxx12_Lock_policyE2EEC1Ev>
    683c:	48 8d 15 1d 92 00 00 	lea    0x921d(%rip),%rdx        # fa60 <_ZTVSt23_Sp_counted_ptr_inplaceIN15coroutine_mimic9CoroutineESaIS1_ELN9__gnu_cxx12_Lock_policyE2EE+0x10>
    6843:	48 8b 45 c8          	mov    -0x38(%rbp),%rax
    6847:	48 89 10             	mov    %rdx,(%rax)
    684a:	48 8b 45 c8          	mov    -0x38(%rbp),%rax
    684e:	48 8d 58 10          	lea    0x10(%rax),%rbx
    6852:	48 8b 55 c0          	mov    -0x40(%rbp),%rdx
    6856:	48 8d 45 d7          	lea    -0x29(%rbp),%rax
    685a:	48 89 d6             	mov    %rdx,%rsi
    685d:	48 89 c7             	mov    %rax,%rdi
    6860:	e8 2d ff ff ff       	callq  6792 <_ZNSaIN15coroutine_mimic9CoroutineEEC1ERKS1_>
    6865:	48 8d 45 d7          	lea    -0x29(%rbp),%rax
    6869:	48 89 c6             	mov    %rax,%rsi
    686c:	48 89 df             	mov    %rbx,%rdi
    686f:	e8 18 04 00 00       	callq  6c8c <_ZNSt23_Sp_counted_ptr_inplaceIN15coroutine_mimic9CoroutineESaIS1_ELN9__gnu_cxx12_Lock_policyE2EE5_ImplC1ES2_>
    6874:	48 8d 45 d7          	lea    -0x29(%rbp),%rax
    6878:	48 89 c7             	mov    %rax,%rdi
    687b:	e8 1a de ff ff       	callq  469a <_ZNSaIN15coroutine_mimic9CoroutineEED1Ev>
    6880:	48 8b 45 a8          	mov    -0x58(%rbp),%rax
    6884:	48 89 c7             	mov    %rax,%rdi
    6887:	e8 51 de ff ff       	callq  46dd <_ZSt7forwardIRSt3anyEOT_RNSt16remove_referenceIS2_E4typeE>
    688c:	49 89 c5             	mov    %rax,%r13
    688f:	48 8b 45 b0          	mov    -0x50(%rbp),%rax
    6893:	48 89 c7             	mov    %rax,%rdi
    6896:	e8 30 de ff ff       	callq  46cb <_ZSt7forwardIRSt8functionIFvPN15coroutine_mimic9SchedulerESt3anyEEEOT_RNSt16remove_referenceIS8_E4typeE>
    689b:	49 89 c4             	mov    %rax,%r12
    689e:	48 8b 45 b8          	mov    -0x48(%rbp),%rax
    68a2:	48 89 c7             	mov    %rax,%rdi
    68a5:	e8 0f de ff ff       	callq  46b9 <_ZSt7forwardIPN15coroutine_mimic9SchedulerEEOT_RNSt16remove_referenceIS3_E4typeE>
    68aa:	48 89 c3             	mov    %rax,%rbx
    68ad:	48 8b 45 c8          	mov    -0x38(%rbp),%rax
    68b1:	48 89 c7             	mov    %rax,%rdi
    68b4:	e8 89 00 00 00       	callq  6942 <_ZNSt23_Sp_counted_ptr_inplaceIN15coroutine_mimic9CoroutineESaIS1_ELN9__gnu_cxx12_Lock_policyE2EE6_M_ptrEv>
    68b9:	48 89 c6             	mov    %rax,%rsi
    68bc:	48 8b 45 c0          	mov    -0x40(%rbp),%rax
    68c0:	4d 89 e8             	mov    %r13,%r8
    68c3:	4c 89 e1             	mov    %r12,%rcx
    68c6:	48 89 da             	mov    %rbx,%rdx
    68c9:	48 89 c7             	mov    %rax,%rdi
    68cc:	e8 e5 03 00 00       	callq  6cb6 <_ZNSt16allocator_traitsISaIN15coroutine_mimic9CoroutineEEE9constructIS1_JPNS0_9SchedulerERSt8functionIFvS6_St3anyEERS8_EEEvRS2_PT_DpOT0_>
    68d1:	eb 2e                	jmp    6901 <_ZNSt23_Sp_counted_ptr_inplaceIN15coroutine_mimic9CoroutineESaIS1_ELN9__gnu_cxx12_Lock_policyE2EEC1IJPNS0_9SchedulerERSt8functionIFvS8_St3anyEERSA_EEES2_DpOT_+0x105>
    68d3:	f3 0f 1e fa          	endbr64 
    68d7:	48 89 c3             	mov    %rax,%rbx
    68da:	48 8b 45 c8          	mov    -0x38(%rbp),%rax
    68de:	48 83 c0 10          	add    $0x10,%rax
    68e2:	48 89 c7             	mov    %rax,%rdi
    68e5:	e8 f2 fe ff ff       	callq  67dc <_ZNSt23_Sp_counted_ptr_inplaceIN15coroutine_mimic9CoroutineESaIS1_ELN9__gnu_cxx12_Lock_policyE2EE5_ImplD1Ev>
    68ea:	48 8b 45 c8          	mov    -0x38(%rbp),%rax
    68ee:	48 89 c7             	mov    %rax,%rdi
    68f1:	e8 4e ed ff ff       	callq  5644 <_ZNSt16_Sp_counted_baseILN9__gnu_cxx12_Lock_policyE2EED1Ev>
    68f6:	48 89 d8             	mov    %rbx,%rax
    68f9:	48 89 c7             	mov    %rax,%rdi
    68fc:	e8 9f bc ff ff       	callq  25a0 <_Unwind_Resume@plt>
    6901:	48 8b 45 d8          	mov    -0x28(%rbp),%rax
    6905:	64 48 33 04 25 28 00 	xor    %fs:0x28,%rax
    690c:	00 00 
    690e:	74 05                	je     6915 <_ZNSt23_Sp_counted_ptr_inplaceIN15coroutine_mimic9CoroutineESaIS1_ELN9__gnu_cxx12_Lock_policyE2EEC1IJPNS0_9SchedulerERSt8functionIFvS8_St3anyEERSA_EEES2_DpOT_+0x119>
    6910:	e8 db bb ff ff       	callq  24f0 <__stack_chk_fail@plt>
    6915:	48 83 c4 48          	add    $0x48,%rsp
    6919:	5b                   	pop    %rbx
    691a:	41 5c                	pop    %r12
    691c:	41 5d                	pop    %r13
    691e:	5d                   	pop    %rbp
    691f:	c3                   	retq   

0000000000006920 <_ZNSt15__allocated_ptrISaISt23_Sp_counted_ptr_inplaceIN15coroutine_mimic9CoroutineESaIS2_ELN9__gnu_cxx12_Lock_policyE2EEEEaSEDn>:
    6920:	f3 0f 1e fa          	endbr64 
    6924:	55                   	push   %rbp
    6925:	48 89 e5             	mov    %rsp,%rbp
    6928:	48 89 7d f8          	mov    %rdi,-0x8(%rbp)
    692c:	48 89 75 f0          	mov    %rsi,-0x10(%rbp)
    6930:	48 8b 45 f8          	mov    -0x8(%rbp),%rax
    6934:	48 c7 40 08 00 00 00 	movq   $0x0,0x8(%rax)
    693b:	00 
    693c:	48 8b 45 f8          	mov    -0x8(%rbp),%rax
    6940:	5d                   	pop    %rbp
    6941:	c3                   	retq   

0000000000006942 <_ZNSt23_Sp_counted_ptr_inplaceIN15coroutine_mimic9CoroutineESaIS1_ELN9__gnu_cxx12_Lock_policyE2EE6_M_ptrEv>:
    6942:	f3 0f 1e fa          	endbr64 
    6946:	55                   	push   %rbp
    6947:	48 89 e5             	mov    %rsp,%rbp
    694a:	48 83 ec 10          	sub    $0x10,%rsp
    694e:	48 89 7d f8          	mov    %rdi,-0x8(%rbp)
    6952:	48 8b 45 f8          	mov    -0x8(%rbp),%rax
    6956:	48 83 c0 10          	add    $0x10,%rax
    695a:	48 89 c7             	mov    %rax,%rdi
    695d:	e8 c4 03 00 00       	callq  6d26 <_ZN9__gnu_cxx16__aligned_bufferIN15coroutine_mimic9CoroutineEE6_M_ptrEv>
    6962:	c9                   	leaveq 
    6963:	c3                   	retq   

0000000000006964 <_ZNSt8__detail21_Hashtable_ebo_helperILi2ENS_18_Mod_range_hashingELb1EE7_S_cgetERKS2_>:
    6964:	f3 0f 1e fa          	endbr64 
    6968:	55                   	push   %rbp
    6969:	48 89 e5             	mov    %rsp,%rbp
    696c:	48 89 7d f8          	mov    %rdi,-0x8(%rbp)
    6970:	48 8b 45 f8          	mov    -0x8(%rbp),%rax
    6974:	5d                   	pop    %rbp
    6975:	c3                   	retq   

0000000000006976 <_ZNSt8__detail13_Equal_helperImSt4pairIKmSt10shared_ptrIN15coroutine_mimic9CoroutineEEENS_10_Select1stESt8equal_toImEmLb0EE9_S_equalsERKSA_RKS8_RS2_mPNS_10_Hash_nodeIS7_Lb0EEE>:
    6976:	f3 0f 1e fa          	endbr64 
    697a:	55                   	push   %rbp
    697b:	48 89 e5             	mov    %rsp,%rbp
    697e:	48 83 ec 30          	sub    $0x30,%rsp
    6982:	48 89 7d f8          	mov    %rdi,-0x8(%rbp)
    6986:	48 89 75 f0          	mov    %rsi,-0x10(%rbp)
    698a:	48 89 55 e8          	mov    %rdx,-0x18(%rbp)
    698e:	48 89 4d e0          	mov    %rcx,-0x20(%rbp)
    6992:	4c 89 45 d8          	mov    %r8,-0x28(%rbp)
    6996:	48 8b 45 d8          	mov    -0x28(%rbp),%rax
    699a:	48 89 c7             	mov    %rax,%rdi
    699d:	e8 c2 e7 ff ff       	callq  5164 <_ZNSt8__detail21_Hash_node_value_baseISt4pairIKmSt10shared_ptrIN15coroutine_mimic9CoroutineEEEE4_M_vEv>
    69a2:	48 89 c2             	mov    %rax,%rdx
    69a5:	48 8b 45 f0          	mov    -0x10(%rbp),%rax
    69a9:	48 89 d6             	mov    %rdx,%rsi
    69ac:	48 89 c7             	mov    %rax,%rdi
    69af:	e8 2a f0 ff ff       	callq  59de <_ZNKSt8__detail10_Select1stclIRSt4pairIKmSt10shared_ptrIN15coroutine_mimic9CoroutineEEEEEDTcl3getILi0EEcl7forwardIT_Efp_EEEOSA_>
    69b4:	48 89 c2             	mov    %rax,%rdx
    69b7:	48 8b 4d e8          	mov    -0x18(%rbp),%rcx
    69bb:	48 8b 45 f8          	mov    -0x8(%rbp),%rax
    69bf:	48 89 ce             	mov    %rcx,%rsi
    69c2:	48 89 c7             	mov    %rax,%rdi
    69c5:	e8 7a 03 00 00       	callq  6d44 <_ZNKSt8equal_toImEclERKmS2_>
    69ca:	c9                   	leaveq 
    69cb:	c3                   	retq   

00000000000069cc <_ZNKSt8__detail15_Hashtable_baseImSt4pairIKmSt10shared_ptrIN15coroutine_mimic9CoroutineEEENS_10_Select1stESt8equal_toImESt4hashImENS_18_Mod_range_hashingENS_20_Default_ranged_hashENS_17_Hashtable_traitsILb0ELb0ELb1EEEE5_M_eqEv>:
    69cc:	f3 0f 1e fa          	endbr64 
    69d0:	55                   	push   %rbp
    69d1:	48 89 e5             	mov    %rsp,%rbp
    69d4:	48 83 ec 10          	sub    $0x10,%rsp
    69d8:	48 89 7d f8          	mov    %rdi,-0x8(%rbp)
    69dc:	48 8b 45 f8          	mov    -0x8(%rbp),%rax
    69e0:	48 89 c7             	mov    %rax,%rdi
    69e3:	e8 86 03 00 00       	callq  6d6e <_ZNSt8__detail21_Hashtable_ebo_helperILi0ESt8equal_toImELb1EE7_S_cgetERKS3_>
    69e8:	c9                   	leaveq 
    69e9:	c3                   	retq   

00000000000069ea <_ZNK9__gnu_cxx13new_allocatorINSt8__detail10_Hash_nodeISt4pairIKmSt10shared_ptrIN15coroutine_mimic9CoroutineEEELb0EEEE8max_sizeEv>:
    69ea:	f3 0f 1e fa          	endbr64 
    69ee:	55                   	push   %rbp
    69ef:	48 89 e5             	mov    %rsp,%rbp
    69f2:	48 89 7d f8          	mov    %rdi,-0x8(%rbp)
    69f6:	48 b8 ff ff ff ff ff 	movabs $0x3ffffffffffffff,%rax
    69fd:	ff ff 03 
    6a00:	5d                   	pop    %rbp
    6a01:	c3                   	retq   

0000000000006a02 <_ZNSt11_Tuple_implILm0EJRKmEEC1EOS2_>:
    6a02:	f3 0f 1e fa          	endbr64 
    6a06:	55                   	push   %rbp
    6a07:	48 89 e5             	mov    %rsp,%rbp
    6a0a:	53                   	push   %rbx
    6a0b:	48 83 ec 18          	sub    $0x18,%rsp
    6a0f:	48 89 7d e8          	mov    %rdi,-0x18(%rbp)
    6a13:	48 89 75 e0          	mov    %rsi,-0x20(%rbp)
    6a17:	48 8b 5d e8          	mov    -0x18(%rbp),%rbx
    6a1b:	48 8b 45 e0          	mov    -0x20(%rbp),%rax
    6a1f:	48 89 c7             	mov    %rax,%rdi
    6a22:	e8 59 03 00 00       	callq  6d80 <_ZNSt11_Tuple_implILm0EJRKmEE7_M_headERS2_>
    6a27:	48 89 c7             	mov    %rax,%rdi
    6a2a:	e8 6f 03 00 00       	callq  6d9e <_ZSt7forwardIRKmEOT_RNSt16remove_referenceIS2_E4typeE>
    6a2f:	48 89 c6             	mov    %rax,%rsi
    6a32:	48 89 df             	mov    %rbx,%rdi
    6a35:	e8 72 f7 ff ff       	callq  61ac <_ZNSt10_Head_baseILm0ERKmLb0EEC1ES1_>
    6a3a:	90                   	nop
    6a3b:	48 83 c4 18          	add    $0x18,%rsp
    6a3f:	5b                   	pop    %rbx
    6a40:	5d                   	pop    %rbp
    6a41:	c3                   	retq   

0000000000006a42 <_ZNSt4pairIKmSt10shared_ptrIN15coroutine_mimic9CoroutineEEEC1IJRS0_EJEEESt21piecewise_construct_tSt5tupleIJDpT_EES9_IJDpT0_EE>:
    6a42:	f3 0f 1e fa          	endbr64 
    6a46:	55                   	push   %rbp
    6a47:	48 89 e5             	mov    %rsp,%rbp
    6a4a:	48 83 ec 20          	sub    $0x20,%rsp
    6a4e:	48 89 7d f8          	mov    %rdi,-0x8(%rbp)
    6a52:	48 89 75 f0          	mov    %rsi,-0x10(%rbp)
    6a56:	48 8d 55 ef          	lea    -0x11(%rbp),%rdx
    6a5a:	48 8b 4d f0          	mov    -0x10(%rbp),%rcx
    6a5e:	48 8b 45 f8          	mov    -0x8(%rbp),%rax
    6a62:	48 89 ce             	mov    %rcx,%rsi
    6a65:	48 89 c7             	mov    %rax,%rdi
    6a68:	e8 43 03 00 00       	callq  6db0 <_ZNSt4pairIKmSt10shared_ptrIN15coroutine_mimic9CoroutineEEEC1IJRS0_EJLm0EEJEJEEERSt5tupleIJDpT_EERS8_IJDpT1_EESt12_Index_tupleIJXspT0_EEESH_IJXspT2_EEE>
    6a6d:	90                   	nop
    6a6e:	c9                   	leaveq 
    6a6f:	c3                   	retq   

0000000000006a70 <_ZNSt10_HashtableImSt4pairIKmSt10shared_ptrIN15coroutine_mimic9CoroutineEEESaIS6_ENSt8__detail10_Select1stESt8equal_toImESt4hashImENS8_18_Mod_range_hashingENS8_20_Default_ranged_hashENS8_20_Prime_rehash_policyENS8_17_Hashtable_traitsILb0ELb0ELb1EEEE19_M_allocate_bucketsEm>:
    6a70:	f3 0f 1e fa          	endbr64 
    6a74:	55                   	push   %rbp
    6a75:	48 89 e5             	mov    %rsp,%rbp
    6a78:	48 83 ec 10          	sub    $0x10,%rsp
    6a7c:	48 89 7d f8          	mov    %rdi,-0x8(%rbp)
    6a80:	48 89 75 f0          	mov    %rsi,-0x10(%rbp)
    6a84:	48 83 7d f0 01       	cmpq   $0x1,-0x10(%rbp)
    6a89:	0f 94 c0             	sete   %al
    6a8c:	0f b6 c0             	movzbl %al,%eax
    6a8f:	48 85 c0             	test   %rax,%rax
    6a92:	74 16                	je     6aaa <_ZNSt10_HashtableImSt4pairIKmSt10shared_ptrIN15coroutine_mimic9CoroutineEEESaIS6_ENSt8__detail10_Select1stESt8equal_toImESt4hashImENS8_18_Mod_range_hashingENS8_20_Default_ranged_hashENS8_20_Prime_rehash_policyENS8_17_Hashtable_traitsILb0ELb0ELb1EEEE19_M_allocate_bucketsEm+0x3a>
    6a94:	48 8b 45 f8          	mov    -0x8(%rbp),%rax
    6a98:	48 c7 40 30 00 00 00 	movq   $0x0,0x30(%rax)
    6a9f:	00 
    6aa0:	48 8b 45 f8          	mov    -0x8(%rbp),%rax
    6aa4:	48 83 c0 30          	add    $0x30,%rax
    6aa8:	eb 14                	jmp    6abe <_ZNSt10_HashtableImSt4pairIKmSt10shared_ptrIN15coroutine_mimic9CoroutineEEESaIS6_ENSt8__detail10_Select1stESt8equal_toImESt4hashImENS8_18_Mod_range_hashingENS8_20_Default_ranged_hashENS8_20_Prime_rehash_policyENS8_17_Hashtable_traitsILb0ELb0ELb1EEEE19_M_allocate_bucketsEm+0x4e>
    6aaa:	48 8b 55 f0          	mov    -0x10(%rbp),%rdx
    6aae:	48 8b 45 f8          	mov    -0x8(%rbp),%rax
    6ab2:	48 89 d6             	mov    %rdx,%rsi
    6ab5:	48 89 c7             	mov    %rax,%rdi
    6ab8:	e8 3d 03 00 00       	callq  6dfa <_ZNSt8__detail16_Hashtable_allocISaINS_10_Hash_nodeISt4pairIKmSt10shared_ptrIN15coroutine_mimic9CoroutineEEELb0EEEEE19_M_allocate_bucketsEm>
    6abd:	90                   	nop
    6abe:	c9                   	leaveq 
    6abf:	c3                   	retq   

0000000000006ac0 <_ZNSt10__pair_getILm0EE5__getIKmSt10shared_ptrIN15coroutine_mimic9CoroutineEEEERT_RSt4pairIS7_T0_E>:
    6ac0:	f3 0f 1e fa          	endbr64 
    6ac4:	55                   	push   %rbp
    6ac5:	48 89 e5             	mov    %rsp,%rbp
    6ac8:	48 89 7d f8          	mov    %rdi,-0x8(%rbp)
    6acc:	48 8b 45 f8          	mov    -0x8(%rbp),%rax
    6ad0:	5d                   	pop    %rbp
    6ad1:	c3                   	retq   

0000000000006ad2 <_ZNSt8__detail21_Hashtable_ebo_helperILi0ENS_10_Select1stELb1EE7_S_cgetERKS2_>:
    6ad2:	f3 0f 1e fa          	endbr64 
    6ad6:	55                   	push   %rbp
    6ad7:	48 89 e5             	mov    %rsp,%rbp
    6ada:	48 89 7d f8          	mov    %rdi,-0x8(%rbp)
    6ade:	48 8b 45 f8          	mov    -0x8(%rbp),%rax
    6ae2:	5d                   	pop    %rbp
    6ae3:	c3                   	retq   

0000000000006ae4 <_ZNKSt8__detail21_Hash_node_value_baseISt4pairIKmSt10shared_ptrIN15coroutine_mimic9CoroutineEEEE9_M_valptrEv>:
    6ae4:	f3 0f 1e fa          	endbr64 
    6ae8:	55                   	push   %rbp
    6ae9:	48 89 e5             	mov    %rsp,%rbp
    6aec:	48 83 ec 10          	sub    $0x10,%rsp
    6af0:	48 89 7d f8          	mov    %rdi,-0x8(%rbp)
    6af4:	48 8b 45 f8          	mov    -0x8(%rbp),%rax
    6af8:	48 83 c0 08          	add    $0x8,%rax
    6afc:	48 89 c7             	mov    %rax,%rdi
    6aff:	e8 ca 03 00 00       	callq  6ece <_ZNK9__gnu_cxx16__aligned_bufferISt4pairIKmSt10shared_ptrIN15coroutine_mimic9CoroutineEEEE6_M_ptrEv>
    6b04:	c9                   	leaveq 
    6b05:	c3                   	retq   

0000000000006b06 <_ZSt7forwardIRKSt4pairIKmSt10shared_ptrIN15coroutine_mimic9CoroutineEEEEOT_RNSt16remove_referenceIS9_E4typeE>:
    6b06:	f3 0f 1e fa          	endbr64 
    6b0a:	55                   	push   %rbp
    6b0b:	48 89 e5             	mov    %rsp,%rbp
    6b0e:	48 89 7d f8          	mov    %rdi,-0x8(%rbp)
    6b12:	48 8b 45 f8          	mov    -0x8(%rbp),%rax
    6b16:	5d                   	pop    %rbp
    6b17:	c3                   	retq   

0000000000006b18 <_ZSt3getILm0EKmSt10shared_ptrIN15coroutine_mimic9CoroutineEEERKNSt13tuple_elementIXT_ESt4pairIT0_T1_EE4typeERKS9_>:
    6b18:	f3 0f 1e fa          	endbr64 
    6b1c:	55                   	push   %rbp
    6b1d:	48 89 e5             	mov    %rsp,%rbp
    6b20:	48 83 ec 10          	sub    $0x10,%rsp
    6b24:	48 89 7d f8          	mov    %rdi,-0x8(%rbp)
    6b28:	48 8b 45 f8          	mov    -0x8(%rbp),%rax
    6b2c:	48 89 c7             	mov    %rax,%rdi
    6b2f:	e8 b8 03 00 00       	callq  6eec <_ZNSt10__pair_getILm0EE11__const_getIKmSt10shared_ptrIN15coroutine_mimic9CoroutineEEEERKT_RKSt4pairIS7_T0_E>
    6b34:	c9                   	leaveq 
    6b35:	c3                   	retq   

0000000000006b36 <_ZNSt10_Head_baseILm1ESt14default_deleteIhELb1EE7_M_headERS2_>:
    6b36:	f3 0f 1e fa          	endbr64 
    6b3a:	55                   	push   %rbp
    6b3b:	48 89 e5             	mov    %rsp,%rbp
    6b3e:	48 89 7d f8          	mov    %rdi,-0x8(%rbp)
    6b42:	48 8b 45 f8          	mov    -0x8(%rbp),%rax
    6b46:	5d                   	pop    %rbp
    6b47:	c3                   	retq   

0000000000006b48 <_ZSt9addressofINSt8__detail10_Hash_nodeISt4pairIKmSt10shared_ptrIN15coroutine_mimic9CoroutineEEELb0EEEEPT_RSA_>:
    6b48:	f3 0f 1e fa          	endbr64 
    6b4c:	55                   	push   %rbp
    6b4d:	48 89 e5             	mov    %rsp,%rbp
    6b50:	48 83 ec 10          	sub    $0x10,%rsp
    6b54:	48 89 7d f8          	mov    %rdi,-0x8(%rbp)
    6b58:	48 8b 45 f8          	mov    -0x8(%rbp),%rax
    6b5c:	48 89 c7             	mov    %rax,%rdi
    6b5f:	e8 9a 03 00 00       	callq  6efe <_ZSt11__addressofINSt8__detail10_Hash_nodeISt4pairIKmSt10shared_ptrIN15coroutine_mimic9CoroutineEEELb0EEEEPT_RSA_>
    6b64:	c9                   	leaveq 
    6b65:	c3                   	retq   

0000000000006b66 <_ZSt11__addressofIPNSt8__detail15_Hash_node_baseEEPT_RS3_>:
    6b66:	f3 0f 1e fa          	endbr64 
    6b6a:	55                   	push   %rbp
    6b6b:	48 89 e5             	mov    %rsp,%rbp
    6b6e:	48 89 7d f8          	mov    %rdi,-0x8(%rbp)
    6b72:	48 8b 45 f8          	mov    -0x8(%rbp),%rax
    6b76:	5d                   	pop    %rbp
    6b77:	c3                   	retq   

0000000000006b78 <_ZN9__gnu_cxx13new_allocatorISt23_Sp_counted_ptr_inplaceIN15coroutine_mimic9CoroutineESaIS3_ELNS_12_Lock_policyE2EEEC1Ev>:
    6b78:	f3 0f 1e fa          	endbr64 
    6b7c:	55                   	push   %rbp
    6b7d:	48 89 e5             	mov    %rsp,%rbp
    6b80:	48 89 7d f8          	mov    %rdi,-0x8(%rbp)
    6b84:	90                   	nop
    6b85:	5d                   	pop    %rbp
    6b86:	c3                   	retq   
    6b87:	90                   	nop

0000000000006b88 <_ZN9__gnu_cxx13new_allocatorISt23_Sp_counted_ptr_inplaceIN15coroutine_mimic9CoroutineESaIS3_ELNS_12_Lock_policyE2EEED1Ev>:
    6b88:	f3 0f 1e fa          	endbr64 
    6b8c:	55                   	push   %rbp
    6b8d:	48 89 e5             	mov    %rsp,%rbp
    6b90:	48 89 7d f8          	mov    %rdi,-0x8(%rbp)
    6b94:	90                   	nop
    6b95:	5d                   	pop    %rbp
    6b96:	c3                   	retq   

0000000000006b97 <_ZNSt16allocator_traitsISaISt23_Sp_counted_ptr_inplaceIN15coroutine_mimic9CoroutineESaIS2_ELN9__gnu_cxx12_Lock_policyE2EEEE8allocateERS7_m>:
    6b97:	f3 0f 1e fa          	endbr64 
    6b9b:	55                   	push   %rbp
    6b9c:	48 89 e5             	mov    %rsp,%rbp
    6b9f:	48 83 ec 10          	sub    $0x10,%rsp
    6ba3:	48 89 7d f8          	mov    %rdi,-0x8(%rbp)
    6ba7:	48 89 75 f0          	mov    %rsi,-0x10(%rbp)
    6bab:	48 8b 4d f0          	mov    -0x10(%rbp),%rcx
    6baf:	48 8b 45 f8          	mov    -0x8(%rbp),%rax
    6bb3:	ba 00 00 00 00       	mov    $0x0,%edx
    6bb8:	48 89 ce             	mov    %rcx,%rsi
    6bbb:	48 89 c7             	mov    %rax,%rdi
    6bbe:	e8 4d 03 00 00       	callq  6f10 <_ZN9__gnu_cxx13new_allocatorISt23_Sp_counted_ptr_inplaceIN15coroutine_mimic9CoroutineESaIS3_ELNS_12_Lock_policyE2EEE8allocateEmPKv>
    6bc3:	c9                   	leaveq 
    6bc4:	c3                   	retq   
    6bc5:	90                   	nop

0000000000006bc6 <_ZNSt15__allocated_ptrISaISt23_Sp_counted_ptr_inplaceIN15coroutine_mimic9CoroutineESaIS2_ELN9__gnu_cxx12_Lock_policyE2EEEEC1ERS7_PS6_>:
    6bc6:	f3 0f 1e fa          	endbr64 
    6bca:	55                   	push   %rbp
    6bcb:	48 89 e5             	mov    %rsp,%rbp
    6bce:	48 83 ec 20          	sub    $0x20,%rsp
    6bd2:	48 89 7d f8          	mov    %rdi,-0x8(%rbp)
    6bd6:	48 89 75 f0          	mov    %rsi,-0x10(%rbp)
    6bda:	48 89 55 e8          	mov    %rdx,-0x18(%rbp)
    6bde:	48 8b 45 f0          	mov    -0x10(%rbp),%rax
    6be2:	48 89 c7             	mov    %rax,%rdi
    6be5:	e8 70 03 00 00       	callq  6f5a <_ZSt11__addressofISaISt23_Sp_counted_ptr_inplaceIN15coroutine_mimic9CoroutineESaIS2_ELN9__gnu_cxx12_Lock_policyE2EEEEPT_RS8_>
    6bea:	48 8b 55 f8          	mov    -0x8(%rbp),%rdx
    6bee:	48 89 02             	mov    %rax,(%rdx)
    6bf1:	48 8b 45 f8          	mov    -0x8(%rbp),%rax
    6bf5:	48 8b 55 e8          	mov    -0x18(%rbp),%rdx
    6bf9:	48 89 50 08          	mov    %rdx,0x8(%rax)
    6bfd:	90                   	nop
    6bfe:	c9                   	leaveq 
    6bff:	c3                   	retq   

0000000000006c00 <_ZNSt16allocator_traitsISaISt23_Sp_counted_ptr_inplaceIN15coroutine_mimic9CoroutineESaIS2_ELN9__gnu_cxx12_Lock_policyE2EEEE10deallocateERS7_PS6_m>:
    6c00:	f3 0f 1e fa          	endbr64 
    6c04:	55                   	push   %rbp
    6c05:	48 89 e5             	mov    %rsp,%rbp
    6c08:	48 83 ec 20          	sub    $0x20,%rsp
    6c0c:	48 89 7d f8          	mov    %rdi,-0x8(%rbp)
    6c10:	48 89 75 f0          	mov    %rsi,-0x10(%rbp)
    6c14:	48 89 55 e8          	mov    %rdx,-0x18(%rbp)
    6c18:	48 8b 55 e8          	mov    -0x18(%rbp),%rdx
    6c1c:	48 8b 4d f0          	mov    -0x10(%rbp),%rcx
    6c20:	48 8b 45 f8          	mov    -0x8(%rbp),%rax
    6c24:	48 89 ce             	mov    %rcx,%rsi
    6c27:	48 89 c7             	mov    %rax,%rdi
    6c2a:	e8 3d 03 00 00       	callq  6f6c <_ZN9__gnu_cxx13new_allocatorISt23_Sp_counted_ptr_inplaceIN15coroutine_mimic9CoroutineESaIS3_ELNS_12_Lock_policyE2EEE10deallocateEPS6_m>
    6c2f:	90                   	nop
    6c30:	c9                   	leaveq 
    6c31:	c3                   	retq   

0000000000006c32 <_ZSt12__to_addressISt23_Sp_counted_ptr_inplaceIN15coroutine_mimic9CoroutineESaIS2_ELN9__gnu_cxx12_Lock_policyE2EEEPT_S8_>:
    6c32:	f3 0f 1e fa          	endbr64 
    6c36:	55                   	push   %rbp
    6c37:	48 89 e5             	mov    %rsp,%rbp
    6c3a:	48 89 7d f8          	mov    %rdi,-0x8(%rbp)
    6c3e:	48 8b 45 f8          	mov    -0x8(%rbp),%rax
    6c42:	5d                   	pop    %rbp
    6c43:	c3                   	retq   

0000000000006c44 <_ZN9__gnu_cxx13new_allocatorIN15coroutine_mimic9CoroutineEEC1ERKS3_>:
    6c44:	f3 0f 1e fa          	endbr64 
    6c48:	55                   	push   %rbp
    6c49:	48 89 e5             	mov    %rsp,%rbp
    6c4c:	48 89 7d f8          	mov    %rdi,-0x8(%rbp)
    6c50:	48 89 75 f0          	mov    %rsi,-0x10(%rbp)
    6c54:	90                   	nop
    6c55:	5d                   	pop    %rbp
    6c56:	c3                   	retq   
    6c57:	90                   	nop

0000000000006c58 <_ZNSt16_Sp_counted_baseILN9__gnu_cxx12_Lock_policyE2EEC1Ev>:
    6c58:	f3 0f 1e fa          	endbr64 
    6c5c:	55                   	push   %rbp
    6c5d:	48 89 e5             	mov    %rsp,%rbp
    6c60:	48 89 7d f8          	mov    %rdi,-0x8(%rbp)
    6c64:	48 8d 15 c5 8e 00 00 	lea    0x8ec5(%rip),%rdx        # fb30 <_ZTVSt16_Sp_counted_baseILN9__gnu_cxx12_Lock_policyE2EE+0x10>
    6c6b:	48 8b 45 f8          	mov    -0x8(%rbp),%rax
    6c6f:	48 89 10             	mov    %rdx,(%rax)
    6c72:	48 8b 45 f8          	mov    -0x8(%rbp),%rax
    6c76:	c7 40 08 01 00 00 00 	movl   $0x1,0x8(%rax)
    6c7d:	48 8b 45 f8          	mov    -0x8(%rbp),%rax
    6c81:	c7 40 0c 01 00 00 00 	movl   $0x1,0xc(%rax)
    6c88:	90                   	nop
    6c89:	5d                   	pop    %rbp
    6c8a:	c3                   	retq   
    6c8b:	90                   	nop

0000000000006c8c <_ZNSt23_Sp_counted_ptr_inplaceIN15coroutine_mimic9CoroutineESaIS1_ELN9__gnu_cxx12_Lock_policyE2EE5_ImplC1ES2_>:
    6c8c:	f3 0f 1e fa          	endbr64 
    6c90:	55                   	push   %rbp
    6c91:	48 89 e5             	mov    %rsp,%rbp
    6c94:	48 83 ec 10          	sub    $0x10,%rsp
    6c98:	48 89 7d f8          	mov    %rdi,-0x8(%rbp)
    6c9c:	48 89 75 f0          	mov    %rsi,-0x10(%rbp)
    6ca0:	48 8b 55 f0          	mov    -0x10(%rbp),%rdx
    6ca4:	48 8b 45 f8          	mov    -0x8(%rbp),%rax
    6ca8:	48 89 d6             	mov    %rdx,%rsi
    6cab:	48 89 c7             	mov    %rax,%rdi
    6cae:	e8 df 02 00 00       	callq  6f92 <_ZNSt14_Sp_ebo_helperILi0ESaIN15coroutine_mimic9CoroutineEELb1EEC1ERKS2_>
    6cb3:	90                   	nop
    6cb4:	c9                   	leaveq 
    6cb5:	c3                   	retq   

0000000000006cb6 <_ZNSt16allocator_traitsISaIN15coroutine_mimic9CoroutineEEE9constructIS1_JPNS0_9SchedulerERSt8functionIFvS6_St3anyEERS8_EEEvRS2_PT_DpOT0_>:
    6cb6:	f3 0f 1e fa          	endbr64 
    6cba:	55                   	push   %rbp
    6cbb:	48 89 e5             	mov    %rsp,%rbp
    6cbe:	41 54                	push   %r12
    6cc0:	53                   	push   %rbx
    6cc1:	48 83 ec 30          	sub    $0x30,%rsp
    6cc5:	48 89 7d e8          	mov    %rdi,-0x18(%rbp)
    6cc9:	48 89 75 e0          	mov    %rsi,-0x20(%rbp)
    6ccd:	48 89 55 d8          	mov    %rdx,-0x28(%rbp)
    6cd1:	48 89 4d d0          	mov    %rcx,-0x30(%rbp)
    6cd5:	4c 89 45 c8          	mov    %r8,-0x38(%rbp)
    6cd9:	48 8b 45 c8          	mov    -0x38(%rbp),%rax
    6cdd:	48 89 c7             	mov    %rax,%rdi
    6ce0:	e8 f8 d9 ff ff       	callq  46dd <_ZSt7forwardIRSt3anyEOT_RNSt16remove_referenceIS2_E4typeE>
    6ce5:	49 89 c4             	mov    %rax,%r12
    6ce8:	48 8b 45 d0          	mov    -0x30(%rbp),%rax
    6cec:	48 89 c7             	mov    %rax,%rdi
    6cef:	e8 d7 d9 ff ff       	callq  46cb <_ZSt7forwardIRSt8functionIFvPN15coroutine_mimic9SchedulerESt3anyEEEOT_RNSt16remove_referenceIS8_E4typeE>
    6cf4:	48 89 c3             	mov    %rax,%rbx
    6cf7:	48 8b 45 d8          	mov    -0x28(%rbp),%rax
    6cfb:	48 89 c7             	mov    %rax,%rdi
    6cfe:	e8 b6 d9 ff ff       	callq  46b9 <_ZSt7forwardIPN15coroutine_mimic9SchedulerEEOT_RNSt16remove_referenceIS3_E4typeE>
    6d03:	48 89 c2             	mov    %rax,%rdx
    6d06:	48 8b 75 e0          	mov    -0x20(%rbp),%rsi
    6d0a:	48 8b 45 e8          	mov    -0x18(%rbp),%rax
    6d0e:	4d 89 e0             	mov    %r12,%r8
    6d11:	48 89 d9             	mov    %rbx,%rcx
    6d14:	48 89 c7             	mov    %rax,%rdi
    6d17:	e8 a0 02 00 00       	callq  6fbc <_ZN9__gnu_cxx13new_allocatorIN15coroutine_mimic9CoroutineEE9constructIS2_JPNS1_9SchedulerERSt8functionIFvS6_St3anyEERS8_EEEvPT_DpOT0_>
    6d1c:	90                   	nop
    6d1d:	48 83 c4 30          	add    $0x30,%rsp
    6d21:	5b                   	pop    %rbx
    6d22:	41 5c                	pop    %r12
    6d24:	5d                   	pop    %rbp
    6d25:	c3                   	retq   

0000000000006d26 <_ZN9__gnu_cxx16__aligned_bufferIN15coroutine_mimic9CoroutineEE6_M_ptrEv>:
    6d26:	f3 0f 1e fa          	endbr64 
    6d2a:	55                   	push   %rbp
    6d2b:	48 89 e5             	mov    %rsp,%rbp
    6d2e:	48 83 ec 10          	sub    $0x10,%rsp
    6d32:	48 89 7d f8          	mov    %rdi,-0x8(%rbp)
    6d36:	48 8b 45 f8          	mov    -0x8(%rbp),%rax
    6d3a:	48 89 c7             	mov    %rax,%rdi
    6d3d:	e8 bc 03 00 00       	callq  70fe <_ZN9__gnu_cxx16__aligned_bufferIN15coroutine_mimic9CoroutineEE7_M_addrEv>
    6d42:	c9                   	leaveq 
    6d43:	c3                   	retq   

0000000000006d44 <_ZNKSt8equal_toImEclERKmS2_>:
    6d44:	f3 0f 1e fa          	endbr64 
    6d48:	55                   	push   %rbp
    6d49:	48 89 e5             	mov    %rsp,%rbp
    6d4c:	48 89 7d f8          	mov    %rdi,-0x8(%rbp)
    6d50:	48 89 75 f0          	mov    %rsi,-0x10(%rbp)
    6d54:	48 89 55 e8          	mov    %rdx,-0x18(%rbp)
    6d58:	48 8b 45 f0          	mov    -0x10(%rbp),%rax
    6d5c:	48 8b 10             	mov    (%rax),%rdx
    6d5f:	48 8b 45 e8          	mov    -0x18(%rbp),%rax
    6d63:	48 8b 00             	mov    (%rax),%rax
    6d66:	48 39 c2             	cmp    %rax,%rdx
    6d69:	0f 94 c0             	sete   %al
    6d6c:	5d                   	pop    %rbp
    6d6d:	c3                   	retq   

0000000000006d6e <_ZNSt8__detail21_Hashtable_ebo_helperILi0ESt8equal_toImELb1EE7_S_cgetERKS3_>:
    6d6e:	f3 0f 1e fa          	endbr64 
    6d72:	55                   	push   %rbp
    6d73:	48 89 e5             	mov    %rsp,%rbp
    6d76:	48 89 7d f8          	mov    %rdi,-0x8(%rbp)
    6d7a:	48 8b 45 f8          	mov    -0x8(%rbp),%rax
    6d7e:	5d                   	pop    %rbp
    6d7f:	c3                   	retq   

0000000000006d80 <_ZNSt11_Tuple_implILm0EJRKmEE7_M_headERS2_>:
    6d80:	f3 0f 1e fa          	endbr64 
    6d84:	55                   	push   %rbp
    6d85:	48 89 e5             	mov    %rsp,%rbp
    6d88:	48 83 ec 10          	sub    $0x10,%rsp
    6d8c:	48 89 7d f8          	mov    %rdi,-0x8(%rbp)
    6d90:	48 8b 45 f8          	mov    -0x8(%rbp),%rax
    6d94:	48 89 c7             	mov    %rax,%rdi
    6d97:	e8 74 03 00 00       	callq  7110 <_ZNSt10_Head_baseILm0ERKmLb0EE7_M_headERS2_>
    6d9c:	c9                   	leaveq 
    6d9d:	c3                   	retq   

0000000000006d9e <_ZSt7forwardIRKmEOT_RNSt16remove_referenceIS2_E4typeE>:
    6d9e:	f3 0f 1e fa          	endbr64 
    6da2:	55                   	push   %rbp
    6da3:	48 89 e5             	mov    %rsp,%rbp
    6da6:	48 89 7d f8          	mov    %rdi,-0x8(%rbp)
    6daa:	48 8b 45 f8          	mov    -0x8(%rbp),%rax
    6dae:	5d                   	pop    %rbp
    6daf:	c3                   	retq   

0000000000006db0 <_ZNSt4pairIKmSt10shared_ptrIN15coroutine_mimic9CoroutineEEEC1IJRS0_EJLm0EEJEJEEERSt5tupleIJDpT_EERS8_IJDpT1_EESt12_Index_tupleIJXspT0_EEESH_IJXspT2_EEE>:
    6db0:	f3 0f 1e fa          	endbr64 
    6db4:	55                   	push   %rbp
    6db5:	48 89 e5             	mov    %rsp,%rbp
    6db8:	48 83 ec 20          	sub    $0x20,%rsp
    6dbc:	48 89 7d f8          	mov    %rdi,-0x8(%rbp)
    6dc0:	48 89 75 f0          	mov    %rsi,-0x10(%rbp)
    6dc4:	48 89 55 e8          	mov    %rdx,-0x18(%rbp)
    6dc8:	48 8b 45 f0          	mov    -0x10(%rbp),%rax
    6dcc:	48 89 c7             	mov    %rax,%rdi
    6dcf:	e8 51 03 00 00       	callq  7125 <_ZSt3getILm0EJRKmEERNSt13tuple_elementIXT_ESt5tupleIJDpT0_EEE4typeERS6_>
    6dd4:	48 89 c7             	mov    %rax,%rdi
    6dd7:	e8 c2 ff ff ff       	callq  6d9e <_ZSt7forwardIRKmEOT_RNSt16remove_referenceIS2_E4typeE>
    6ddc:	48 8b 10             	mov    (%rax),%rdx
    6ddf:	48 8b 45 f8          	mov    -0x8(%rbp),%rax
    6de3:	48 89 10             	mov    %rdx,(%rax)
    6de6:	48 8b 45 f8          	mov    -0x8(%rbp),%rax
    6dea:	48 83 c0 08          	add    $0x8,%rax
    6dee:	48 89 c7             	mov    %rax,%rdi
    6df1:	e8 4e 03 00 00       	callq  7144 <_ZNSt10shared_ptrIN15coroutine_mimic9CoroutineEEC1Ev>
    6df6:	90                   	nop
    6df7:	c9                   	leaveq 
    6df8:	c3                   	retq   
    6df9:	90                   	nop

0000000000006dfa <_ZNSt8__detail16_Hashtable_allocISaINS_10_Hash_nodeISt4pairIKmSt10shared_ptrIN15coroutine_mimic9CoroutineEEELb0EEEEE19_M_allocate_bucketsEm>:
    6dfa:	f3 0f 1e fa          	endbr64 
    6dfe:	55                   	push   %rbp
    6dff:	48 89 e5             	mov    %rsp,%rbp
    6e02:	53                   	push   %rbx
    6e03:	48 83 ec 38          	sub    $0x38,%rsp
    6e07:	48 89 7d c8          	mov    %rdi,-0x38(%rbp)
    6e0b:	48 89 75 c0          	mov    %rsi,-0x40(%rbp)
    6e0f:	64 48 8b 04 25 28 00 	mov    %fs:0x28,%rax
    6e16:	00 00 
    6e18:	48 89 45 e8          	mov    %rax,-0x18(%rbp)
    6e1c:	31 c0                	xor    %eax,%eax
    6e1e:	48 8b 45 c8          	mov    -0x38(%rbp),%rax
    6e22:	48 89 c7             	mov    %rax,%rdi
    6e25:	e8 c6 e9 ff ff       	callq  57f0 <_ZNSt8__detail16_Hashtable_allocISaINS_10_Hash_nodeISt4pairIKmSt10shared_ptrIN15coroutine_mimic9CoroutineEEELb0EEEEE17_M_node_allocatorEv>
    6e2a:	48 89 c2             	mov    %rax,%rdx
    6e2d:	48 8d 45 d7          	lea    -0x29(%rbp),%rax
    6e31:	48 89 d6             	mov    %rdx,%rsi
    6e34:	48 89 c7             	mov    %rax,%rdi
    6e37:	e8 84 f0 ff ff       	callq  5ec0 <_ZNSaIPNSt8__detail15_Hash_node_baseEEC1INS_10_Hash_nodeISt4pairIKmSt10shared_ptrIN15coroutine_mimic9CoroutineEEELb0EEEEERKSaIT_E>
    6e3c:	48 8b 55 c0          	mov    -0x40(%rbp),%rdx
    6e40:	48 8d 45 d7          	lea    -0x29(%rbp),%rax
    6e44:	48 89 d6             	mov    %rdx,%rsi
    6e47:	48 89 c7             	mov    %rax,%rdi
    6e4a:	e8 14 03 00 00       	callq  7163 <_ZNSt16allocator_traitsISaIPNSt8__detail15_Hash_node_baseEEE8allocateERS3_m>
    6e4f:	48 89 45 d8          	mov    %rax,-0x28(%rbp)
    6e53:	48 8b 45 d8          	mov    -0x28(%rbp),%rax
    6e57:	48 89 c7             	mov    %rax,%rdi
    6e5a:	e8 32 03 00 00       	callq  7191 <_ZSt12__to_addressIPNSt8__detail15_Hash_node_baseEEPT_S4_>
    6e5f:	48 89 45 e0          	mov    %rax,-0x20(%rbp)
    6e63:	48 8b 45 c0          	mov    -0x40(%rbp),%rax
    6e67:	48 8d 14 c5 00 00 00 	lea    0x0(,%rax,8),%rdx
    6e6e:	00 
    6e6f:	48 8b 45 e0          	mov    -0x20(%rbp),%rax
    6e73:	be 00 00 00 00       	mov    $0x0,%esi
    6e78:	48 89 c7             	mov    %rax,%rdi
    6e7b:	e8 50 b5 ff ff       	callq  23d0 <memset@plt>
    6e80:	48 8b 5d e0          	mov    -0x20(%rbp),%rbx
    6e84:	48 8d 45 d7          	lea    -0x29(%rbp),%rax
    6e88:	48 89 c7             	mov    %rax,%rdi
    6e8b:	e8 54 f0 ff ff       	callq  5ee4 <_ZNSaIPNSt8__detail15_Hash_node_baseEED1Ev>
    6e90:	48 89 d8             	mov    %rbx,%rax
    6e93:	48 8b 4d e8          	mov    -0x18(%rbp),%rcx
    6e97:	64 48 33 0c 25 28 00 	xor    %fs:0x28,%rcx
    6e9e:	00 00 
    6ea0:	74 25                	je     6ec7 <_ZNSt8__detail16_Hashtable_allocISaINS_10_Hash_nodeISt4pairIKmSt10shared_ptrIN15coroutine_mimic9CoroutineEEELb0EEEEE19_M_allocate_bucketsEm+0xcd>
    6ea2:	eb 1e                	jmp    6ec2 <_ZNSt8__detail16_Hashtable_allocISaINS_10_Hash_nodeISt4pairIKmSt10shared_ptrIN15coroutine_mimic9CoroutineEEELb0EEEEE19_M_allocate_bucketsEm+0xc8>
    6ea4:	f3 0f 1e fa          	endbr64 
    6ea8:	48 89 c3             	mov    %rax,%rbx
    6eab:	48 8d 45 d7          	lea    -0x29(%rbp),%rax
    6eaf:	48 89 c7             	mov    %rax,%rdi
    6eb2:	e8 2d f0 ff ff       	callq  5ee4 <_ZNSaIPNSt8__detail15_Hash_node_baseEED1Ev>
    6eb7:	48 89 d8             	mov    %rbx,%rax
    6eba:	48 89 c7             	mov    %rax,%rdi
    6ebd:	e8 de b6 ff ff       	callq  25a0 <_Unwind_Resume@plt>
    6ec2:	e8 29 b6 ff ff       	callq  24f0 <__stack_chk_fail@plt>
    6ec7:	48 83 c4 38          	add    $0x38,%rsp
    6ecb:	5b                   	pop    %rbx
    6ecc:	5d                   	pop    %rbp
    6ecd:	c3                   	retq   

0000000000006ece <_ZNK9__gnu_cxx16__aligned_bufferISt4pairIKmSt10shared_ptrIN15coroutine_mimic9CoroutineEEEE6_M_ptrEv>:
    6ece:	f3 0f 1e fa          	endbr64 
    6ed2:	55                   	push   %rbp
    6ed3:	48 89 e5             	mov    %rsp,%rbp
    6ed6:	48 83 ec 10          	sub    $0x10,%rsp
    6eda:	48 89 7d f8          	mov    %rdi,-0x8(%rbp)
    6ede:	48 8b 45 f8          	mov    -0x8(%rbp),%rax
    6ee2:	48 89 c7             	mov    %rax,%rdi
    6ee5:	e8 ba 02 00 00       	callq  71a4 <_ZNK9__gnu_cxx16__aligned_bufferISt4pairIKmSt10shared_ptrIN15coroutine_mimic9CoroutineEEEE7_M_addrEv>
    6eea:	c9                   	leaveq 
    6eeb:	c3                   	retq   

0000000000006eec <_ZNSt10__pair_getILm0EE11__const_getIKmSt10shared_ptrIN15coroutine_mimic9CoroutineEEEERKT_RKSt4pairIS7_T0_E>:
    6eec:	f3 0f 1e fa          	endbr64 
    6ef0:	55                   	push   %rbp
    6ef1:	48 89 e5             	mov    %rsp,%rbp
    6ef4:	48 89 7d f8          	mov    %rdi,-0x8(%rbp)
    6ef8:	48 8b 45 f8          	mov    -0x8(%rbp),%rax
    6efc:	5d                   	pop    %rbp
    6efd:	c3                   	retq   

0000000000006efe <_ZSt11__addressofINSt8__detail10_Hash_nodeISt4pairIKmSt10shared_ptrIN15coroutine_mimic9CoroutineEEELb0EEEEPT_RSA_>:
    6efe:	f3 0f 1e fa          	endbr64 
    6f02:	55                   	push   %rbp
    6f03:	48 89 e5             	mov    %rsp,%rbp
    6f06:	48 89 7d f8          	mov    %rdi,-0x8(%rbp)
    6f0a:	48 8b 45 f8          	mov    -0x8(%rbp),%rax
    6f0e:	5d                   	pop    %rbp
    6f0f:	c3                   	retq   

0000000000006f10 <_ZN9__gnu_cxx13new_allocatorISt23_Sp_counted_ptr_inplaceIN15coroutine_mimic9CoroutineESaIS3_ELNS_12_Lock_policyE2EEE8allocateEmPKv>:
    6f10:	f3 0f 1e fa          	endbr64 
    6f14:	55                   	push   %rbp
    6f15:	48 89 e5             	mov    %rsp,%rbp
    6f18:	48 83 ec 20          	sub    $0x20,%rsp
    6f1c:	48 89 7d f8          	mov    %rdi,-0x8(%rbp)
    6f20:	48 89 75 f0          	mov    %rsi,-0x10(%rbp)
    6f24:	48 89 55 e8          	mov    %rdx,-0x18(%rbp)
    6f28:	48 8b 45 f8          	mov    -0x8(%rbp),%rax
    6f2c:	48 89 c7             	mov    %rax,%rdi
    6f2f:	e8 82 02 00 00       	callq  71b6 <_ZNK9__gnu_cxx13new_allocatorISt23_Sp_counted_ptr_inplaceIN15coroutine_mimic9CoroutineESaIS3_ELNS_12_Lock_policyE2EEE8max_sizeEv>
    6f34:	48 39 45 f0          	cmp    %rax,-0x10(%rbp)
    6f38:	0f 97 c0             	seta   %al
    6f3b:	84 c0                	test   %al,%al
    6f3d:	74 05                	je     6f44 <_ZN9__gnu_cxx13new_allocatorISt23_Sp_counted_ptr_inplaceIN15coroutine_mimic9CoroutineESaIS3_ELNS_12_Lock_policyE2EEE8allocateEmPKv+0x34>
    6f3f:	e8 2c b4 ff ff       	callq  2370 <_ZSt17__throw_bad_allocv@plt>
    6f44:	48 8b 45 f0          	mov    -0x10(%rbp),%rax
    6f48:	48 69 c0 50 04 00 00 	imul   $0x450,%rax,%rax
    6f4f:	48 89 c7             	mov    %rax,%rdi
    6f52:	e8 39 b5 ff ff       	callq  2490 <_Znwm@plt>
    6f57:	90                   	nop
    6f58:	c9                   	leaveq 
    6f59:	c3                   	retq   

0000000000006f5a <_ZSt11__addressofISaISt23_Sp_counted_ptr_inplaceIN15coroutine_mimic9CoroutineESaIS2_ELN9__gnu_cxx12_Lock_policyE2EEEEPT_RS8_>:
    6f5a:	f3 0f 1e fa          	endbr64 
    6f5e:	55                   	push   %rbp
    6f5f:	48 89 e5             	mov    %rsp,%rbp
    6f62:	48 89 7d f8          	mov    %rdi,-0x8(%rbp)
    6f66:	48 8b 45 f8          	mov    -0x8(%rbp),%rax
    6f6a:	5d                   	pop    %rbp
    6f6b:	c3                   	retq   

0000000000006f6c <_ZN9__gnu_cxx13new_allocatorISt23_Sp_counted_ptr_inplaceIN15coroutine_mimic9CoroutineESaIS3_ELNS_12_Lock_policyE2EEE10deallocateEPS6_m>:
    6f6c:	f3 0f 1e fa          	endbr64 
    6f70:	55                   	push   %rbp
    6f71:	48 89 e5             	mov    %rsp,%rbp
    6f74:	48 83 ec 20          	sub    $0x20,%rsp
    6f78:	48 89 7d f8          	mov    %rdi,-0x8(%rbp)
    6f7c:	48 89 75 f0          	mov    %rsi,-0x10(%rbp)
    6f80:	48 89 55 e8          	mov    %rdx,-0x18(%rbp)
    6f84:	48 8b 45 f0          	mov    -0x10(%rbp),%rax
    6f88:	48 89 c7             	mov    %rax,%rdi
    6f8b:	e8 e0 b4 ff ff       	callq  2470 <_ZdlPv@plt>
    6f90:	c9                   	leaveq 
    6f91:	c3                   	retq   

0000000000006f92 <_ZNSt14_Sp_ebo_helperILi0ESaIN15coroutine_mimic9CoroutineEELb1EEC1ERKS2_>:
    6f92:	f3 0f 1e fa          	endbr64 
    6f96:	55                   	push   %rbp
    6f97:	48 89 e5             	mov    %rsp,%rbp
    6f9a:	48 83 ec 10          	sub    $0x10,%rsp
    6f9e:	48 89 7d f8          	mov    %rdi,-0x8(%rbp)
    6fa2:	48 89 75 f0          	mov    %rsi,-0x10(%rbp)
    6fa6:	48 8b 55 f0          	mov    -0x10(%rbp),%rdx
    6faa:	48 8b 45 f8          	mov    -0x8(%rbp),%rax
    6fae:	48 89 d6             	mov    %rdx,%rsi
    6fb1:	48 89 c7             	mov    %rax,%rdi
    6fb4:	e8 d9 f7 ff ff       	callq  6792 <_ZNSaIN15coroutine_mimic9CoroutineEEC1ERKS1_>
    6fb9:	90                   	nop
    6fba:	c9                   	leaveq 
    6fbb:	c3                   	retq   

0000000000006fbc <_ZN9__gnu_cxx13new_allocatorIN15coroutine_mimic9CoroutineEE9constructIS2_JPNS1_9SchedulerERSt8functionIFvS6_St3anyEERS8_EEEvPT_DpOT0_>:
    6fbc:	f3 0f 1e fa          	endbr64 
    6fc0:	55                   	push   %rbp
    6fc1:	48 89 e5             	mov    %rsp,%rbp
    6fc4:	41 57                	push   %r15
    6fc6:	41 56                	push   %r14
    6fc8:	41 55                	push   %r13
    6fca:	41 54                	push   %r12
    6fcc:	53                   	push   %rbx
    6fcd:	48 83 ec 78          	sub    $0x78,%rsp
    6fd1:	48 89 7d 88          	mov    %rdi,-0x78(%rbp)
    6fd5:	48 89 75 80          	mov    %rsi,-0x80(%rbp)
    6fd9:	48 89 95 78 ff ff ff 	mov    %rdx,-0x88(%rbp)
    6fe0:	48 89 8d 70 ff ff ff 	mov    %rcx,-0x90(%rbp)
    6fe7:	4c 89 85 68 ff ff ff 	mov    %r8,-0x98(%rbp)
    6fee:	64 48 8b 04 25 28 00 	mov    %fs:0x28,%rax
    6ff5:	00 00 
    6ff7:	48 89 45 c8          	mov    %rax,-0x38(%rbp)
    6ffb:	31 c0                	xor    %eax,%eax
    6ffd:	48 8b 85 78 ff ff ff 	mov    -0x88(%rbp),%rax
    7004:	48 89 c7             	mov    %rax,%rdi
    7007:	e8 ad d6 ff ff       	callq  46b9 <_ZSt7forwardIPN15coroutine_mimic9SchedulerEEOT_RNSt16remove_referenceIS3_E4typeE>
    700c:	4c 8b 28             	mov    (%rax),%r13
    700f:	48 8b 85 70 ff ff ff 	mov    -0x90(%rbp),%rax
    7016:	48 89 c7             	mov    %rax,%rdi
    7019:	e8 ad d6 ff ff       	callq  46cb <_ZSt7forwardIRSt8functionIFvPN15coroutine_mimic9SchedulerESt3anyEEEOT_RNSt16remove_referenceIS8_E4typeE>
    701e:	48 89 c2             	mov    %rax,%rdx
    7021:	48 8d 45 a0          	lea    -0x60(%rbp),%rax
    7025:	48 89 d6             	mov    %rdx,%rsi
    7028:	48 89 c7             	mov    %rax,%rdi
    702b:	e8 24 ce ff ff       	callq  3e54 <_ZNSt8functionIFvPN15coroutine_mimic9SchedulerESt3anyEEC1ERKS5_>
    7030:	4c 8d 75 a0          	lea    -0x60(%rbp),%r14
    7034:	48 8b 85 68 ff ff ff 	mov    -0x98(%rbp),%rax
    703b:	48 89 c7             	mov    %rax,%rdi
    703e:	e8 9a d6 ff ff       	callq  46dd <_ZSt7forwardIRSt3anyEOT_RNSt16remove_referenceIS2_E4typeE>
    7043:	48 89 c2             	mov    %rax,%rdx
    7046:	48 8d 45 90          	lea    -0x70(%rbp),%rax
    704a:	48 89 d6             	mov    %rdx,%rsi
    704d:	48 89 c7             	mov    %rax,%rdi
    7050:	e8 67 c7 ff ff       	callq  37bc <_ZNSt3anyC1ERKS_>
    7055:	4c 8d 7d 90          	lea    -0x70(%rbp),%r15
    7059:	48 8b 5d 80          	mov    -0x80(%rbp),%rbx
    705d:	48 89 de             	mov    %rbx,%rsi
    7060:	bf 40 04 00 00       	mov    $0x440,%edi
    7065:	e8 63 c4 ff ff       	callq  34cd <_ZnwmPv>
    706a:	49 89 c4             	mov    %rax,%r12
    706d:	4c 89 f9             	mov    %r15,%rcx
    7070:	4c 89 f2             	mov    %r14,%rdx
    7073:	4c 89 ee             	mov    %r13,%rsi
    7076:	4c 89 e7             	mov    %r12,%rdi
    7079:	e8 6c b6 ff ff       	callq  26ea <_ZN15coroutine_mimic9CoroutineC1EPNS_9SchedulerESt8functionIFvS2_St3anyEES4_>
    707e:	48 8d 45 90          	lea    -0x70(%rbp),%rax
    7082:	48 89 c7             	mov    %rax,%rdi
    7085:	e8 be c7 ff ff       	callq  3848 <_ZNSt3anyD1Ev>
    708a:	48 8d 45 a0          	lea    -0x60(%rbp),%rax
    708e:	48 89 c7             	mov    %rax,%rdi
    7091:	e8 4e c8 ff ff       	callq  38e4 <_ZNSt8functionIFvPN15coroutine_mimic9SchedulerESt3anyEED1Ev>
    7096:	90                   	nop
    7097:	48 8b 45 c8          	mov    -0x38(%rbp),%rax
    709b:	64 48 33 04 25 28 00 	xor    %fs:0x28,%rax
    70a2:	00 00 
    70a4:	74 48                	je     70ee <_ZN9__gnu_cxx13new_allocatorIN15coroutine_mimic9CoroutineEE9constructIS2_JPNS1_9SchedulerERSt8functionIFvS6_St3anyEERS8_EEEvPT_DpOT0_+0x132>
    70a6:	eb 41                	jmp    70e9 <_ZN9__gnu_cxx13new_allocatorIN15coroutine_mimic9CoroutineEE9constructIS2_JPNS1_9SchedulerERSt8functionIFvS6_St3anyEERS8_EEEvPT_DpOT0_+0x12d>
    70a8:	f3 0f 1e fa          	endbr64 
    70ac:	49 89 c5             	mov    %rax,%r13
    70af:	48 89 de             	mov    %rbx,%rsi
    70b2:	4c 89 e7             	mov    %r12,%rdi
    70b5:	e8 29 c4 ff ff       	callq  34e3 <_ZdlPvS_>
    70ba:	4c 89 eb             	mov    %r13,%rbx
    70bd:	48 8d 45 90          	lea    -0x70(%rbp),%rax
    70c1:	48 89 c7             	mov    %rax,%rdi
    70c4:	e8 7f c7 ff ff       	callq  3848 <_ZNSt3anyD1Ev>
    70c9:	eb 07                	jmp    70d2 <_ZN9__gnu_cxx13new_allocatorIN15coroutine_mimic9CoroutineEE9constructIS2_JPNS1_9SchedulerERSt8functionIFvS6_St3anyEERS8_EEEvPT_DpOT0_+0x116>
    70cb:	f3 0f 1e fa          	endbr64 
    70cf:	48 89 c3             	mov    %rax,%rbx
    70d2:	48 8d 45 a0          	lea    -0x60(%rbp),%rax
    70d6:	48 89 c7             	mov    %rax,%rdi
    70d9:	e8 06 c8 ff ff       	callq  38e4 <_ZNSt8functionIFvPN15coroutine_mimic9SchedulerESt3anyEED1Ev>
    70de:	48 89 d8             	mov    %rbx,%rax
    70e1:	48 89 c7             	mov    %rax,%rdi
    70e4:	e8 b7 b4 ff ff       	callq  25a0 <_Unwind_Resume@plt>
    70e9:	e8 02 b4 ff ff       	callq  24f0 <__stack_chk_fail@plt>
    70ee:	48 83 c4 78          	add    $0x78,%rsp
    70f2:	5b                   	pop    %rbx
    70f3:	41 5c                	pop    %r12
    70f5:	41 5d                	pop    %r13
    70f7:	41 5e                	pop    %r14
    70f9:	41 5f                	pop    %r15
    70fb:	5d                   	pop    %rbp
    70fc:	c3                   	retq   
    70fd:	90                   	nop

00000000000070fe <_ZN9__gnu_cxx16__aligned_bufferIN15coroutine_mimic9CoroutineEE7_M_addrEv>:
    70fe:	f3 0f 1e fa          	endbr64 
    7102:	55                   	push   %rbp
    7103:	48 89 e5             	mov    %rsp,%rbp
    7106:	48 89 7d f8          	mov    %rdi,-0x8(%rbp)
    710a:	48 8b 45 f8          	mov    -0x8(%rbp),%rax
    710e:	5d                   	pop    %rbp
    710f:	c3                   	retq   

0000000000007110 <_ZNSt10_Head_baseILm0ERKmLb0EE7_M_headERS2_>:
    7110:	f3 0f 1e fa          	endbr64 
    7114:	55                   	push   %rbp
    7115:	48 89 e5             	mov    %rsp,%rbp
    7118:	48 89 7d f8          	mov    %rdi,-0x8(%rbp)
    711c:	48 8b 45 f8          	mov    -0x8(%rbp),%rax
    7120:	48 8b 00             	mov    (%rax),%rax
    7123:	5d                   	pop    %rbp
    7124:	c3                   	retq   

0000000000007125 <_ZSt3getILm0EJRKmEERNSt13tuple_elementIXT_ESt5tupleIJDpT0_EEE4typeERS6_>:
    7125:	f3 0f 1e fa          	endbr64 
    7129:	55                   	push   %rbp
    712a:	48 89 e5             	mov    %rsp,%rbp
    712d:	48 83 ec 10          	sub    $0x10,%rsp
    7131:	48 89 7d f8          	mov    %rdi,-0x8(%rbp)
    7135:	48 8b 45 f8          	mov    -0x8(%rbp),%rax
    7139:	48 89 c7             	mov    %rax,%rdi
    713c:	e8 8d 00 00 00       	callq  71ce <_ZSt12__get_helperILm0ERKmJEERT0_RSt11_Tuple_implIXT_EJS2_DpT1_EE>
    7141:	c9                   	leaveq 
    7142:	c3                   	retq   
    7143:	90                   	nop

0000000000007144 <_ZNSt10shared_ptrIN15coroutine_mimic9CoroutineEEC1Ev>:
    7144:	f3 0f 1e fa          	endbr64 
    7148:	55                   	push   %rbp
    7149:	48 89 e5             	mov    %rsp,%rbp
    714c:	48 83 ec 10          	sub    $0x10,%rsp
    7150:	48 89 7d f8          	mov    %rdi,-0x8(%rbp)
    7154:	48 8b 45 f8          	mov    -0x8(%rbp),%rax
    7158:	48 89 c7             	mov    %rax,%rdi
    715b:	e8 8c 00 00 00       	callq  71ec <_ZNSt12__shared_ptrIN15coroutine_mimic9CoroutineELN9__gnu_cxx12_Lock_policyE2EEC1Ev>
    7160:	90                   	nop
    7161:	c9                   	leaveq 
    7162:	c3                   	retq   

0000000000007163 <_ZNSt16allocator_traitsISaIPNSt8__detail15_Hash_node_baseEEE8allocateERS3_m>:
    7163:	f3 0f 1e fa          	endbr64 
    7167:	55                   	push   %rbp
    7168:	48 89 e5             	mov    %rsp,%rbp
    716b:	48 83 ec 10          	sub    $0x10,%rsp
    716f:	48 89 7d f8          	mov    %rdi,-0x8(%rbp)
    7173:	48 89 75 f0          	mov    %rsi,-0x10(%rbp)
    7177:	48 8b 4d f0          	mov    -0x10(%rbp),%rcx
    717b:	48 8b 45 f8          	mov    -0x8(%rbp),%rax
    717f:	ba 00 00 00 00       	mov    $0x0,%edx
    7184:	48 89 ce             	mov    %rcx,%rsi
    7187:	48 89 c7             	mov    %rax,%rdi
    718a:	e8 8b 00 00 00       	callq  721a <_ZN9__gnu_cxx13new_allocatorIPNSt8__detail15_Hash_node_baseEE8allocateEmPKv>
    718f:	c9                   	leaveq 
    7190:	c3                   	retq   

0000000000007191 <_ZSt12__to_addressIPNSt8__detail15_Hash_node_baseEEPT_S4_>:
    7191:	f3 0f 1e fa          	endbr64 
    7195:	55                   	push   %rbp
    7196:	48 89 e5             	mov    %rsp,%rbp
    7199:	48 89 7d f8          	mov    %rdi,-0x8(%rbp)
    719d:	48 8b 45 f8          	mov    -0x8(%rbp),%rax
    71a1:	5d                   	pop    %rbp
    71a2:	c3                   	retq   
    71a3:	90                   	nop

00000000000071a4 <_ZNK9__gnu_cxx16__aligned_bufferISt4pairIKmSt10shared_ptrIN15coroutine_mimic9CoroutineEEEE7_M_addrEv>:
    71a4:	f3 0f 1e fa          	endbr64 
    71a8:	55                   	push   %rbp
    71a9:	48 89 e5             	mov    %rsp,%rbp
    71ac:	48 89 7d f8          	mov    %rdi,-0x8(%rbp)
    71b0:	48 8b 45 f8          	mov    -0x8(%rbp),%rax
    71b4:	5d                   	pop    %rbp
    71b5:	c3                   	retq   

00000000000071b6 <_ZNK9__gnu_cxx13new_allocatorISt23_Sp_counted_ptr_inplaceIN15coroutine_mimic9CoroutineESaIS3_ELNS_12_Lock_policyE2EEE8max_sizeEv>:
    71b6:	f3 0f 1e fa          	endbr64 
    71ba:	55                   	push   %rbp
    71bb:	48 89 e5             	mov    %rsp,%rbp
    71be:	48 89 7d f8          	mov    %rdi,-0x8(%rbp)
    71c2:	48 b8 da 81 b9 76 60 	movabs $0x1dae6076b981da,%rax
    71c9:	ae 1d 00 
    71cc:	5d                   	pop    %rbp
    71cd:	c3                   	retq   

00000000000071ce <_ZSt12__get_helperILm0ERKmJEERT0_RSt11_Tuple_implIXT_EJS2_DpT1_EE>:
    71ce:	f3 0f 1e fa          	endbr64 
    71d2:	55                   	push   %rbp
    71d3:	48 89 e5             	mov    %rsp,%rbp
    71d6:	48 83 ec 10          	sub    $0x10,%rsp
    71da:	48 89 7d f8          	mov    %rdi,-0x8(%rbp)
    71de:	48 8b 45 f8          	mov    -0x8(%rbp),%rax
    71e2:	48 89 c7             	mov    %rax,%rdi
    71e5:	e8 96 fb ff ff       	callq  6d80 <_ZNSt11_Tuple_implILm0EJRKmEE7_M_headERS2_>
    71ea:	c9                   	leaveq 
    71eb:	c3                   	retq   

00000000000071ec <_ZNSt12__shared_ptrIN15coroutine_mimic9CoroutineELN9__gnu_cxx12_Lock_policyE2EEC1Ev>:
    71ec:	f3 0f 1e fa          	endbr64 
    71f0:	55                   	push   %rbp
    71f1:	48 89 e5             	mov    %rsp,%rbp
    71f4:	48 83 ec 10          	sub    $0x10,%rsp
    71f8:	48 89 7d f8          	mov    %rdi,-0x8(%rbp)
    71fc:	48 8b 45 f8          	mov    -0x8(%rbp),%rax
    7200:	48 c7 00 00 00 00 00 	movq   $0x0,(%rax)
    7207:	48 8b 45 f8          	mov    -0x8(%rbp),%rax
    720b:	48 83 c0 08          	add    $0x8,%rax
    720f:	48 89 c7             	mov    %rax,%rdi
    7212:	e8 4b 00 00 00       	callq  7262 <_ZNSt14__shared_countILN9__gnu_cxx12_Lock_policyE2EEC1Ev>
    7217:	90                   	nop
    7218:	c9                   	leaveq 
    7219:	c3                   	retq   

000000000000721a <_ZN9__gnu_cxx13new_allocatorIPNSt8__detail15_Hash_node_baseEE8allocateEmPKv>:
    721a:	f3 0f 1e fa          	endbr64 
    721e:	55                   	push   %rbp
    721f:	48 89 e5             	mov    %rsp,%rbp
    7222:	48 83 ec 20          	sub    $0x20,%rsp
    7226:	48 89 7d f8          	mov    %rdi,-0x8(%rbp)
    722a:	48 89 75 f0          	mov    %rsi,-0x10(%rbp)
    722e:	48 89 55 e8          	mov    %rdx,-0x18(%rbp)
    7232:	48 8b 45 f8          	mov    -0x8(%rbp),%rax
    7236:	48 89 c7             	mov    %rax,%rdi
    7239:	e8 3e 00 00 00       	callq  727c <_ZNK9__gnu_cxx13new_allocatorIPNSt8__detail15_Hash_node_baseEE8max_sizeEv>
    723e:	48 39 45 f0          	cmp    %rax,-0x10(%rbp)
    7242:	0f 97 c0             	seta   %al
    7245:	84 c0                	test   %al,%al
    7247:	74 05                	je     724e <_ZN9__gnu_cxx13new_allocatorIPNSt8__detail15_Hash_node_baseEE8allocateEmPKv+0x34>
    7249:	e8 22 b1 ff ff       	callq  2370 <_ZSt17__throw_bad_allocv@plt>
    724e:	48 8b 45 f0          	mov    -0x10(%rbp),%rax
    7252:	48 c1 e0 03          	shl    $0x3,%rax
    7256:	48 89 c7             	mov    %rax,%rdi
    7259:	e8 32 b2 ff ff       	callq  2490 <_Znwm@plt>
    725e:	90                   	nop
    725f:	c9                   	leaveq 
    7260:	c3                   	retq   
    7261:	90                   	nop

0000000000007262 <_ZNSt14__shared_countILN9__gnu_cxx12_Lock_policyE2EEC1Ev>:
    7262:	f3 0f 1e fa          	endbr64 
    7266:	55                   	push   %rbp
    7267:	48 89 e5             	mov    %rsp,%rbp
    726a:	48 89 7d f8          	mov    %rdi,-0x8(%rbp)
    726e:	48 8b 45 f8          	mov    -0x8(%rbp),%rax
    7272:	48 c7 00 00 00 00 00 	movq   $0x0,(%rax)
    7279:	90                   	nop
    727a:	5d                   	pop    %rbp
    727b:	c3                   	retq   

000000000000727c <_ZNK9__gnu_cxx13new_allocatorIPNSt8__detail15_Hash_node_baseEE8max_sizeEv>:
    727c:	f3 0f 1e fa          	endbr64 
    7280:	55                   	push   %rbp
    7281:	48 89 e5             	mov    %rsp,%rbp
    7284:	48 89 7d f8          	mov    %rdi,-0x8(%rbp)
    7288:	48 b8 ff ff ff ff ff 	movabs $0xfffffffffffffff,%rax
    728f:	ff ff 0f 
    7292:	5d                   	pop    %rbp
    7293:	c3                   	retq   

0000000000007294 <_ZNSt23_Sp_counted_ptr_inplaceIN15coroutine_mimic9CoroutineESaIS1_ELN9__gnu_cxx12_Lock_policyE2EED1Ev>:
    7294:	f3 0f 1e fa          	endbr64 
    7298:	55                   	push   %rbp
    7299:	48 89 e5             	mov    %rsp,%rbp
    729c:	48 83 ec 10          	sub    $0x10,%rsp
    72a0:	48 89 7d f8          	mov    %rdi,-0x8(%rbp)
    72a4:	48 8d 15 b5 87 00 00 	lea    0x87b5(%rip),%rdx        # fa60 <_ZTVSt23_Sp_counted_ptr_inplaceIN15coroutine_mimic9CoroutineESaIS1_ELN9__gnu_cxx12_Lock_policyE2EE+0x10>
    72ab:	48 8b 45 f8          	mov    -0x8(%rbp),%rax
    72af:	48 89 10             	mov    %rdx,(%rax)
    72b2:	48 8b 45 f8          	mov    -0x8(%rbp),%rax
    72b6:	48 83 c0 10          	add    $0x10,%rax
    72ba:	48 89 c7             	mov    %rax,%rdi
    72bd:	e8 1a f5 ff ff       	callq  67dc <_ZNSt23_Sp_counted_ptr_inplaceIN15coroutine_mimic9CoroutineESaIS1_ELN9__gnu_cxx12_Lock_policyE2EE5_ImplD1Ev>
    72c2:	48 8b 45 f8          	mov    -0x8(%rbp),%rax
    72c6:	48 89 c7             	mov    %rax,%rdi
    72c9:	e8 76 e3 ff ff       	callq  5644 <_ZNSt16_Sp_counted_baseILN9__gnu_cxx12_Lock_policyE2EED1Ev>
    72ce:	90                   	nop
    72cf:	c9                   	leaveq 
    72d0:	c3                   	retq   
    72d1:	90                   	nop

00000000000072d2 <_ZNSt23_Sp_counted_ptr_inplaceIN15coroutine_mimic9CoroutineESaIS1_ELN9__gnu_cxx12_Lock_policyE2EED0Ev>:
    72d2:	f3 0f 1e fa          	endbr64 
    72d6:	55                   	push   %rbp
    72d7:	48 89 e5             	mov    %rsp,%rbp
    72da:	48 83 ec 10          	sub    $0x10,%rsp
    72de:	48 89 7d f8          	mov    %rdi,-0x8(%rbp)
    72e2:	48 8b 45 f8          	mov    -0x8(%rbp),%rax
    72e6:	48 89 c7             	mov    %rax,%rdi
    72e9:	e8 a6 ff ff ff       	callq  7294 <_ZNSt23_Sp_counted_ptr_inplaceIN15coroutine_mimic9CoroutineESaIS1_ELN9__gnu_cxx12_Lock_policyE2EED1Ev>
    72ee:	48 8b 45 f8          	mov    -0x8(%rbp),%rax
    72f2:	be 50 04 00 00       	mov    $0x450,%esi
    72f7:	48 89 c7             	mov    %rax,%rdi
    72fa:	e8 a1 b1 ff ff       	callq  24a0 <_ZdlPvm@plt>
    72ff:	c9                   	leaveq 
    7300:	c3                   	retq   
    7301:	90                   	nop

0000000000007302 <_ZNSt23_Sp_counted_ptr_inplaceIN15coroutine_mimic9CoroutineESaIS1_ELN9__gnu_cxx12_Lock_policyE2EE10_M_disposeEv>:
    7302:	f3 0f 1e fa          	endbr64 
    7306:	55                   	push   %rbp
    7307:	48 89 e5             	mov    %rsp,%rbp
    730a:	53                   	push   %rbx
    730b:	48 83 ec 18          	sub    $0x18,%rsp
    730f:	48 89 7d e8          	mov    %rdi,-0x18(%rbp)
    7313:	48 8b 45 e8          	mov    -0x18(%rbp),%rax
    7317:	48 89 c7             	mov    %rax,%rdi
    731a:	e8 23 f6 ff ff       	callq  6942 <_ZNSt23_Sp_counted_ptr_inplaceIN15coroutine_mimic9CoroutineESaIS1_ELN9__gnu_cxx12_Lock_policyE2EE6_M_ptrEv>
    731f:	48 89 c3             	mov    %rax,%rbx
    7322:	48 8b 45 e8          	mov    -0x18(%rbp),%rax
    7326:	48 83 c0 10          	add    $0x10,%rax
    732a:	48 89 c7             	mov    %rax,%rdi
    732d:	e8 0c 01 00 00       	callq  743e <_ZNSt23_Sp_counted_ptr_inplaceIN15coroutine_mimic9CoroutineESaIS1_ELN9__gnu_cxx12_Lock_policyE2EE5_Impl8_M_allocEv>
    7332:	48 89 de             	mov    %rbx,%rsi
    7335:	48 89 c7             	mov    %rax,%rdi
    7338:	e8 1f 01 00 00       	callq  745c <_ZNSt16allocator_traitsISaIN15coroutine_mimic9CoroutineEEE7destroyIS1_EEvRS2_PT_>
    733d:	90                   	nop
    733e:	48 83 c4 18          	add    $0x18,%rsp
    7342:	5b                   	pop    %rbx
    7343:	5d                   	pop    %rbp
    7344:	c3                   	retq   
    7345:	90                   	nop

0000000000007346 <_ZNSt23_Sp_counted_ptr_inplaceIN15coroutine_mimic9CoroutineESaIS1_ELN9__gnu_cxx12_Lock_policyE2EE10_M_destroyEv>:
    7346:	f3 0f 1e fa          	endbr64 
    734a:	55                   	push   %rbp
    734b:	48 89 e5             	mov    %rsp,%rbp
    734e:	48 83 ec 40          	sub    $0x40,%rsp
    7352:	48 89 7d c8          	mov    %rdi,-0x38(%rbp)
    7356:	64 48 8b 04 25 28 00 	mov    %fs:0x28,%rax
    735d:	00 00 
    735f:	48 89 45 f8          	mov    %rax,-0x8(%rbp)
    7363:	31 c0                	xor    %eax,%eax
    7365:	48 8b 45 c8          	mov    -0x38(%rbp),%rax
    7369:	48 83 c0 10          	add    $0x10,%rax
    736d:	48 89 c7             	mov    %rax,%rdi
    7370:	e8 c9 00 00 00       	callq  743e <_ZNSt23_Sp_counted_ptr_inplaceIN15coroutine_mimic9CoroutineESaIS1_ELN9__gnu_cxx12_Lock_policyE2EE5_Impl8_M_allocEv>
    7375:	48 89 c2             	mov    %rax,%rdx
    7378:	48 8d 45 df          	lea    -0x21(%rbp),%rax
    737c:	48 89 d6             	mov    %rdx,%rsi
    737f:	48 89 c7             	mov    %rax,%rdi
    7382:	e8 25 f3 ff ff       	callq  66ac <_ZNSaISt23_Sp_counted_ptr_inplaceIN15coroutine_mimic9CoroutineESaIS1_ELN9__gnu_cxx12_Lock_policyE2EEEC1IS1_EERKSaIT_E>
    7387:	48 8b 55 c8          	mov    -0x38(%rbp),%rdx
    738b:	48 8d 4d df          	lea    -0x21(%rbp),%rcx
    738f:	48 8d 45 e0          	lea    -0x20(%rbp),%rax
    7393:	48 89 ce             	mov    %rcx,%rsi
    7396:	48 89 c7             	mov    %rax,%rdi
    7399:	e8 28 f8 ff ff       	callq  6bc6 <_ZNSt15__allocated_ptrISaISt23_Sp_counted_ptr_inplaceIN15coroutine_mimic9CoroutineESaIS2_ELN9__gnu_cxx12_Lock_policyE2EEEEC1ERS7_PS6_>
    739e:	48 8b 45 c8          	mov    -0x38(%rbp),%rax
    73a2:	48 89 c7             	mov    %rax,%rdi
    73a5:	e8 ea fe ff ff       	callq  7294 <_ZNSt23_Sp_counted_ptr_inplaceIN15coroutine_mimic9CoroutineESaIS1_ELN9__gnu_cxx12_Lock_policyE2EED1Ev>
    73aa:	48 8d 45 e0          	lea    -0x20(%rbp),%rax
    73ae:	48 89 c7             	mov    %rax,%rdi
    73b1:	e8 7a f3 ff ff       	callq  6730 <_ZNSt15__allocated_ptrISaISt23_Sp_counted_ptr_inplaceIN15coroutine_mimic9CoroutineESaIS2_ELN9__gnu_cxx12_Lock_policyE2EEEED1Ev>
    73b6:	48 8d 45 df          	lea    -0x21(%rbp),%rax
    73ba:	48 89 c7             	mov    %rax,%rdi
    73bd:	e8 0e f3 ff ff       	callq  66d0 <_ZNSaISt23_Sp_counted_ptr_inplaceIN15coroutine_mimic9CoroutineESaIS1_ELN9__gnu_cxx12_Lock_policyE2EEED1Ev>
    73c2:	90                   	nop
    73c3:	48 8b 45 f8          	mov    -0x8(%rbp),%rax
    73c7:	64 48 33 04 25 28 00 	xor    %fs:0x28,%rax
    73ce:	00 00 
    73d0:	74 05                	je     73d7 <_ZNSt23_Sp_counted_ptr_inplaceIN15coroutine_mimic9CoroutineESaIS1_ELN9__gnu_cxx12_Lock_policyE2EE10_M_destroyEv+0x91>
    73d2:	e8 19 b1 ff ff       	callq  24f0 <__stack_chk_fail@plt>
    73d7:	c9                   	leaveq 
    73d8:	c3                   	retq   
    73d9:	90                   	nop

00000000000073da <_ZNSt23_Sp_counted_ptr_inplaceIN15coroutine_mimic9CoroutineESaIS1_ELN9__gnu_cxx12_Lock_policyE2EE14_M_get_deleterERKSt9type_info>:
    73da:	f3 0f 1e fa          	endbr64 
    73de:	55                   	push   %rbp
    73df:	48 89 e5             	mov    %rsp,%rbp
    73e2:	48 83 ec 20          	sub    $0x20,%rsp
    73e6:	48 89 7d e8          	mov    %rdi,-0x18(%rbp)
    73ea:	48 89 75 e0          	mov    %rsi,-0x20(%rbp)
    73ee:	48 8b 45 e8          	mov    -0x18(%rbp),%rax
    73f2:	48 89 c7             	mov    %rax,%rdi
    73f5:	e8 48 f5 ff ff       	callq  6942 <_ZNSt23_Sp_counted_ptr_inplaceIN15coroutine_mimic9CoroutineESaIS1_ELN9__gnu_cxx12_Lock_policyE2EE6_M_ptrEv>
    73fa:	48 89 45 f8          	mov    %rax,-0x8(%rbp)
    73fe:	e8 73 c2 ff ff       	callq  3676 <_ZNSt19_Sp_make_shared_tag5_S_tiEv>
    7403:	48 39 45 e0          	cmp    %rax,-0x20(%rbp)
    7407:	74 17                	je     7420 <_ZNSt23_Sp_counted_ptr_inplaceIN15coroutine_mimic9CoroutineESaIS1_ELN9__gnu_cxx12_Lock_policyE2EE14_M_get_deleterERKSt9type_info+0x46>
    7409:	48 8b 45 e0          	mov    -0x20(%rbp),%rax
    740d:	48 8d 35 74 87 00 00 	lea    0x8774(%rip),%rsi        # fb88 <_ZTVN10__cxxabiv117__class_type_infoE@CXXABI_1.3>
    7414:	48 89 c7             	mov    %rax,%rdi
    7417:	e8 4c c0 ff ff       	callq  3468 <_ZNKSt9type_infoeqERKS_>
    741c:	84 c0                	test   %al,%al
    741e:	74 07                	je     7427 <_ZNSt23_Sp_counted_ptr_inplaceIN15coroutine_mimic9CoroutineESaIS1_ELN9__gnu_cxx12_Lock_policyE2EE14_M_get_deleterERKSt9type_info+0x4d>
    7420:	b8 01 00 00 00       	mov    $0x1,%eax
    7425:	eb 05                	jmp    742c <_ZNSt23_Sp_counted_ptr_inplaceIN15coroutine_mimic9CoroutineESaIS1_ELN9__gnu_cxx12_Lock_policyE2EE14_M_get_deleterERKSt9type_info+0x52>
    7427:	b8 00 00 00 00       	mov    $0x0,%eax
    742c:	84 c0                	test   %al,%al
    742e:	74 06                	je     7436 <_ZNSt23_Sp_counted_ptr_inplaceIN15coroutine_mimic9CoroutineESaIS1_ELN9__gnu_cxx12_Lock_policyE2EE14_M_get_deleterERKSt9type_info+0x5c>
    7430:	48 8b 45 f8          	mov    -0x8(%rbp),%rax
    7434:	eb 05                	jmp    743b <_ZNSt23_Sp_counted_ptr_inplaceIN15coroutine_mimic9CoroutineESaIS1_ELN9__gnu_cxx12_Lock_policyE2EE14_M_get_deleterERKSt9type_info+0x61>
    7436:	b8 00 00 00 00       	mov    $0x0,%eax
    743b:	c9                   	leaveq 
    743c:	c3                   	retq   
    743d:	90                   	nop

000000000000743e <_ZNSt23_Sp_counted_ptr_inplaceIN15coroutine_mimic9CoroutineESaIS1_ELN9__gnu_cxx12_Lock_policyE2EE5_Impl8_M_allocEv>:
    743e:	f3 0f 1e fa          	endbr64 
    7442:	55                   	push   %rbp
    7443:	48 89 e5             	mov    %rsp,%rbp
    7446:	48 83 ec 10          	sub    $0x10,%rsp
    744a:	48 89 7d f8          	mov    %rdi,-0x8(%rbp)
    744e:	48 8b 45 f8          	mov    -0x8(%rbp),%rax
    7452:	48 89 c7             	mov    %rax,%rdi
    7455:	e8 2c 00 00 00       	callq  7486 <_ZNSt14_Sp_ebo_helperILi0ESaIN15coroutine_mimic9CoroutineEELb1EE6_S_getERS3_>
    745a:	c9                   	leaveq 
    745b:	c3                   	retq   

000000000000745c <_ZNSt16allocator_traitsISaIN15coroutine_mimic9CoroutineEEE7destroyIS1_EEvRS2_PT_>:
    745c:	f3 0f 1e fa          	endbr64 
    7460:	55                   	push   %rbp
    7461:	48 89 e5             	mov    %rsp,%rbp
    7464:	48 83 ec 10          	sub    $0x10,%rsp
    7468:	48 89 7d f8          	mov    %rdi,-0x8(%rbp)
    746c:	48 89 75 f0          	mov    %rsi,-0x10(%rbp)
    7470:	48 8b 55 f0          	mov    -0x10(%rbp),%rdx
    7474:	48 8b 45 f8          	mov    -0x8(%rbp),%rax
    7478:	48 89 d6             	mov    %rdx,%rsi
    747b:	48 89 c7             	mov    %rax,%rdi
    747e:	e8 15 00 00 00       	callq  7498 <_ZN9__gnu_cxx13new_allocatorIN15coroutine_mimic9CoroutineEE7destroyIS2_EEvPT_>
    7483:	90                   	nop
    7484:	c9                   	leaveq 
    7485:	c3                   	retq   

0000000000007486 <_ZNSt14_Sp_ebo_helperILi0ESaIN15coroutine_mimic9CoroutineEELb1EE6_S_getERS3_>:
    7486:	f3 0f 1e fa          	endbr64 
    748a:	55                   	push   %rbp
    748b:	48 89 e5             	mov    %rsp,%rbp
    748e:	48 89 7d f8          	mov    %rdi,-0x8(%rbp)
    7492:	48 8b 45 f8          	mov    -0x8(%rbp),%rax
    7496:	5d                   	pop    %rbp
    7497:	c3                   	retq   

0000000000007498 <_ZN9__gnu_cxx13new_allocatorIN15coroutine_mimic9CoroutineEE7destroyIS2_EEvPT_>:
    7498:	f3 0f 1e fa          	endbr64 
    749c:	55                   	push   %rbp
    749d:	48 89 e5             	mov    %rsp,%rbp
    74a0:	48 83 ec 10          	sub    $0x10,%rsp
    74a4:	48 89 7d f8          	mov    %rdi,-0x8(%rbp)
    74a8:	48 89 75 f0          	mov    %rsi,-0x10(%rbp)
    74ac:	48 8b 45 f0          	mov    -0x10(%rbp),%rax
    74b0:	48 89 c7             	mov    %rax,%rdi
    74b3:	e8 9a b3 ff ff       	callq  2852 <_ZN15coroutine_mimic9CoroutineD1Ev>
    74b8:	90                   	nop
    74b9:	c9                   	leaveq 
    74ba:	c3                   	retq   

00000000000074bb <_Z10coProducerPN15coroutine_mimic9SchedulerESt3any>:
    74bb:	f3 0f 1e fa          	endbr64 
    74bf:	55                   	push   %rbp
    74c0:	48 89 e5             	mov    %rsp,%rbp
    74c3:	48 83 ec 30          	sub    $0x30,%rsp
    74c7:	48 89 7d d8          	mov    %rdi,-0x28(%rbp)
    74cb:	48 89 75 d0          	mov    %rsi,-0x30(%rbp)
    74cf:	64 48 8b 04 25 28 00 	mov    %fs:0x28,%rax
    74d6:	00 00 
    74d8:	48 89 45 f8          	mov    %rax,-0x8(%rbp)
    74dc:	31 c0                	xor    %eax,%eax
    74de:	48 8b 45 d0          	mov    -0x30(%rbp),%rax
    74e2:	48 89 c7             	mov    %rax,%rdi
    74e5:	e8 5e 09 00 00       	callq  7e48 <_ZSt8any_castIPSt5queueIiSt5dequeIiSaIiEEEET_RSt3any>
    74ea:	48 89 45 f0          	mov    %rax,-0x10(%rbp)
    74ee:	c7 45 ec 64 00 00 00 	movl   $0x64,-0x14(%rbp)
    74f5:	c7 45 e4 00 00 00 00 	movl   $0x0,-0x1c(%rbp)
    74fc:	83 7d e4 04          	cmpl   $0x4,-0x1c(%rbp)
    7500:	7f 4f                	jg     7551 <_Z10coProducerPN15coroutine_mimic9SchedulerESt3any+0x96>
    7502:	c7 45 e8 00 00 00 00 	movl   $0x0,-0x18(%rbp)
    7509:	83 7d e8 04          	cmpl   $0x4,-0x18(%rbp)
    750d:	7f 30                	jg     753f <_Z10coProducerPN15coroutine_mimic9SchedulerESt3any+0x84>
    750f:	8b 55 e4             	mov    -0x1c(%rbp),%edx
    7512:	89 d0                	mov    %edx,%eax
    7514:	c1 e0 02             	shl    $0x2,%eax
    7517:	01 c2                	add    %eax,%edx
    7519:	8b 45 e8             	mov    -0x18(%rbp),%eax
    751c:	01 c2                	add    %eax,%edx
    751e:	8b 45 ec             	mov    -0x14(%rbp),%eax
    7521:	01 d0                	add    %edx,%eax
    7523:	89 45 e0             	mov    %eax,-0x20(%rbp)
    7526:	48 8d 55 e0          	lea    -0x20(%rbp),%rdx
    752a:	48 8b 45 f0          	mov    -0x10(%rbp),%rax
    752e:	48 89 d6             	mov    %rdx,%rsi
    7531:	48 89 c7             	mov    %rax,%rdi
    7534:	e8 47 09 00 00       	callq  7e80 <_ZNSt5queueIiSt5dequeIiSaIiEEE4pushEOi>
    7539:	83 45 e8 01          	addl   $0x1,-0x18(%rbp)
    753d:	eb ca                	jmp    7509 <_Z10coProducerPN15coroutine_mimic9SchedulerESt3any+0x4e>
    753f:	48 8b 45 d8          	mov    -0x28(%rbp),%rax
    7543:	48 89 c7             	mov    %rax,%rdi
    7546:	e8 19 b9 ff ff       	callq  2e64 <_ZN15coroutine_mimic9Scheduler14CoroutineYieldEv>
    754b:	83 45 e4 01          	addl   $0x1,-0x1c(%rbp)
    754f:	eb ab                	jmp    74fc <_Z10coProducerPN15coroutine_mimic9SchedulerESt3any+0x41>
    7551:	90                   	nop
    7552:	48 8b 45 f8          	mov    -0x8(%rbp),%rax
    7556:	64 48 33 04 25 28 00 	xor    %fs:0x28,%rax
    755d:	00 00 
    755f:	74 05                	je     7566 <_Z10coProducerPN15coroutine_mimic9SchedulerESt3any+0xab>
    7561:	e8 8a af ff ff       	callq  24f0 <__stack_chk_fail@plt>
    7566:	c9                   	leaveq 
    7567:	c3                   	retq   

0000000000007568 <_Z10coConsumerPN15coroutine_mimic9SchedulerESt3any>:
    7568:	f3 0f 1e fa          	endbr64 
    756c:	55                   	push   %rbp
    756d:	48 89 e5             	mov    %rsp,%rbp
    7570:	48 83 ec 20          	sub    $0x20,%rsp
    7574:	48 89 7d e8          	mov    %rdi,-0x18(%rbp)
    7578:	48 89 75 e0          	mov    %rsi,-0x20(%rbp)
    757c:	48 8b 45 e0          	mov    -0x20(%rbp),%rax
    7580:	48 89 c7             	mov    %rax,%rdi
    7583:	e8 c0 08 00 00       	callq  7e48 <_ZSt8any_castIPSt5queueIiSt5dequeIiSaIiEEEET_RSt3any>
    7588:	48 89 45 f8          	mov    %rax,-0x8(%rbp)
    758c:	c7 45 f0 00 00 00 00 	movl   $0x0,-0x10(%rbp)
    7593:	83 7d f0 04          	cmpl   $0x4,-0x10(%rbp)
    7597:	7f 2f                	jg     75c8 <_Z10coConsumerPN15coroutine_mimic9SchedulerESt3any+0x60>
    7599:	48 8b 45 f8          	mov    -0x8(%rbp),%rax
    759d:	48 89 c7             	mov    %rax,%rdi
    75a0:	e8 13 09 00 00       	callq  7eb8 <_ZNSt5queueIiSt5dequeIiSaIiEEE5frontEv>
    75a5:	8b 00                	mov    (%rax),%eax
    75a7:	89 45 f4             	mov    %eax,-0xc(%rbp)
    75aa:	48 8b 45 f8          	mov    -0x8(%rbp),%rax
    75ae:	48 89 c7             	mov    %rax,%rdi
    75b1:	e8 20 09 00 00       	callq  7ed6 <_ZNSt5queueIiSt5dequeIiSaIiEEE3popEv>
    75b6:	48 8b 45 e8          	mov    -0x18(%rbp),%rax
    75ba:	48 89 c7             	mov    %rax,%rdi
    75bd:	e8 a2 b8 ff ff       	callq  2e64 <_ZN15coroutine_mimic9Scheduler14CoroutineYieldEv>
    75c2:	83 45 f0 01          	addl   $0x1,-0x10(%rbp)
    75c6:	eb cb                	jmp    7593 <_Z10coConsumerPN15coroutine_mimic9SchedulerESt3any+0x2b>
    75c8:	90                   	nop
    75c9:	c9                   	leaveq 
    75ca:	c3                   	retq   

00000000000075cb <_Z11coConsumer2PN15coroutine_mimic9SchedulerESt3any>:
    75cb:	f3 0f 1e fa          	endbr64 
    75cf:	55                   	push   %rbp
    75d0:	48 89 e5             	mov    %rsp,%rbp
    75d3:	48 81 ec 10 04 00 00 	sub    $0x410,%rsp
    75da:	48 89 bd f8 fb ff ff 	mov    %rdi,-0x408(%rbp)
    75e1:	48 89 b5 f0 fb ff ff 	mov    %rsi,-0x410(%rbp)
    75e8:	64 48 8b 04 25 28 00 	mov    %fs:0x28,%rax
    75ef:	00 00 
    75f1:	48 89 45 f8          	mov    %rax,-0x8(%rbp)
    75f5:	31 c0                	xor    %eax,%eax
    75f7:	48 8b 85 f0 fb ff ff 	mov    -0x410(%rbp),%rax
    75fe:	48 89 c7             	mov    %rax,%rdi
    7601:	e8 42 08 00 00       	callq  7e48 <_ZSt8any_castIPSt5queueIiSt5dequeIiSaIiEEEET_RSt3any>
    7606:	48 89 85 08 fc ff ff 	mov    %rax,-0x3f8(%rbp)
    760d:	c7 85 00 fc ff ff 00 	movl   $0x0,-0x400(%rbp)
    7614:	00 00 00 
    7617:	83 bd 00 fc ff ff 04 	cmpl   $0x4,-0x400(%rbp)
    761e:	7f 3e                	jg     765e <_Z11coConsumer2PN15coroutine_mimic9SchedulerESt3any+0x93>
    7620:	48 8b 85 08 fc ff ff 	mov    -0x3f8(%rbp),%rax
    7627:	48 89 c7             	mov    %rax,%rdi
    762a:	e8 89 08 00 00       	callq  7eb8 <_ZNSt5queueIiSt5dequeIiSaIiEEE5frontEv>
    762f:	8b 00                	mov    (%rax),%eax
    7631:	89 85 04 fc ff ff    	mov    %eax,-0x3fc(%rbp)
    7637:	48 8b 85 08 fc ff ff 	mov    -0x3f8(%rbp),%rax
    763e:	48 89 c7             	mov    %rax,%rdi
    7641:	e8 90 08 00 00       	callq  7ed6 <_ZNSt5queueIiSt5dequeIiSaIiEEE3popEv>
    7646:	48 8b 85 f8 fb ff ff 	mov    -0x408(%rbp),%rax
    764d:	48 89 c7             	mov    %rax,%rdi
    7650:	e8 0f b8 ff ff       	callq  2e64 <_ZN15coroutine_mimic9Scheduler14CoroutineYieldEv>
    7655:	83 85 00 fc ff ff 01 	addl   $0x1,-0x400(%rbp)
    765c:	eb b9                	jmp    7617 <_Z11coConsumer2PN15coroutine_mimic9SchedulerESt3any+0x4c>
    765e:	90                   	nop
    765f:	48 8b 45 f8          	mov    -0x8(%rbp),%rax
    7663:	64 48 33 04 25 28 00 	xor    %fs:0x28,%rax
    766a:	00 00 
    766c:	74 05                	je     7673 <_Z11coConsumer2PN15coroutine_mimic9SchedulerESt3any+0xa8>
    766e:	e8 7d ae ff ff       	callq  24f0 <__stack_chk_fail@plt>
    7673:	c9                   	leaveq 
    7674:	c3                   	retq   

0000000000007675 <_Z9testFunc1RN15coroutine_mimic9SchedulerERSt5queueIiSt5dequeIiSaIiEEE>:
    7675:	f3 0f 1e fa          	endbr64 
    7679:	55                   	push   %rbp
    767a:	48 89 e5             	mov    %rsp,%rbp
    767d:	53                   	push   %rbx
    767e:	48 81 ec a8 00 00 00 	sub    $0xa8,%rsp
    7685:	48 89 bd 58 ff ff ff 	mov    %rdi,-0xa8(%rbp)
    768c:	48 89 b5 50 ff ff ff 	mov    %rsi,-0xb0(%rbp)
    7693:	64 48 8b 04 25 28 00 	mov    %fs:0x28,%rax
    769a:	00 00 
    769c:	48 89 45 e8          	mov    %rax,-0x18(%rbp)
    76a0:	31 c0                	xor    %eax,%eax
    76a2:	48 8b 85 50 ff ff ff 	mov    -0xb0(%rbp),%rax
    76a9:	48 89 85 68 ff ff ff 	mov    %rax,-0x98(%rbp)
    76b0:	48 8d 95 68 ff ff ff 	lea    -0x98(%rbp),%rdx
    76b7:	48 8d 45 a0          	lea    -0x60(%rbp),%rax
    76bb:	48 89 d6             	mov    %rdx,%rsi
    76be:	48 89 c7             	mov    %rax,%rdi
    76c1:	e8 c6 08 00 00       	callq  7f8c <_ZNSt3anyC1IPSt5queueIiSt5dequeIiSaIiEEES6_NS_17_Manager_internalIS6_EELb1ELb1EEEOT_>
    76c6:	48 8d 45 c0          	lea    -0x40(%rbp),%rax
    76ca:	48 8d 35 ea fd ff ff 	lea    -0x216(%rip),%rsi        # 74bb <_Z10coProducerPN15coroutine_mimic9SchedulerESt3any>
    76d1:	48 89 c7             	mov    %rax,%rdi
    76d4:	e8 1d 08 00 00       	callq  7ef6 <_ZNSt8functionIFvPN15coroutine_mimic9SchedulerESt3anyEEC1IPS4_vvEET_>
    76d9:	48 8d 55 a0          	lea    -0x60(%rbp),%rdx
    76dd:	48 8d 4d c0          	lea    -0x40(%rbp),%rcx
    76e1:	48 8b 85 58 ff ff ff 	mov    -0xa8(%rbp),%rax
    76e8:	48 89 ce             	mov    %rcx,%rsi
    76eb:	48 89 c7             	mov    %rax,%rdi
    76ee:	e8 29 b3 ff ff       	callq  2a1c <_ZN15coroutine_mimic9Scheduler15CoroutineCreateESt8functionIFvPS0_St3anyEES3_>
    76f3:	48 89 45 80          	mov    %rax,-0x80(%rbp)
    76f7:	48 8d 45 c0          	lea    -0x40(%rbp),%rax
    76fb:	48 89 c7             	mov    %rax,%rdi
    76fe:	e8 e1 c1 ff ff       	callq  38e4 <_ZNSt8functionIFvPN15coroutine_mimic9SchedulerESt3anyEED1Ev>
    7703:	48 8d 45 a0          	lea    -0x60(%rbp),%rax
    7707:	48 89 c7             	mov    %rax,%rdi
    770a:	e8 39 c1 ff ff       	callq  3848 <_ZNSt3anyD1Ev>
    770f:	48 8b 85 50 ff ff ff 	mov    -0xb0(%rbp),%rax
    7716:	48 89 85 68 ff ff ff 	mov    %rax,-0x98(%rbp)
    771d:	48 8d 95 68 ff ff ff 	lea    -0x98(%rbp),%rdx
    7724:	48 8d 45 a0          	lea    -0x60(%rbp),%rax
    7728:	48 89 d6             	mov    %rdx,%rsi
    772b:	48 89 c7             	mov    %rax,%rdi
    772e:	e8 59 08 00 00       	callq  7f8c <_ZNSt3anyC1IPSt5queueIiSt5dequeIiSaIiEEES6_NS_17_Manager_internalIS6_EELb1ELb1EEEOT_>
    7733:	48 8d 45 c0          	lea    -0x40(%rbp),%rax
    7737:	48 8d 35 2a fe ff ff 	lea    -0x1d6(%rip),%rsi        # 7568 <_Z10coConsumerPN15coroutine_mimic9SchedulerESt3any>
    773e:	48 89 c7             	mov    %rax,%rdi
    7741:	e8 b0 07 00 00       	callq  7ef6 <_ZNSt8functionIFvPN15coroutine_mimic9SchedulerESt3anyEEC1IPS4_vvEET_>
    7746:	48 8d 55 a0          	lea    -0x60(%rbp),%rdx
    774a:	48 8d 4d c0          	lea    -0x40(%rbp),%rcx
    774e:	48 8b 85 58 ff ff ff 	mov    -0xa8(%rbp),%rax
    7755:	48 89 ce             	mov    %rcx,%rsi
    7758:	48 89 c7             	mov    %rax,%rdi
    775b:	e8 bc b2 ff ff       	callq  2a1c <_ZN15coroutine_mimic9Scheduler15CoroutineCreateESt8functionIFvPS0_St3anyEES3_>
    7760:	48 89 45 88          	mov    %rax,-0x78(%rbp)
    7764:	48 8d 45 c0          	lea    -0x40(%rbp),%rax
    7768:	48 89 c7             	mov    %rax,%rdi
    776b:	e8 74 c1 ff ff       	callq  38e4 <_ZNSt8functionIFvPN15coroutine_mimic9SchedulerESt3anyEED1Ev>
    7770:	48 8d 45 a0          	lea    -0x60(%rbp),%rax
    7774:	48 89 c7             	mov    %rax,%rdi
    7777:	e8 cc c0 ff ff       	callq  3848 <_ZNSt3anyD1Ev>
    777c:	48 c7 85 70 ff ff ff 	movq   $0x0,-0x90(%rbp)
    7783:	00 00 00 00 
    7787:	48 83 bd 70 ff ff ff 	cmpq   $0x3,-0x90(%rbp)
    778e:	03 
    778f:	0f 87 83 00 00 00    	ja     7818 <_Z9testFunc1RN15coroutine_mimic9SchedulerERSt5queueIiSt5dequeIiSaIiEEE+0x1a3>
    7795:	48 8b 85 50 ff ff ff 	mov    -0xb0(%rbp),%rax
    779c:	48 89 85 68 ff ff ff 	mov    %rax,-0x98(%rbp)
    77a3:	48 8d 95 68 ff ff ff 	lea    -0x98(%rbp),%rdx
    77aa:	48 8d 45 90          	lea    -0x70(%rbp),%rax
    77ae:	48 89 d6             	mov    %rdx,%rsi
    77b1:	48 89 c7             	mov    %rax,%rdi
    77b4:	e8 d3 07 00 00       	callq  7f8c <_ZNSt3anyC1IPSt5queueIiSt5dequeIiSaIiEEES6_NS_17_Manager_internalIS6_EELb1ELb1EEEOT_>
    77b9:	48 8d 45 c0          	lea    -0x40(%rbp),%rax
    77bd:	48 8d 35 a4 fd ff ff 	lea    -0x25c(%rip),%rsi        # 7568 <_Z10coConsumerPN15coroutine_mimic9SchedulerESt3any>
    77c4:	48 89 c7             	mov    %rax,%rdi
    77c7:	e8 2a 07 00 00       	callq  7ef6 <_ZNSt8functionIFvPN15coroutine_mimic9SchedulerESt3anyEEC1IPS4_vvEET_>
    77cc:	48 8d 55 90          	lea    -0x70(%rbp),%rdx
    77d0:	48 8d 4d c0          	lea    -0x40(%rbp),%rcx
    77d4:	48 8b 85 58 ff ff ff 	mov    -0xa8(%rbp),%rax
    77db:	48 89 ce             	mov    %rcx,%rsi
    77de:	48 89 c7             	mov    %rax,%rdi
    77e1:	e8 36 b2 ff ff       	callq  2a1c <_ZN15coroutine_mimic9Scheduler15CoroutineCreateESt8functionIFvPS0_St3anyEES3_>
    77e6:	89 c2                	mov    %eax,%edx
    77e8:	48 8b 85 70 ff ff ff 	mov    -0x90(%rbp),%rax
    77ef:	89 54 85 a0          	mov    %edx,-0x60(%rbp,%rax,4)
    77f3:	48 8d 45 c0          	lea    -0x40(%rbp),%rax
    77f7:	48 89 c7             	mov    %rax,%rdi
    77fa:	e8 e5 c0 ff ff       	callq  38e4 <_ZNSt8functionIFvPN15coroutine_mimic9SchedulerESt3anyEED1Ev>
    77ff:	48 8d 45 90          	lea    -0x70(%rbp),%rax
    7803:	48 89 c7             	mov    %rax,%rdi
    7806:	e8 3d c0 ff ff       	callq  3848 <_ZNSt3anyD1Ev>
    780b:	48 83 85 70 ff ff ff 	addq   $0x1,-0x90(%rbp)
    7812:	01 
    7813:	e9 6f ff ff ff       	jmpq   7787 <_Z9testFunc1RN15coroutine_mimic9SchedulerERSt5queueIiSt5dequeIiSaIiEEE+0x112>
    7818:	48 8b 85 50 ff ff ff 	mov    -0xb0(%rbp),%rax
    781f:	48 89 85 68 ff ff ff 	mov    %rax,-0x98(%rbp)
    7826:	48 8d 95 68 ff ff ff 	lea    -0x98(%rbp),%rdx
    782d:	48 8d 45 90          	lea    -0x70(%rbp),%rax
    7831:	48 89 d6             	mov    %rdx,%rsi
    7834:	48 89 c7             	mov    %rax,%rdi
    7837:	e8 50 07 00 00       	callq  7f8c <_ZNSt3anyC1IPSt5queueIiSt5dequeIiSaIiEEES6_NS_17_Manager_internalIS6_EELb1ELb1EEEOT_>
    783c:	48 8d 45 c0          	lea    -0x40(%rbp),%rax
    7840:	48 8d 35 84 fd ff ff 	lea    -0x27c(%rip),%rsi        # 75cb <_Z11coConsumer2PN15coroutine_mimic9SchedulerESt3any>
    7847:	48 89 c7             	mov    %rax,%rdi
    784a:	e8 a7 06 00 00       	callq  7ef6 <_ZNSt8functionIFvPN15coroutine_mimic9SchedulerESt3anyEEC1IPS4_vvEET_>
    784f:	48 8d 55 90          	lea    -0x70(%rbp),%rdx
    7853:	48 8d 4d c0          	lea    -0x40(%rbp),%rcx
    7857:	48 8b 85 58 ff ff ff 	mov    -0xa8(%rbp),%rax
    785e:	48 89 ce             	mov    %rcx,%rsi
    7861:	48 89 c7             	mov    %rax,%rdi
    7864:	e8 b3 b1 ff ff       	callq  2a1c <_ZN15coroutine_mimic9Scheduler15CoroutineCreateESt8functionIFvPS0_St3anyEES3_>
    7869:	89 45 b0             	mov    %eax,-0x50(%rbp)
    786c:	48 8d 45 c0          	lea    -0x40(%rbp),%rax
    7870:	48 89 c7             	mov    %rax,%rdi
    7873:	e8 6c c0 ff ff       	callq  38e4 <_ZNSt8functionIFvPN15coroutine_mimic9SchedulerESt3anyEED1Ev>
    7878:	48 8d 45 90          	lea    -0x70(%rbp),%rax
    787c:	48 89 c7             	mov    %rax,%rdi
    787f:	e8 c4 bf ff ff       	callq  3848 <_ZNSt3anyD1Ev>
    7884:	48 8d 35 25 2a 00 00 	lea    0x2a25(%rip),%rsi        # a2b0 <_ZL1n+0x4>
    788b:	48 8d 3d ae 87 00 00 	lea    0x87ae(%rip),%rdi        # 10040 <_ZSt4cout@@GLIBCXX_3.4>
    7892:	e8 e9 ab ff ff       	callq  2480 <_ZStlsISt11char_traitsIcEERSt13basic_ostreamIcT_ES5_PKc@plt>
    7897:	48 89 c2             	mov    %rax,%rdx
    789a:	48 8b 05 17 87 00 00 	mov    0x8717(%rip),%rax        # ffb8 <_ZSt4endlIcSt11char_traitsIcEERSt13basic_ostreamIT_T0_ES6_@GLIBCXX_3.4>
    78a1:	48 89 c6             	mov    %rax,%rsi
    78a4:	48 89 d7             	mov    %rdx,%rdi
    78a7:	e8 04 ac ff ff       	callq  24b0 <_ZNSolsEPFRSoS_E@plt>
    78ac:	48 8b 55 80          	mov    -0x80(%rbp),%rdx
    78b0:	48 8b 85 58 ff ff ff 	mov    -0xa8(%rbp),%rax
    78b7:	48 89 d6             	mov    %rdx,%rsi
    78ba:	48 89 c7             	mov    %rax,%rdi
    78bd:	e8 9e ba ff ff       	callq  3360 <_ZN15coroutine_mimic9Scheduler14CoroutineStateEm>
    78c2:	85 c0                	test   %eax,%eax
    78c4:	0f 95 c0             	setne  %al
    78c7:	84 c0                	test   %al,%al
    78c9:	74 7e                	je     7949 <_Z9testFunc1RN15coroutine_mimic9SchedulerERSt5queueIiSt5dequeIiSaIiEEE+0x2d4>
    78cb:	48 8b 55 80          	mov    -0x80(%rbp),%rdx
    78cf:	48 8b 85 58 ff ff ff 	mov    -0xa8(%rbp),%rax
    78d6:	48 89 d6             	mov    %rdx,%rsi
    78d9:	48 89 c7             	mov    %rax,%rdi
    78dc:	e8 15 b2 ff ff       	callq  2af6 <_ZN15coroutine_mimic9Scheduler15CoroutineResumeEm>
    78e1:	48 c7 85 78 ff ff ff 	movq   $0x0,-0x88(%rbp)
    78e8:	00 00 00 00 
    78ec:	48 83 bd 78 ff ff ff 	cmpq   $0x4,-0x88(%rbp)
    78f3:	04 
    78f4:	77 b6                	ja     78ac <_Z9testFunc1RN15coroutine_mimic9SchedulerERSt5queueIiSt5dequeIiSaIiEEE+0x237>
    78f6:	48 8b 85 78 ff ff ff 	mov    -0x88(%rbp),%rax
    78fd:	8b 44 85 a0          	mov    -0x60(%rbp,%rax,4),%eax
    7901:	48 63 d0             	movslq %eax,%rdx
    7904:	48 8b 85 58 ff ff ff 	mov    -0xa8(%rbp),%rax
    790b:	48 89 d6             	mov    %rdx,%rsi
    790e:	48 89 c7             	mov    %rax,%rdi
    7911:	e8 4a ba ff ff       	callq  3360 <_ZN15coroutine_mimic9Scheduler14CoroutineStateEm>
    7916:	85 c0                	test   %eax,%eax
    7918:	0f 95 c0             	setne  %al
    791b:	84 c0                	test   %al,%al
    791d:	74 20                	je     793f <_Z9testFunc1RN15coroutine_mimic9SchedulerERSt5queueIiSt5dequeIiSaIiEEE+0x2ca>
    791f:	48 8b 85 78 ff ff ff 	mov    -0x88(%rbp),%rax
    7926:	8b 44 85 a0          	mov    -0x60(%rbp,%rax,4),%eax
    792a:	48 63 d0             	movslq %eax,%rdx
    792d:	48 8b 85 58 ff ff ff 	mov    -0xa8(%rbp),%rax
    7934:	48 89 d6             	mov    %rdx,%rsi
    7937:	48 89 c7             	mov    %rax,%rdi
    793a:	e8 b7 b1 ff ff       	callq  2af6 <_ZN15coroutine_mimic9Scheduler15CoroutineResumeEm>
    793f:	48 83 85 78 ff ff ff 	addq   $0x1,-0x88(%rbp)
    7946:	01 
    7947:	eb a3                	jmp    78ec <_Z9testFunc1RN15coroutine_mimic9SchedulerERSt5queueIiSt5dequeIiSaIiEEE+0x277>
    7949:	48 8d 35 75 29 00 00 	lea    0x2975(%rip),%rsi        # a2c5 <_ZL1n+0x19>
    7950:	48 8d 3d e9 86 00 00 	lea    0x86e9(%rip),%rdi        # 10040 <_ZSt4cout@@GLIBCXX_3.4>
    7957:	e8 24 ab ff ff       	callq  2480 <_ZStlsISt11char_traitsIcEERSt13basic_ostreamIcT_ES5_PKc@plt>
    795c:	48 89 c2             	mov    %rax,%rdx
    795f:	48 8b 05 52 86 00 00 	mov    0x8652(%rip),%rax        # ffb8 <_ZSt4endlIcSt11char_traitsIcEERSt13basic_ostreamIT_T0_ES6_@GLIBCXX_3.4>
    7966:	48 89 c6             	mov    %rax,%rsi
    7969:	48 89 d7             	mov    %rdx,%rdi
    796c:	e8 3f ab ff ff       	callq  24b0 <_ZNSolsEPFRSoS_E@plt>
    7971:	90                   	nop
    7972:	48 8b 45 e8          	mov    -0x18(%rbp),%rax
    7976:	64 48 33 04 25 28 00 	xor    %fs:0x28,%rax
    797d:	00 00 
    797f:	0f 84 d6 00 00 00    	je     7a5b <_Z9testFunc1RN15coroutine_mimic9SchedulerERSt5queueIiSt5dequeIiSaIiEEE+0x3e6>
    7985:	e9 cc 00 00 00       	jmpq   7a56 <_Z9testFunc1RN15coroutine_mimic9SchedulerERSt5queueIiSt5dequeIiSaIiEEE+0x3e1>
    798a:	f3 0f 1e fa          	endbr64 
    798e:	48 89 c3             	mov    %rax,%rbx
    7991:	48 8d 45 c0          	lea    -0x40(%rbp),%rax
    7995:	48 89 c7             	mov    %rax,%rdi
    7998:	e8 47 bf ff ff       	callq  38e4 <_ZNSt8functionIFvPN15coroutine_mimic9SchedulerESt3anyEED1Ev>
    799d:	eb 07                	jmp    79a6 <_Z9testFunc1RN15coroutine_mimic9SchedulerERSt5queueIiSt5dequeIiSaIiEEE+0x331>
    799f:	f3 0f 1e fa          	endbr64 
    79a3:	48 89 c3             	mov    %rax,%rbx
    79a6:	48 8d 45 a0          	lea    -0x60(%rbp),%rax
    79aa:	48 89 c7             	mov    %rax,%rdi
    79ad:	e8 96 be ff ff       	callq  3848 <_ZNSt3anyD1Ev>
    79b2:	48 89 d8             	mov    %rbx,%rax
    79b5:	48 89 c7             	mov    %rax,%rdi
    79b8:	e8 e3 ab ff ff       	callq  25a0 <_Unwind_Resume@plt>
    79bd:	f3 0f 1e fa          	endbr64 
    79c1:	48 89 c3             	mov    %rax,%rbx
    79c4:	48 8d 45 c0          	lea    -0x40(%rbp),%rax
    79c8:	48 89 c7             	mov    %rax,%rdi
    79cb:	e8 14 bf ff ff       	callq  38e4 <_ZNSt8functionIFvPN15coroutine_mimic9SchedulerESt3anyEED1Ev>
    79d0:	eb 07                	jmp    79d9 <_Z9testFunc1RN15coroutine_mimic9SchedulerERSt5queueIiSt5dequeIiSaIiEEE+0x364>
    79d2:	f3 0f 1e fa          	endbr64 
    79d6:	48 89 c3             	mov    %rax,%rbx
    79d9:	48 8d 45 a0          	lea    -0x60(%rbp),%rax
    79dd:	48 89 c7             	mov    %rax,%rdi
    79e0:	e8 63 be ff ff       	callq  3848 <_ZNSt3anyD1Ev>
    79e5:	48 89 d8             	mov    %rbx,%rax
    79e8:	48 89 c7             	mov    %rax,%rdi
    79eb:	e8 b0 ab ff ff       	callq  25a0 <_Unwind_Resume@plt>
    79f0:	f3 0f 1e fa          	endbr64 
    79f4:	48 89 c3             	mov    %rax,%rbx
    79f7:	48 8d 45 c0          	lea    -0x40(%rbp),%rax
    79fb:	48 89 c7             	mov    %rax,%rdi
    79fe:	e8 e1 be ff ff       	callq  38e4 <_ZNSt8functionIFvPN15coroutine_mimic9SchedulerESt3anyEED1Ev>
    7a03:	eb 07                	jmp    7a0c <_Z9testFunc1RN15coroutine_mimic9SchedulerERSt5queueIiSt5dequeIiSaIiEEE+0x397>
    7a05:	f3 0f 1e fa          	endbr64 
    7a09:	48 89 c3             	mov    %rax,%rbx
    7a0c:	48 8d 45 90          	lea    -0x70(%rbp),%rax
    7a10:	48 89 c7             	mov    %rax,%rdi
    7a13:	e8 30 be ff ff       	callq  3848 <_ZNSt3anyD1Ev>
    7a18:	48 89 d8             	mov    %rbx,%rax
    7a1b:	48 89 c7             	mov    %rax,%rdi
    7a1e:	e8 7d ab ff ff       	callq  25a0 <_Unwind_Resume@plt>
    7a23:	f3 0f 1e fa          	endbr64 
    7a27:	48 89 c3             	mov    %rax,%rbx
    7a2a:	48 8d 45 c0          	lea    -0x40(%rbp),%rax
    7a2e:	48 89 c7             	mov    %rax,%rdi
    7a31:	e8 ae be ff ff       	callq  38e4 <_ZNSt8functionIFvPN15coroutine_mimic9SchedulerESt3anyEED1Ev>
    7a36:	eb 07                	jmp    7a3f <_Z9testFunc1RN15coroutine_mimic9SchedulerERSt5queueIiSt5dequeIiSaIiEEE+0x3ca>
    7a38:	f3 0f 1e fa          	endbr64 
    7a3c:	48 89 c3             	mov    %rax,%rbx
    7a3f:	48 8d 45 90          	lea    -0x70(%rbp),%rax
    7a43:	48 89 c7             	mov    %rax,%rdi
    7a46:	e8 fd bd ff ff       	callq  3848 <_ZNSt3anyD1Ev>
    7a4b:	48 89 d8             	mov    %rbx,%rax
    7a4e:	48 89 c7             	mov    %rax,%rdi
    7a51:	e8 4a ab ff ff       	callq  25a0 <_Unwind_Resume@plt>
    7a56:	e8 95 aa ff ff       	callq  24f0 <__stack_chk_fail@plt>
    7a5b:	48 81 c4 a8 00 00 00 	add    $0xa8,%rsp
    7a62:	5b                   	pop    %rbx
    7a63:	5d                   	pop    %rbp
    7a64:	c3                   	retq   

0000000000007a65 <main>:
    7a65:	f3 0f 1e fa          	endbr64 
    7a69:	55                   	push   %rbp
    7a6a:	48 89 e5             	mov    %rsp,%rbp
    7a6d:	53                   	push   %rbx
    7a6e:	48 81 ec 88 04 00 00 	sub    $0x488,%rsp
    7a75:	64 48 8b 04 25 28 00 	mov    %fs:0x28,%rax
    7a7c:	00 00 
    7a7e:	48 89 45 e8          	mov    %rax,-0x18(%rbp)
    7a82:	31 c0                	xor    %eax,%eax
    7a84:	48 8d 85 c0 fb ff ff 	lea    -0x440(%rbp),%rax
    7a8b:	48 89 c7             	mov    %rax,%rdi
    7a8e:	e8 1b ae ff ff       	callq  28ae <_ZN15coroutine_mimic9SchedulerC1Ev>
    7a93:	48 8d 85 70 fb ff ff 	lea    -0x490(%rbp),%rax
    7a9a:	48 89 c7             	mov    %rax,%rdi
    7a9d:	e8 42 05 00 00       	callq  7fe4 <_ZNSt5queueIiSt5dequeIiSaIiEEEC1IS2_vEEv>
    7aa2:	48 8d 95 70 fb ff ff 	lea    -0x490(%rbp),%rdx
    7aa9:	48 8d 85 c0 fb ff ff 	lea    -0x440(%rbp),%rax
    7ab0:	48 89 d6             	mov    %rdx,%rsi
    7ab3:	48 89 c7             	mov    %rax,%rdi
    7ab6:	e8 ba fb ff ff       	callq  7675 <_Z9testFunc1RN15coroutine_mimic9SchedulerERSt5queueIiSt5dequeIiSaIiEEE>
    7abb:	bb 00 00 00 00       	mov    $0x0,%ebx
    7ac0:	48 8d 85 70 fb ff ff 	lea    -0x490(%rbp),%rax
    7ac7:	48 89 c7             	mov    %rax,%rdi
    7aca:	e8 19 03 00 00       	callq  7de8 <_ZNSt5queueIiSt5dequeIiSaIiEEED1Ev>
    7acf:	48 8d 85 c0 fb ff ff 	lea    -0x440(%rbp),%rax
    7ad6:	48 89 c7             	mov    %rax,%rdi
    7ad9:	e8 02 af ff ff       	callq  29e0 <_ZN15coroutine_mimic9SchedulerD1Ev>
    7ade:	89 d8                	mov    %ebx,%eax
    7ae0:	48 8b 4d e8          	mov    -0x18(%rbp),%rcx
    7ae4:	64 48 33 0c 25 28 00 	xor    %fs:0x28,%rcx
    7aeb:	00 00 
    7aed:	74 40                	je     7b2f <main+0xca>
    7aef:	eb 39                	jmp    7b2a <main+0xc5>
    7af1:	f3 0f 1e fa          	endbr64 
    7af5:	48 89 c3             	mov    %rax,%rbx
    7af8:	48 8d 85 70 fb ff ff 	lea    -0x490(%rbp),%rax
    7aff:	48 89 c7             	mov    %rax,%rdi
    7b02:	e8 e1 02 00 00       	callq  7de8 <_ZNSt5queueIiSt5dequeIiSaIiEEED1Ev>
    7b07:	eb 07                	jmp    7b10 <main+0xab>
    7b09:	f3 0f 1e fa          	endbr64 
    7b0d:	48 89 c3             	mov    %rax,%rbx
    7b10:	48 8d 85 c0 fb ff ff 	lea    -0x440(%rbp),%rax
    7b17:	48 89 c7             	mov    %rax,%rdi
    7b1a:	e8 c1 ae ff ff       	callq  29e0 <_ZN15coroutine_mimic9SchedulerD1Ev>
    7b1f:	48 89 d8             	mov    %rbx,%rax
    7b22:	48 89 c7             	mov    %rax,%rdi
    7b25:	e8 76 aa ff ff       	callq  25a0 <_Unwind_Resume@plt>
    7b2a:	e8 c1 a9 ff ff       	callq  24f0 <__stack_chk_fail@plt>
    7b2f:	48 81 c4 88 04 00 00 	add    $0x488,%rsp
    7b36:	5b                   	pop    %rbx
    7b37:	5d                   	pop    %rbp
    7b38:	c3                   	retq   

0000000000007b39 <_Z41__static_initialization_and_destruction_0ii>:
    7b39:	f3 0f 1e fa          	endbr64 
    7b3d:	55                   	push   %rbp
    7b3e:	48 89 e5             	mov    %rsp,%rbp
    7b41:	48 83 ec 10          	sub    $0x10,%rsp
    7b45:	89 7d fc             	mov    %edi,-0x4(%rbp)
    7b48:	89 75 f8             	mov    %esi,-0x8(%rbp)
    7b4b:	83 7d fc 01          	cmpl   $0x1,-0x4(%rbp)
    7b4f:	75 32                	jne    7b83 <_Z41__static_initialization_and_destruction_0ii+0x4a>
    7b51:	81 7d f8 ff ff 00 00 	cmpl   $0xffff,-0x8(%rbp)
    7b58:	75 29                	jne    7b83 <_Z41__static_initialization_and_destruction_0ii+0x4a>
    7b5a:	48 8d 3d f8 85 00 00 	lea    0x85f8(%rip),%rdi        # 10159 <_ZStL8__ioinit>
    7b61:	e8 da a9 ff ff       	callq  2540 <_ZNSt8ios_base4InitC1Ev@plt>
    7b66:	48 8d 15 9b 84 00 00 	lea    0x849b(%rip),%rdx        # 10008 <__dso_handle>
    7b6d:	48 8d 35 e5 85 00 00 	lea    0x85e5(%rip),%rsi        # 10159 <_ZStL8__ioinit>
    7b74:	48 8b 05 75 84 00 00 	mov    0x8475(%rip),%rax        # fff0 <_ZNSt8ios_base4InitD1Ev@GLIBCXX_3.4>
    7b7b:	48 89 c7             	mov    %rax,%rdi
    7b7e:	e8 dd a8 ff ff       	callq  2460 <__cxa_atexit@plt>
    7b83:	90                   	nop
    7b84:	c9                   	leaveq 
    7b85:	c3                   	retq   

0000000000007b86 <_GLOBAL__sub_I__Z10coProducerPN15coroutine_mimic9SchedulerESt3any>:
    7b86:	f3 0f 1e fa          	endbr64 
    7b8a:	55                   	push   %rbp
    7b8b:	48 89 e5             	mov    %rsp,%rbp
    7b8e:	be ff ff 00 00       	mov    $0xffff,%esi
    7b93:	bf 01 00 00 00       	mov    $0x1,%edi
    7b98:	e8 9c ff ff ff       	callq  7b39 <_Z41__static_initialization_and_destruction_0ii>
    7b9d:	5d                   	pop    %rbp
    7b9e:	c3                   	retq   
    7b9f:	90                   	nop

0000000000007ba0 <_ZNSt9exceptionC1Ev>:
    7ba0:	f3 0f 1e fa          	endbr64 
    7ba4:	55                   	push   %rbp
    7ba5:	48 89 e5             	mov    %rsp,%rbp
    7ba8:	48 89 7d f8          	mov    %rdi,-0x8(%rbp)
    7bac:	48 8d 15 4d 7f 00 00 	lea    0x7f4d(%rip),%rdx        # fb00 <_ZTVSt9exception@@GLIBCXX_3.4+0x10>
    7bb3:	48 8b 45 f8          	mov    -0x8(%rbp),%rax
    7bb7:	48 89 10             	mov    %rdx,(%rax)
    7bba:	90                   	nop
    7bbb:	5d                   	pop    %rbp
    7bbc:	c3                   	retq   
    7bbd:	90                   	nop

0000000000007bbe <_ZNSt8bad_castC1Ev>:
    7bbe:	f3 0f 1e fa          	endbr64 
    7bc2:	55                   	push   %rbp
    7bc3:	48 89 e5             	mov    %rsp,%rbp
    7bc6:	48 83 ec 10          	sub    $0x10,%rsp
    7bca:	48 89 7d f8          	mov    %rdi,-0x8(%rbp)
    7bce:	48 8b 45 f8          	mov    -0x8(%rbp),%rax
    7bd2:	48 89 c7             	mov    %rax,%rdi
    7bd5:	e8 c6 ff ff ff       	callq  7ba0 <_ZNSt9exceptionC1Ev>
    7bda:	48 8d 15 df 7e 00 00 	lea    0x7edf(%rip),%rdx        # fac0 <_ZTVSt8bad_cast@@GLIBCXX_3.4+0x10>
    7be1:	48 8b 45 f8          	mov    -0x8(%rbp),%rax
    7be5:	48 89 10             	mov    %rdx,(%rax)
    7be8:	90                   	nop
    7be9:	c9                   	leaveq 
    7bea:	c3                   	retq   

0000000000007beb <_ZSt3minImERKT_S2_S2_>:
    7beb:	f3 0f 1e fa          	endbr64 
    7bef:	55                   	push   %rbp
    7bf0:	48 89 e5             	mov    %rsp,%rbp
    7bf3:	48 89 7d f8          	mov    %rdi,-0x8(%rbp)
    7bf7:	48 89 75 f0          	mov    %rsi,-0x10(%rbp)
    7bfb:	48 8b 45 f0          	mov    -0x10(%rbp),%rax
    7bff:	48 8b 10             	mov    (%rax),%rdx
    7c02:	48 8b 45 f8          	mov    -0x8(%rbp),%rax
    7c06:	48 8b 00             	mov    (%rax),%rax
    7c09:	48 39 c2             	cmp    %rax,%rdx
    7c0c:	73 06                	jae    7c14 <_ZSt3minImERKT_S2_S2_+0x29>
    7c0e:	48 8b 45 f0          	mov    -0x10(%rbp),%rax
    7c12:	eb 04                	jmp    7c18 <_ZSt3minImERKT_S2_S2_+0x2d>
    7c14:	48 8b 45 f8          	mov    -0x8(%rbp),%rax
    7c18:	5d                   	pop    %rbp
    7c19:	c3                   	retq   

0000000000007c1a <_ZNSt9_Any_data9_M_accessEv>:
    7c1a:	f3 0f 1e fa          	endbr64 
    7c1e:	55                   	push   %rbp
    7c1f:	48 89 e5             	mov    %rsp,%rbp
    7c22:	48 89 7d f8          	mov    %rdi,-0x8(%rbp)
    7c26:	48 8b 45 f8          	mov    -0x8(%rbp),%rax
    7c2a:	5d                   	pop    %rbp
    7c2b:	c3                   	retq   

0000000000007c2c <_ZNKSt9_Any_data9_M_accessEv>:
    7c2c:	f3 0f 1e fa          	endbr64 
    7c30:	55                   	push   %rbp
    7c31:	48 89 e5             	mov    %rsp,%rbp
    7c34:	48 89 7d f8          	mov    %rdi,-0x8(%rbp)
    7c38:	48 8b 45 f8          	mov    -0x8(%rbp),%rax
    7c3c:	5d                   	pop    %rbp
    7c3d:	c3                   	retq   

0000000000007c3e <_ZNKSt12bad_any_cast4whatEv>:
    7c3e:	f3 0f 1e fa          	endbr64 
    7c42:	55                   	push   %rbp
    7c43:	48 89 e5             	mov    %rsp,%rbp
    7c46:	48 89 7d f8          	mov    %rdi,-0x8(%rbp)
    7c4a:	48 8d 05 47 26 00 00 	lea    0x2647(%rip),%rax        # a298 <_ZN6__pstl9execution2v1L5unseqE+0x1>
    7c51:	5d                   	pop    %rbp
    7c52:	c3                   	retq   
    7c53:	90                   	nop

0000000000007c54 <_ZNSt12bad_any_castC1Ev>:
    7c54:	f3 0f 1e fa          	endbr64 
    7c58:	55                   	push   %rbp
    7c59:	48 89 e5             	mov    %rsp,%rbp
    7c5c:	48 83 ec 10          	sub    $0x10,%rsp
    7c60:	48 89 7d f8          	mov    %rdi,-0x8(%rbp)
    7c64:	48 8b 45 f8          	mov    -0x8(%rbp),%rax
    7c68:	48 89 c7             	mov    %rax,%rdi
    7c6b:	e8 4e ff ff ff       	callq  7bbe <_ZNSt8bad_castC1Ev>
    7c70:	48 8d 15 21 7e 00 00 	lea    0x7e21(%rip),%rdx        # fa98 <_ZTVSt12bad_any_cast+0x10>
    7c77:	48 8b 45 f8          	mov    -0x8(%rbp),%rax
    7c7b:	48 89 10             	mov    %rdx,(%rax)
    7c7e:	90                   	nop
    7c7f:	c9                   	leaveq 
    7c80:	c3                   	retq   

0000000000007c81 <_ZSt20__throw_bad_any_castv>:
    7c81:	f3 0f 1e fa          	endbr64 
    7c85:	55                   	push   %rbp
    7c86:	48 89 e5             	mov    %rsp,%rbp
    7c89:	53                   	push   %rbx
    7c8a:	48 83 ec 08          	sub    $0x8,%rsp
    7c8e:	bf 08 00 00 00       	mov    $0x8,%edi
    7c93:	e8 18 a7 ff ff       	callq  23b0 <__cxa_allocate_exception@plt>
    7c98:	48 89 c3             	mov    %rax,%rbx
    7c9b:	48 c7 03 00 00 00 00 	movq   $0x0,(%rbx)
    7ca2:	48 89 df             	mov    %rbx,%rdi
    7ca5:	e8 aa ff ff ff       	callq  7c54 <_ZNSt12bad_any_castC1Ev>
    7caa:	48 8d 15 d3 1e 00 00 	lea    0x1ed3(%rip),%rdx        # 9b84 <_ZNSt12bad_any_castD1Ev>
    7cb1:	48 8d 35 30 7f 00 00 	lea    0x7f30(%rip),%rsi        # fbe8 <_ZTVN10__cxxabiv120__si_class_type_infoE@CXXABI_1.3>
    7cb8:	48 89 df             	mov    %rbx,%rdi
    7cbb:	e8 d0 a8 ff ff       	callq  2590 <__cxa_throw@plt>

0000000000007cc0 <_ZNSt3anyC1EOS_>:
    7cc0:	f3 0f 1e fa          	endbr64 
    7cc4:	55                   	push   %rbp
    7cc5:	48 89 e5             	mov    %rsp,%rbp
    7cc8:	48 83 ec 20          	sub    $0x20,%rsp
    7ccc:	48 89 7d e8          	mov    %rdi,-0x18(%rbp)
    7cd0:	48 89 75 e0          	mov    %rsi,-0x20(%rbp)
    7cd4:	64 48 8b 04 25 28 00 	mov    %fs:0x28,%rax
    7cdb:	00 00 
    7cdd:	48 89 45 f8          	mov    %rax,-0x8(%rbp)
    7ce1:	31 c0                	xor    %eax,%eax
    7ce3:	48 8b 45 e8          	mov    -0x18(%rbp),%rax
    7ce7:	48 83 c0 08          	add    $0x8,%rax
    7ceb:	48 89 c7             	mov    %rax,%rdi
    7cee:	e8 af ba ff ff       	callq  37a2 <_ZNSt3any8_StorageC1Ev>
    7cf3:	48 8b 45 e0          	mov    -0x20(%rbp),%rax
    7cf7:	48 89 c7             	mov    %rax,%rdi
    7cfa:	e8 b1 bb ff ff       	callq  38b0 <_ZNKSt3any9has_valueEv>
    7cff:	83 f0 01             	xor    $0x1,%eax
    7d02:	84 c0                	test   %al,%al
    7d04:	74 0d                	je     7d13 <_ZNSt3anyC1EOS_+0x53>
    7d06:	48 8b 45 e8          	mov    -0x18(%rbp),%rax
    7d0a:	48 c7 00 00 00 00 00 	movq   $0x0,(%rax)
    7d11:	eb 21                	jmp    7d34 <_ZNSt3anyC1EOS_+0x74>
    7d13:	48 8b 45 e8          	mov    -0x18(%rbp),%rax
    7d17:	48 89 45 f0          	mov    %rax,-0x10(%rbp)
    7d1b:	48 8b 45 e0          	mov    -0x20(%rbp),%rax
    7d1f:	48 8b 08             	mov    (%rax),%rcx
    7d22:	48 8d 55 f0          	lea    -0x10(%rbp),%rdx
    7d26:	48 8b 45 e0          	mov    -0x20(%rbp),%rax
    7d2a:	48 89 c6             	mov    %rax,%rsi
    7d2d:	bf 04 00 00 00       	mov    $0x4,%edi
    7d32:	ff d1                	callq  *%rcx
    7d34:	90                   	nop
    7d35:	48 8b 45 f8          	mov    -0x8(%rbp),%rax
    7d39:	64 48 33 04 25 28 00 	xor    %fs:0x28,%rax
    7d40:	00 00 
    7d42:	74 05                	je     7d49 <_ZNSt3anyC1EOS_+0x89>
    7d44:	e8 a7 a7 ff ff       	callq  24f0 <__stack_chk_fail@plt>
    7d49:	c9                   	leaveq 
    7d4a:	c3                   	retq   
    7d4b:	90                   	nop

0000000000007d4c <_ZNKSt3any4typeEv>:
    7d4c:	f3 0f 1e fa          	endbr64 
    7d50:	55                   	push   %rbp
    7d51:	48 89 e5             	mov    %rsp,%rbp
    7d54:	48 83 ec 20          	sub    $0x20,%rsp
    7d58:	48 89 7d e8          	mov    %rdi,-0x18(%rbp)
    7d5c:	64 48 8b 04 25 28 00 	mov    %fs:0x28,%rax
    7d63:	00 00 
    7d65:	48 89 45 f8          	mov    %rax,-0x8(%rbp)
    7d69:	31 c0                	xor    %eax,%eax
    7d6b:	48 8b 45 e8          	mov    -0x18(%rbp),%rax
    7d6f:	48 89 c7             	mov    %rax,%rdi
    7d72:	e8 39 bb ff ff       	callq  38b0 <_ZNKSt3any9has_valueEv>
    7d77:	83 f0 01             	xor    $0x1,%eax
    7d7a:	84 c0                	test   %al,%al
    7d7c:	74 09                	je     7d87 <_ZNKSt3any4typeEv+0x3b>
    7d7e:	48 8d 05 5b 7d 00 00 	lea    0x7d5b(%rip),%rax        # fae0 <_ZTIv@@CXXABI_1.3>
    7d85:	eb 1d                	jmp    7da4 <_ZNKSt3any4typeEv+0x58>
    7d87:	48 8b 45 e8          	mov    -0x18(%rbp),%rax
    7d8b:	48 8b 08             	mov    (%rax),%rcx
    7d8e:	48 8d 55 f0          	lea    -0x10(%rbp),%rdx
    7d92:	48 8b 45 e8          	mov    -0x18(%rbp),%rax
    7d96:	48 89 c6             	mov    %rax,%rsi
    7d99:	bf 01 00 00 00       	mov    $0x1,%edi
    7d9e:	ff d1                	callq  *%rcx
    7da0:	48 8b 45 f0          	mov    -0x10(%rbp),%rax
    7da4:	48 8b 75 f8          	mov    -0x8(%rbp),%rsi
    7da8:	64 48 33 34 25 28 00 	xor    %fs:0x28,%rsi
    7daf:	00 00 
    7db1:	74 05                	je     7db8 <_ZNKSt3any4typeEv+0x6c>
    7db3:	e8 38 a7 ff ff       	callq  24f0 <__stack_chk_fail@plt>
    7db8:	c9                   	leaveq 
    7db9:	c3                   	retq   

0000000000007dba <_ZSt16__deque_buf_sizem>:
    7dba:	f3 0f 1e fa          	endbr64 
    7dbe:	55                   	push   %rbp
    7dbf:	48 89 e5             	mov    %rsp,%rbp
    7dc2:	48 89 7d f8          	mov    %rdi,-0x8(%rbp)
    7dc6:	48 81 7d f8 ff 01 00 	cmpq   $0x1ff,-0x8(%rbp)
    7dcd:	00 
    7dce:	77 10                	ja     7de0 <_ZSt16__deque_buf_sizem+0x26>
    7dd0:	b8 00 02 00 00       	mov    $0x200,%eax
    7dd5:	ba 00 00 00 00       	mov    $0x0,%edx
    7dda:	48 f7 75 f8          	divq   -0x8(%rbp)
    7dde:	eb 05                	jmp    7de5 <_ZSt16__deque_buf_sizem+0x2b>
    7de0:	b8 01 00 00 00       	mov    $0x1,%eax
    7de5:	5d                   	pop    %rbp
    7de6:	c3                   	retq   
    7de7:	90                   	nop

0000000000007de8 <_ZNSt5queueIiSt5dequeIiSaIiEEED1Ev>:
    7de8:	f3 0f 1e fa          	endbr64 
    7dec:	55                   	push   %rbp
    7ded:	48 89 e5             	mov    %rsp,%rbp
    7df0:	48 83 ec 10          	sub    $0x10,%rsp
    7df4:	48 89 7d f8          	mov    %rdi,-0x8(%rbp)
    7df8:	48 8b 45 f8          	mov    -0x8(%rbp),%rax
    7dfc:	48 89 c7             	mov    %rax,%rdi
    7dff:	e8 00 02 00 00       	callq  8004 <_ZNSt5dequeIiSaIiEED1Ev>
    7e04:	90                   	nop
    7e05:	c9                   	leaveq 
    7e06:	c3                   	retq   

0000000000007e07 <_ZSt3maxImERKT_S2_S2_>:
    7e07:	f3 0f 1e fa          	endbr64 
    7e0b:	55                   	push   %rbp
    7e0c:	48 89 e5             	mov    %rsp,%rbp
    7e0f:	48 89 7d f8          	mov    %rdi,-0x8(%rbp)
    7e13:	48 89 75 f0          	mov    %rsi,-0x10(%rbp)
    7e17:	48 8b 45 f8          	mov    -0x8(%rbp),%rax
    7e1b:	48 8b 10             	mov    (%rax),%rdx
    7e1e:	48 8b 45 f0          	mov    -0x10(%rbp),%rax
    7e22:	48 8b 00             	mov    (%rax),%rax
    7e25:	48 39 c2             	cmp    %rax,%rdx
    7e28:	73 06                	jae    7e30 <_ZSt3maxImERKT_S2_S2_+0x29>
    7e2a:	48 8b 45 f0          	mov    -0x10(%rbp),%rax
    7e2e:	eb 04                	jmp    7e34 <_ZSt3maxImERKT_S2_S2_+0x2d>
    7e30:	48 8b 45 f8          	mov    -0x8(%rbp),%rax
    7e34:	5d                   	pop    %rbp
    7e35:	c3                   	retq   

0000000000007e36 <_ZSt7forwardIiEOT_RNSt16remove_referenceIS0_E4typeE>:
    7e36:	f3 0f 1e fa          	endbr64 
    7e3a:	55                   	push   %rbp
    7e3b:	48 89 e5             	mov    %rsp,%rbp
    7e3e:	48 89 7d f8          	mov    %rdi,-0x8(%rbp)
    7e42:	48 8b 45 f8          	mov    -0x8(%rbp),%rax
    7e46:	5d                   	pop    %rbp
    7e47:	c3                   	retq   

0000000000007e48 <_ZSt8any_castIPSt5queueIiSt5dequeIiSaIiEEEET_RSt3any>:
    7e48:	f3 0f 1e fa          	endbr64 
    7e4c:	55                   	push   %rbp
    7e4d:	48 89 e5             	mov    %rsp,%rbp
    7e50:	48 83 ec 20          	sub    $0x20,%rsp
    7e54:	48 89 7d e8          	mov    %rdi,-0x18(%rbp)
    7e58:	48 8b 45 e8          	mov    -0x18(%rbp),%rax
    7e5c:	48 89 c7             	mov    %rax,%rdi
    7e5f:	e8 34 02 00 00       	callq  8098 <_ZSt8any_castIPSt5queueIiSt5dequeIiSaIiEEEEPT_PSt3any>
    7e64:	48 89 45 f8          	mov    %rax,-0x8(%rbp)
    7e68:	48 83 7d f8 00       	cmpq   $0x0,-0x8(%rbp)
    7e6d:	74 09                	je     7e78 <_ZSt8any_castIPSt5queueIiSt5dequeIiSaIiEEEET_RSt3any+0x30>
    7e6f:	48 8b 45 f8          	mov    -0x8(%rbp),%rax
    7e73:	48 8b 00             	mov    (%rax),%rax
    7e76:	eb 05                	jmp    7e7d <_ZSt8any_castIPSt5queueIiSt5dequeIiSaIiEEEET_RSt3any+0x35>
    7e78:	e8 04 fe ff ff       	callq  7c81 <_ZSt20__throw_bad_any_castv>
    7e7d:	c9                   	leaveq 
    7e7e:	c3                   	retq   
    7e7f:	90                   	nop

0000000000007e80 <_ZNSt5queueIiSt5dequeIiSaIiEEE4pushEOi>:
    7e80:	f3 0f 1e fa          	endbr64 
    7e84:	55                   	push   %rbp
    7e85:	48 89 e5             	mov    %rsp,%rbp
    7e88:	53                   	push   %rbx
    7e89:	48 83 ec 18          	sub    $0x18,%rsp
    7e8d:	48 89 7d e8          	mov    %rdi,-0x18(%rbp)
    7e91:	48 89 75 e0          	mov    %rsi,-0x20(%rbp)
    7e95:	48 8b 5d e8          	mov    -0x18(%rbp),%rbx
    7e99:	48 8b 45 e0          	mov    -0x20(%rbp),%rax
    7e9d:	48 89 c7             	mov    %rax,%rdi
    7ea0:	e8 1f 02 00 00       	callq  80c4 <_ZSt4moveIRiEONSt16remove_referenceIT_E4typeEOS2_>
    7ea5:	48 89 c6             	mov    %rax,%rsi
    7ea8:	48 89 df             	mov    %rbx,%rdi
    7eab:	e8 26 02 00 00       	callq  80d6 <_ZNSt5dequeIiSaIiEE9push_backEOi>
    7eb0:	90                   	nop
    7eb1:	48 83 c4 18          	add    $0x18,%rsp
    7eb5:	5b                   	pop    %rbx
    7eb6:	5d                   	pop    %rbp
    7eb7:	c3                   	retq   

0000000000007eb8 <_ZNSt5queueIiSt5dequeIiSaIiEEE5frontEv>:
    7eb8:	f3 0f 1e fa          	endbr64 
    7ebc:	55                   	push   %rbp
    7ebd:	48 89 e5             	mov    %rsp,%rbp
    7ec0:	48 83 ec 10          	sub    $0x10,%rsp
    7ec4:	48 89 7d f8          	mov    %rdi,-0x8(%rbp)
    7ec8:	48 8b 45 f8          	mov    -0x8(%rbp),%rax
    7ecc:	48 89 c7             	mov    %rax,%rdi
    7ecf:	e8 38 02 00 00       	callq  810c <_ZNSt5dequeIiSaIiEE5frontEv>
    7ed4:	c9                   	leaveq 
    7ed5:	c3                   	retq   

0000000000007ed6 <_ZNSt5queueIiSt5dequeIiSaIiEEE3popEv>:
    7ed6:	f3 0f 1e fa          	endbr64 
    7eda:	55                   	push   %rbp
    7edb:	48 89 e5             	mov    %rsp,%rbp
    7ede:	48 83 ec 10          	sub    $0x10,%rsp
    7ee2:	48 89 7d f8          	mov    %rdi,-0x8(%rbp)
    7ee6:	48 8b 45 f8          	mov    -0x8(%rbp),%rax
    7eea:	48 89 c7             	mov    %rax,%rdi
    7eed:	e8 6e 02 00 00       	callq  8160 <_ZNSt5dequeIiSaIiEE9pop_frontEv>
    7ef2:	90                   	nop
    7ef3:	c9                   	leaveq 
    7ef4:	c3                   	retq   
    7ef5:	90                   	nop

0000000000007ef6 <_ZNSt8functionIFvPN15coroutine_mimic9SchedulerESt3anyEEC1IPS4_vvEET_>:
    7ef6:	f3 0f 1e fa          	endbr64 
    7efa:	55                   	push   %rbp
    7efb:	48 89 e5             	mov    %rsp,%rbp
    7efe:	53                   	push   %rbx
    7eff:	48 83 ec 18          	sub    $0x18,%rsp
    7f03:	48 89 7d e8          	mov    %rdi,-0x18(%rbp)
    7f07:	48 89 75 e0          	mov    %rsi,-0x20(%rbp)
    7f0b:	48 8b 45 e8          	mov    -0x18(%rbp),%rax
    7f0f:	48 89 c7             	mov    %rax,%rdi
    7f12:	e8 15 b8 ff ff       	callq  372c <_ZNSt14_Function_baseC1Ev>
    7f17:	48 8b 45 e0          	mov    -0x20(%rbp),%rax
    7f1b:	48 89 c7             	mov    %rax,%rdi
    7f1e:	e8 a2 02 00 00       	callq  81c5 <_ZNSt14_Function_base13_Base_managerIPFvPN15coroutine_mimic9SchedulerESt3anyEE21_M_not_empty_functionIS5_EEbPT_>
    7f23:	84 c0                	test   %al,%al
    7f25:	74 5c                	je     7f83 <_ZNSt8functionIFvPN15coroutine_mimic9SchedulerESt3anyEEC1IPS4_vvEET_+0x8d>
    7f27:	48 8d 45 e0          	lea    -0x20(%rbp),%rax
    7f2b:	48 89 c7             	mov    %rax,%rdi
    7f2e:	e8 a8 02 00 00       	callq  81db <_ZSt4moveIRPFvPN15coroutine_mimic9SchedulerESt3anyEEONSt16remove_referenceIT_E4typeEOS8_>
    7f33:	48 89 c2             	mov    %rax,%rdx
    7f36:	48 8b 45 e8          	mov    -0x18(%rbp),%rax
    7f3a:	48 89 d6             	mov    %rdx,%rsi
    7f3d:	48 89 c7             	mov    %rax,%rdi
    7f40:	e8 a8 02 00 00       	callq  81ed <_ZNSt14_Function_base13_Base_managerIPFvPN15coroutine_mimic9SchedulerESt3anyEE15_M_init_functorERSt9_Any_dataOS6_>
    7f45:	48 8b 45 e8          	mov    -0x18(%rbp),%rax
    7f49:	48 8d 15 f5 02 00 00 	lea    0x2f5(%rip),%rdx        # 8245 <_ZNSt17_Function_handlerIFvPN15coroutine_mimic9SchedulerESt3anyEPS4_E9_M_invokeERKSt9_Any_dataOS2_OS3_>
    7f50:	48 89 50 18          	mov    %rdx,0x18(%rax)
    7f54:	48 8b 45 e8          	mov    -0x18(%rbp),%rax
    7f58:	48 8d 15 9e 03 00 00 	lea    0x39e(%rip),%rdx        # 82fd <_ZNSt14_Function_base13_Base_managerIPFvPN15coroutine_mimic9SchedulerESt3anyEE10_M_managerERSt9_Any_dataRKS8_St18_Manager_operation>
    7f5f:	48 89 50 10          	mov    %rdx,0x10(%rax)
    7f63:	eb 1e                	jmp    7f83 <_ZNSt8functionIFvPN15coroutine_mimic9SchedulerESt3anyEEC1IPS4_vvEET_+0x8d>
    7f65:	f3 0f 1e fa          	endbr64 
    7f69:	48 89 c3             	mov    %rax,%rbx
    7f6c:	48 8b 45 e8          	mov    -0x18(%rbp),%rax
    7f70:	48 89 c7             	mov    %rax,%rdi
    7f73:	e8 d0 b7 ff ff       	callq  3748 <_ZNSt14_Function_baseD1Ev>
    7f78:	48 89 d8             	mov    %rbx,%rax
    7f7b:	48 89 c7             	mov    %rax,%rdi
    7f7e:	e8 1d a6 ff ff       	callq  25a0 <_Unwind_Resume@plt>
    7f83:	90                   	nop
    7f84:	48 83 c4 18          	add    $0x18,%rsp
    7f88:	5b                   	pop    %rbx
    7f89:	5d                   	pop    %rbp
    7f8a:	c3                   	retq   
    7f8b:	90                   	nop

0000000000007f8c <_ZNSt3anyC1IPSt5queueIiSt5dequeIiSaIiEEES6_NS_17_Manager_internalIS6_EELb1ELb1EEEOT_>:
    7f8c:	f3 0f 1e fa          	endbr64 
    7f90:	55                   	push   %rbp
    7f91:	48 89 e5             	mov    %rsp,%rbp
    7f94:	48 83 ec 10          	sub    $0x10,%rsp
    7f98:	48 89 7d f8          	mov    %rdi,-0x8(%rbp)
    7f9c:	48 89 75 f0          	mov    %rsi,-0x10(%rbp)
    7fa0:	48 8b 45 f8          	mov    -0x8(%rbp),%rax
    7fa4:	48 8d 15 15 04 00 00 	lea    0x415(%rip),%rdx        # 83c0 <_ZNSt3any17_Manager_internalIPSt5queueIiSt5dequeIiSaIiEEEE9_S_manageENS_3_OpEPKS_PNS_4_ArgE>
    7fab:	48 89 10             	mov    %rdx,(%rax)
    7fae:	48 8b 45 f8          	mov    -0x8(%rbp),%rax
    7fb2:	48 83 c0 08          	add    $0x8,%rax
    7fb6:	48 89 c7             	mov    %rax,%rdi
    7fb9:	e8 e4 b7 ff ff       	callq  37a2 <_ZNSt3any8_StorageC1Ev>
    7fbe:	48 8b 45 f0          	mov    -0x10(%rbp),%rax
    7fc2:	48 89 c7             	mov    %rax,%rdi
    7fc5:	e8 ef 04 00 00       	callq  84b9 <_ZSt7forwardIPSt5queueIiSt5dequeIiSaIiEEEEOT_RNSt16remove_referenceIS6_E4typeE>
    7fca:	48 89 c2             	mov    %rax,%rdx
    7fcd:	48 8b 45 f8          	mov    -0x8(%rbp),%rax
    7fd1:	48 83 c0 08          	add    $0x8,%rax
    7fd5:	48 89 d6             	mov    %rdx,%rsi
    7fd8:	48 89 c7             	mov    %rax,%rdi
    7fdb:	e8 eb 04 00 00       	callq  84cb <_ZNSt3any17_Manager_internalIPSt5queueIiSt5dequeIiSaIiEEEE9_S_createIS6_EEvRNS_8_StorageEOT_>
    7fe0:	90                   	nop
    7fe1:	c9                   	leaveq 
    7fe2:	c3                   	retq   
    7fe3:	90                   	nop

0000000000007fe4 <_ZNSt5queueIiSt5dequeIiSaIiEEEC1IS2_vEEv>:
    7fe4:	f3 0f 1e fa          	endbr64 
    7fe8:	55                   	push   %rbp
    7fe9:	48 89 e5             	mov    %rsp,%rbp
    7fec:	48 83 ec 10          	sub    $0x10,%rsp
    7ff0:	48 89 7d f8          	mov    %rdi,-0x8(%rbp)
    7ff4:	48 8b 45 f8          	mov    -0x8(%rbp),%rax
    7ff8:	48 89 c7             	mov    %rax,%rdi
    7ffb:	e8 14 05 00 00       	callq  8514 <_ZNSt5dequeIiSaIiEEC1Ev>
    8000:	90                   	nop
    8001:	c9                   	leaveq 
    8002:	c3                   	retq   
    8003:	90                   	nop

0000000000008004 <_ZNSt5dequeIiSaIiEED1Ev>:
    8004:	f3 0f 1e fa          	endbr64 
    8008:	55                   	push   %rbp
    8009:	48 89 e5             	mov    %rsp,%rbp
    800c:	53                   	push   %rbx
    800d:	48 83 ec 68          	sub    $0x68,%rsp
    8011:	48 89 7d 98          	mov    %rdi,-0x68(%rbp)
    8015:	64 48 8b 04 25 28 00 	mov    %fs:0x28,%rax
    801c:	00 00 
    801e:	48 89 45 e8          	mov    %rax,-0x18(%rbp)
    8022:	31 c0                	xor    %eax,%eax
    8024:	48 8b 45 98          	mov    -0x68(%rbp),%rax
    8028:	48 89 c7             	mov    %rax,%rdi
    802b:	e8 f4 05 00 00       	callq  8624 <_ZNSt11_Deque_baseIiSaIiEE19_M_get_Tp_allocatorEv>
    8030:	48 89 c3             	mov    %rax,%rbx
    8033:	48 8d 45 c0          	lea    -0x40(%rbp),%rax
    8037:	48 8b 55 98          	mov    -0x68(%rbp),%rdx
    803b:	48 89 d6             	mov    %rdx,%rsi
    803e:	48 89 c7             	mov    %rax,%rdi
    8041:	e8 ac 05 00 00       	callq  85f2 <_ZNSt5dequeIiSaIiEE3endEv>
    8046:	48 8d 45 a0          	lea    -0x60(%rbp),%rax
    804a:	48 8b 55 98          	mov    -0x68(%rbp),%rdx
    804e:	48 89 d6             	mov    %rdx,%rsi
    8051:	48 89 c7             	mov    %rax,%rdi
    8054:	e8 67 05 00 00       	callq  85c0 <_ZNSt5dequeIiSaIiEE5beginEv>
    8059:	48 8d 55 c0          	lea    -0x40(%rbp),%rdx
    805d:	48 8d 75 a0          	lea    -0x60(%rbp),%rsi
    8061:	48 8b 45 98          	mov    -0x68(%rbp),%rax
    8065:	48 89 d9             	mov    %rbx,%rcx
    8068:	48 89 c7             	mov    %rax,%rdi
    806b:	e8 c6 05 00 00       	callq  8636 <_ZNSt5dequeIiSaIiEE15_M_destroy_dataESt15_Deque_iteratorIiRiPiES5_RKS0_>
    8070:	48 8b 45 98          	mov    -0x68(%rbp),%rax
    8074:	48 89 c7             	mov    %rax,%rdi
    8077:	e8 d8 04 00 00       	callq  8554 <_ZNSt11_Deque_baseIiSaIiEED1Ev>
    807c:	90                   	nop
    807d:	48 8b 45 e8          	mov    -0x18(%rbp),%rax
    8081:	64 48 33 04 25 28 00 	xor    %fs:0x28,%rax
    8088:	00 00 
    808a:	74 05                	je     8091 <_ZNSt5dequeIiSaIiEED1Ev+0x8d>
    808c:	e8 5f a4 ff ff       	callq  24f0 <__stack_chk_fail@plt>
    8091:	48 83 c4 68          	add    $0x68,%rsp
    8095:	5b                   	pop    %rbx
    8096:	5d                   	pop    %rbp
    8097:	c3                   	retq   

0000000000008098 <_ZSt8any_castIPSt5queueIiSt5dequeIiSaIiEEEEPT_PSt3any>:
    8098:	f3 0f 1e fa          	endbr64 
    809c:	55                   	push   %rbp
    809d:	48 89 e5             	mov    %rsp,%rbp
    80a0:	48 83 ec 10          	sub    $0x10,%rsp
    80a4:	48 89 7d f8          	mov    %rdi,-0x8(%rbp)
    80a8:	48 83 7d f8 00       	cmpq   $0x0,-0x8(%rbp)
    80ad:	74 0e                	je     80bd <_ZSt8any_castIPSt5queueIiSt5dequeIiSaIiEEEEPT_PSt3any+0x25>
    80af:	48 8b 45 f8          	mov    -0x8(%rbp),%rax
    80b3:	48 89 c7             	mov    %rax,%rdi
    80b6:	e8 bd 05 00 00       	callq  8678 <_ZSt12__any_casterIPSt5queueIiSt5dequeIiSaIiEEEEPvPKSt3any>
    80bb:	eb 05                	jmp    80c2 <_ZSt8any_castIPSt5queueIiSt5dequeIiSaIiEEEEPT_PSt3any+0x2a>
    80bd:	b8 00 00 00 00       	mov    $0x0,%eax
    80c2:	c9                   	leaveq 
    80c3:	c3                   	retq   

00000000000080c4 <_ZSt4moveIRiEONSt16remove_referenceIT_E4typeEOS2_>:
    80c4:	f3 0f 1e fa          	endbr64 
    80c8:	55                   	push   %rbp
    80c9:	48 89 e5             	mov    %rsp,%rbp
    80cc:	48 89 7d f8          	mov    %rdi,-0x8(%rbp)
    80d0:	48 8b 45 f8          	mov    -0x8(%rbp),%rax
    80d4:	5d                   	pop    %rbp
    80d5:	c3                   	retq   

00000000000080d6 <_ZNSt5dequeIiSaIiEE9push_backEOi>:
    80d6:	f3 0f 1e fa          	endbr64 
    80da:	55                   	push   %rbp
    80db:	48 89 e5             	mov    %rsp,%rbp
    80de:	48 83 ec 10          	sub    $0x10,%rsp
    80e2:	48 89 7d f8          	mov    %rdi,-0x8(%rbp)
    80e6:	48 89 75 f0          	mov    %rsi,-0x10(%rbp)
    80ea:	48 8b 45 f0          	mov    -0x10(%rbp),%rax
    80ee:	48 89 c7             	mov    %rax,%rdi
    80f1:	e8 ce ff ff ff       	callq  80c4 <_ZSt4moveIRiEONSt16remove_referenceIT_E4typeEOS2_>
    80f6:	48 89 c2             	mov    %rax,%rdx
    80f9:	48 8b 45 f8          	mov    -0x8(%rbp),%rax
    80fd:	48 89 d6             	mov    %rdx,%rsi
    8100:	48 89 c7             	mov    %rax,%rdi
    8103:	e8 0c 06 00 00       	callq  8714 <_ZNSt5dequeIiSaIiEE12emplace_backIJiEEERiDpOT_>
    8108:	90                   	nop
    8109:	c9                   	leaveq 
    810a:	c3                   	retq   
    810b:	90                   	nop

000000000000810c <_ZNSt5dequeIiSaIiEE5frontEv>:
    810c:	f3 0f 1e fa          	endbr64 
    8110:	55                   	push   %rbp
    8111:	48 89 e5             	mov    %rsp,%rbp
    8114:	48 83 ec 40          	sub    $0x40,%rsp
    8118:	48 89 7d c8          	mov    %rdi,-0x38(%rbp)
    811c:	64 48 8b 04 25 28 00 	mov    %fs:0x28,%rax
    8123:	00 00 
    8125:	48 89 45 f8          	mov    %rax,-0x8(%rbp)
    8129:	31 c0                	xor    %eax,%eax
    812b:	48 8d 45 d0          	lea    -0x30(%rbp),%rax
    812f:	48 8b 55 c8          	mov    -0x38(%rbp),%rdx
    8133:	48 89 d6             	mov    %rdx,%rsi
    8136:	48 89 c7             	mov    %rax,%rdi
    8139:	e8 82 04 00 00       	callq  85c0 <_ZNSt5dequeIiSaIiEE5beginEv>
    813e:	48 8d 45 d0          	lea    -0x30(%rbp),%rax
    8142:	48 89 c7             	mov    %rax,%rdi
    8145:	e8 60 06 00 00       	callq  87aa <_ZNKSt15_Deque_iteratorIiRiPiEdeEv>
    814a:	48 8b 4d f8          	mov    -0x8(%rbp),%rcx
    814e:	64 48 33 0c 25 28 00 	xor    %fs:0x28,%rcx
    8155:	00 00 
    8157:	74 05                	je     815e <_ZNSt5dequeIiSaIiEE5frontEv+0x52>
    8159:	e8 92 a3 ff ff       	callq  24f0 <__stack_chk_fail@plt>
    815e:	c9                   	leaveq 
    815f:	c3                   	retq   

0000000000008160 <_ZNSt5dequeIiSaIiEE9pop_frontEv>:
    8160:	f3 0f 1e fa          	endbr64 
    8164:	55                   	push   %rbp
    8165:	48 89 e5             	mov    %rsp,%rbp
    8168:	48 83 ec 10          	sub    $0x10,%rsp
    816c:	48 89 7d f8          	mov    %rdi,-0x8(%rbp)
    8170:	48 8b 45 f8          	mov    -0x8(%rbp),%rax
    8174:	48 8b 50 10          	mov    0x10(%rax),%rdx
    8178:	48 8b 45 f8          	mov    -0x8(%rbp),%rax
    817c:	48 8b 40 20          	mov    0x20(%rax),%rax
    8180:	48 83 e8 04          	sub    $0x4,%rax
    8184:	48 39 c2             	cmp    %rax,%rdx
    8187:	74 2d                	je     81b6 <_ZNSt5dequeIiSaIiEE9pop_frontEv+0x56>
    8189:	48 8b 45 f8          	mov    -0x8(%rbp),%rax
    818d:	48 8b 50 10          	mov    0x10(%rax),%rdx
    8191:	48 8b 45 f8          	mov    -0x8(%rbp),%rax
    8195:	48 89 d6             	mov    %rdx,%rsi
    8198:	48 89 c7             	mov    %rax,%rdi
    819b:	e8 1f 06 00 00       	callq  87bf <_ZNSt16allocator_traitsISaIiEE7destroyIiEEvRS0_PT_>
    81a0:	48 8b 45 f8          	mov    -0x8(%rbp),%rax
    81a4:	48 8b 40 10          	mov    0x10(%rax),%rax
    81a8:	48 8d 50 04          	lea    0x4(%rax),%rdx
    81ac:	48 8b 45 f8          	mov    -0x8(%rbp),%rax
    81b0:	48 89 50 10          	mov    %rdx,0x10(%rax)
    81b4:	eb 0c                	jmp    81c2 <_ZNSt5dequeIiSaIiEE9pop_frontEv+0x62>
    81b6:	48 8b 45 f8          	mov    -0x8(%rbp),%rax
    81ba:	48 89 c7             	mov    %rax,%rdi
    81bd:	e8 28 06 00 00       	callq  87ea <_ZNSt5dequeIiSaIiEE16_M_pop_front_auxEv>
    81c2:	90                   	nop
    81c3:	c9                   	leaveq 
    81c4:	c3                   	retq   

00000000000081c5 <_ZNSt14_Function_base13_Base_managerIPFvPN15coroutine_mimic9SchedulerESt3anyEE21_M_not_empty_functionIS5_EEbPT_>:
    81c5:	f3 0f 1e fa          	endbr64 
    81c9:	55                   	push   %rbp
    81ca:	48 89 e5             	mov    %rsp,%rbp
    81cd:	48 89 7d f8          	mov    %rdi,-0x8(%rbp)
    81d1:	48 83 7d f8 00       	cmpq   $0x0,-0x8(%rbp)
    81d6:	0f 95 c0             	setne  %al
    81d9:	5d                   	pop    %rbp
    81da:	c3                   	retq   

00000000000081db <_ZSt4moveIRPFvPN15coroutine_mimic9SchedulerESt3anyEEONSt16remove_referenceIT_E4typeEOS8_>:
    81db:	f3 0f 1e fa          	endbr64 
    81df:	55                   	push   %rbp
    81e0:	48 89 e5             	mov    %rsp,%rbp
    81e3:	48 89 7d f8          	mov    %rdi,-0x8(%rbp)
    81e7:	48 8b 45 f8          	mov    -0x8(%rbp),%rax
    81eb:	5d                   	pop    %rbp
    81ec:	c3                   	retq   

00000000000081ed <_ZNSt14_Function_base13_Base_managerIPFvPN15coroutine_mimic9SchedulerESt3anyEE15_M_init_functorERSt9_Any_dataOS6_>:
    81ed:	f3 0f 1e fa          	endbr64 
    81f1:	55                   	push   %rbp
    81f2:	48 89 e5             	mov    %rsp,%rbp
    81f5:	48 83 ec 20          	sub    $0x20,%rsp
    81f9:	48 89 7d e8          	mov    %rdi,-0x18(%rbp)
    81fd:	48 89 75 e0          	mov    %rsi,-0x20(%rbp)
    8201:	64 48 8b 04 25 28 00 	mov    %fs:0x28,%rax
    8208:	00 00 
    820a:	48 89 45 f8          	mov    %rax,-0x8(%rbp)
    820e:	31 c0                	xor    %eax,%eax
    8210:	48 8b 45 e0          	mov    -0x20(%rbp),%rax
    8214:	48 89 c7             	mov    %rax,%rdi
    8217:	e8 bf ff ff ff       	callq  81db <_ZSt4moveIRPFvPN15coroutine_mimic9SchedulerESt3anyEEONSt16remove_referenceIT_E4typeEOS8_>
    821c:	48 89 c2             	mov    %rax,%rdx
    821f:	48 8b 45 e8          	mov    -0x18(%rbp),%rax
    8223:	48 89 d6             	mov    %rdx,%rsi
    8226:	48 89 c7             	mov    %rax,%rdi
    8229:	e8 3a 06 00 00       	callq  8868 <_ZNSt14_Function_base13_Base_managerIPFvPN15coroutine_mimic9SchedulerESt3anyEE15_M_init_functorERSt9_Any_dataOS6_St17integral_constantIbLb1EE>
    822e:	90                   	nop
    822f:	48 8b 45 f8          	mov    -0x8(%rbp),%rax
    8233:	64 48 33 04 25 28 00 	xor    %fs:0x28,%rax
    823a:	00 00 
    823c:	74 05                	je     8243 <_ZNSt14_Function_base13_Base_managerIPFvPN15coroutine_mimic9SchedulerESt3anyEE15_M_init_functorERSt9_Any_dataOS6_+0x56>
    823e:	e8 ad a2 ff ff       	callq  24f0 <__stack_chk_fail@plt>
    8243:	c9                   	leaveq 
    8244:	c3                   	retq   

0000000000008245 <_ZNSt17_Function_handlerIFvPN15coroutine_mimic9SchedulerESt3anyEPS4_E9_M_invokeERKSt9_Any_dataOS2_OS3_>:
    8245:	f3 0f 1e fa          	endbr64 
    8249:	55                   	push   %rbp
    824a:	48 89 e5             	mov    %rsp,%rbp
    824d:	53                   	push   %rbx
    824e:	48 83 ec 48          	sub    $0x48,%rsp
    8252:	48 89 7d c8          	mov    %rdi,-0x38(%rbp)
    8256:	48 89 75 c0          	mov    %rsi,-0x40(%rbp)
    825a:	48 89 55 b8          	mov    %rdx,-0x48(%rbp)
    825e:	64 48 8b 04 25 28 00 	mov    %fs:0x28,%rax
    8265:	00 00 
    8267:	48 89 45 e8          	mov    %rax,-0x18(%rbp)
    826b:	31 c0                	xor    %eax,%eax
    826d:	48 8b 45 c8          	mov    -0x38(%rbp),%rax
    8271:	48 89 c7             	mov    %rax,%rdi
    8274:	e8 37 06 00 00       	callq  88b0 <_ZNSt14_Function_base13_Base_managerIPFvPN15coroutine_mimic9SchedulerESt3anyEE14_M_get_pointerERKSt9_Any_data>
    8279:	48 8b 18             	mov    (%rax),%rbx
    827c:	48 8b 45 b8          	mov    -0x48(%rbp),%rax
    8280:	48 89 c7             	mov    %rax,%rdi
    8283:	e8 ff c7 ff ff       	callq  4a87 <_ZSt7forwardISt3anyEOT_RNSt16remove_referenceIS1_E4typeE>
    8288:	48 89 c2             	mov    %rax,%rdx
    828b:	48 8d 45 d0          	lea    -0x30(%rbp),%rax
    828f:	48 89 d6             	mov    %rdx,%rsi
    8292:	48 89 c7             	mov    %rax,%rdi
    8295:	e8 26 fa ff ff       	callq  7cc0 <_ZNSt3anyC1EOS_>
    829a:	48 8b 45 c0          	mov    -0x40(%rbp),%rax
    829e:	48 89 c7             	mov    %rax,%rdi
    82a1:	e8 13 c4 ff ff       	callq  46b9 <_ZSt7forwardIPN15coroutine_mimic9SchedulerEEOT_RNSt16remove_referenceIS3_E4typeE>
    82a6:	48 8b 00             	mov    (%rax),%rax
    82a9:	48 8d 55 d0          	lea    -0x30(%rbp),%rdx
    82ad:	48 89 d6             	mov    %rdx,%rsi
    82b0:	48 89 c7             	mov    %rax,%rdi
    82b3:	ff d3                	callq  *%rbx
    82b5:	48 8d 45 d0          	lea    -0x30(%rbp),%rax
    82b9:	48 89 c7             	mov    %rax,%rdi
    82bc:	e8 87 b5 ff ff       	callq  3848 <_ZNSt3anyD1Ev>
    82c1:	90                   	nop
    82c2:	48 8b 45 e8          	mov    -0x18(%rbp),%rax
    82c6:	64 48 33 04 25 28 00 	xor    %fs:0x28,%rax
    82cd:	00 00 
    82cf:	74 25                	je     82f6 <_ZNSt17_Function_handlerIFvPN15coroutine_mimic9SchedulerESt3anyEPS4_E9_M_invokeERKSt9_Any_dataOS2_OS3_+0xb1>
    82d1:	eb 1e                	jmp    82f1 <_ZNSt17_Function_handlerIFvPN15coroutine_mimic9SchedulerESt3anyEPS4_E9_M_invokeERKSt9_Any_dataOS2_OS3_+0xac>
    82d3:	f3 0f 1e fa          	endbr64 
    82d7:	48 89 c3             	mov    %rax,%rbx
    82da:	48 8d 45 d0          	lea    -0x30(%rbp),%rax
    82de:	48 89 c7             	mov    %rax,%rdi
    82e1:	e8 62 b5 ff ff       	callq  3848 <_ZNSt3anyD1Ev>
    82e6:	48 89 d8             	mov    %rbx,%rax
    82e9:	48 89 c7             	mov    %rax,%rdi
    82ec:	e8 af a2 ff ff       	callq  25a0 <_Unwind_Resume@plt>
    82f1:	e8 fa a1 ff ff       	callq  24f0 <__stack_chk_fail@plt>
    82f6:	48 83 c4 48          	add    $0x48,%rsp
    82fa:	5b                   	pop    %rbx
    82fb:	5d                   	pop    %rbp
    82fc:	c3                   	retq   

00000000000082fd <_ZNSt14_Function_base13_Base_managerIPFvPN15coroutine_mimic9SchedulerESt3anyEE10_M_managerERSt9_Any_dataRKS8_St18_Manager_operation>:
    82fd:	f3 0f 1e fa          	endbr64 
    8301:	55                   	push   %rbp
    8302:	48 89 e5             	mov    %rsp,%rbp
    8305:	53                   	push   %rbx
    8306:	48 83 ec 38          	sub    $0x38,%rsp
    830a:	48 89 7d d8          	mov    %rdi,-0x28(%rbp)
    830e:	48 89 75 d0          	mov    %rsi,-0x30(%rbp)
    8312:	89 55 cc             	mov    %edx,-0x34(%rbp)
    8315:	64 48 8b 04 25 28 00 	mov    %fs:0x28,%rax
    831c:	00 00 
    831e:	48 89 45 e8          	mov    %rax,-0x18(%rbp)
    8322:	31 c0                	xor    %eax,%eax
    8324:	8b 45 cc             	mov    -0x34(%rbp),%eax
    8327:	83 f8 03             	cmp    $0x3,%eax
    832a:	74 67                	je     8393 <_ZNSt14_Function_base13_Base_managerIPFvPN15coroutine_mimic9SchedulerESt3anyEE10_M_managerERSt9_Any_dataRKS8_St18_Manager_operation+0x96>
    832c:	83 f8 03             	cmp    $0x3,%eax
    832f:	7f 6f                	jg     83a0 <_ZNSt14_Function_base13_Base_managerIPFvPN15coroutine_mimic9SchedulerESt3anyEE10_M_managerERSt9_Any_dataRKS8_St18_Manager_operation+0xa3>
    8331:	83 f8 02             	cmp    $0x2,%eax
    8334:	74 48                	je     837e <_ZNSt14_Function_base13_Base_managerIPFvPN15coroutine_mimic9SchedulerESt3anyEE10_M_managerERSt9_Any_dataRKS8_St18_Manager_operation+0x81>
    8336:	83 f8 02             	cmp    $0x2,%eax
    8339:	7f 65                	jg     83a0 <_ZNSt14_Function_base13_Base_managerIPFvPN15coroutine_mimic9SchedulerESt3anyEE10_M_managerERSt9_Any_dataRKS8_St18_Manager_operation+0xa3>
    833b:	85 c0                	test   %eax,%eax
    833d:	74 07                	je     8346 <_ZNSt14_Function_base13_Base_managerIPFvPN15coroutine_mimic9SchedulerESt3anyEE10_M_managerERSt9_Any_dataRKS8_St18_Manager_operation+0x49>
    833f:	83 f8 01             	cmp    $0x1,%eax
    8342:	74 1a                	je     835e <_ZNSt14_Function_base13_Base_managerIPFvPN15coroutine_mimic9SchedulerESt3anyEE10_M_managerERSt9_Any_dataRKS8_St18_Manager_operation+0x61>
    8344:	eb 5a                	jmp    83a0 <_ZNSt14_Function_base13_Base_managerIPFvPN15coroutine_mimic9SchedulerESt3anyEE10_M_managerERSt9_Any_dataRKS8_St18_Manager_operation+0xa3>
    8346:	48 8b 45 d8          	mov    -0x28(%rbp),%rax
    834a:	48 89 c7             	mov    %rax,%rdi
    834d:	e8 8c 05 00 00       	callq  88de <_ZNSt9_Any_data9_M_accessIPKSt9type_infoEERT_v>
    8352:	48 8d 15 6f 78 00 00 	lea    0x786f(%rip),%rdx        # fbc8 <_ZTVN10__cxxabiv119__pointer_type_infoE@CXXABI_1.3>
    8359:	48 89 10             	mov    %rdx,(%rax)
    835c:	eb 42                	jmp    83a0 <_ZNSt14_Function_base13_Base_managerIPFvPN15coroutine_mimic9SchedulerESt3anyEE10_M_managerERSt9_Any_dataRKS8_St18_Manager_operation+0xa3>
    835e:	48 8b 45 d0          	mov    -0x30(%rbp),%rax
    8362:	48 89 c7             	mov    %rax,%rdi
    8365:	e8 46 05 00 00       	callq  88b0 <_ZNSt14_Function_base13_Base_managerIPFvPN15coroutine_mimic9SchedulerESt3anyEE14_M_get_pointerERKSt9_Any_data>
    836a:	48 89 c3             	mov    %rax,%rbx
    836d:	48 8b 45 d8          	mov    -0x28(%rbp),%rax
    8371:	48 89 c7             	mov    %rax,%rdi
    8374:	e8 83 05 00 00       	callq  88fc <_ZNSt9_Any_data9_M_accessIPPFvPN15coroutine_mimic9SchedulerESt3anyEEERT_v>
    8379:	48 89 18             	mov    %rbx,(%rax)
    837c:	eb 22                	jmp    83a0 <_ZNSt14_Function_base13_Base_managerIPFvPN15coroutine_mimic9SchedulerESt3anyEE10_M_managerERSt9_Any_dataRKS8_St18_Manager_operation+0xa3>
    837e:	48 8b 55 d0          	mov    -0x30(%rbp),%rdx
    8382:	48 8b 45 d8          	mov    -0x28(%rbp),%rax
    8386:	48 89 d6             	mov    %rdx,%rsi
    8389:	48 89 c7             	mov    %rax,%rdi
    838c:	e8 89 05 00 00       	callq  891a <_ZNSt14_Function_base13_Base_managerIPFvPN15coroutine_mimic9SchedulerESt3anyEE8_M_cloneERSt9_Any_dataRKS8_St17integral_constantIbLb1EE>
    8391:	eb 0d                	jmp    83a0 <_ZNSt14_Function_base13_Base_managerIPFvPN15coroutine_mimic9SchedulerESt3anyEE10_M_managerERSt9_Any_dataRKS8_St18_Manager_operation+0xa3>
    8393:	48 8b 45 d8          	mov    -0x28(%rbp),%rax
    8397:	48 89 c7             	mov    %rax,%rdi
    839a:	e8 c3 05 00 00       	callq  8962 <_ZNSt14_Function_base13_Base_managerIPFvPN15coroutine_mimic9SchedulerESt3anyEE10_M_destroyERSt9_Any_dataSt17integral_constantIbLb1EE>
    839f:	90                   	nop
    83a0:	b8 00 00 00 00       	mov    $0x0,%eax
    83a5:	48 8b 4d e8          	mov    -0x18(%rbp),%rcx
    83a9:	64 48 33 0c 25 28 00 	xor    %fs:0x28,%rcx
    83b0:	00 00 
    83b2:	74 05                	je     83b9 <_ZNSt14_Function_base13_Base_managerIPFvPN15coroutine_mimic9SchedulerESt3anyEE10_M_managerERSt9_Any_dataRKS8_St18_Manager_operation+0xbc>
    83b4:	e8 37 a1 ff ff       	callq  24f0 <__stack_chk_fail@plt>
    83b9:	48 83 c4 38          	add    $0x38,%rsp
    83bd:	5b                   	pop    %rbx
    83be:	5d                   	pop    %rbp
    83bf:	c3                   	retq   

00000000000083c0 <_ZNSt3any17_Manager_internalIPSt5queueIiSt5dequeIiSaIiEEEE9_S_manageENS_3_OpEPKS_PNS_4_ArgE>:
    83c0:	f3 0f 1e fa          	endbr64 
    83c4:	55                   	push   %rbp
    83c5:	48 89 e5             	mov    %rsp,%rbp
    83c8:	53                   	push   %rbx
    83c9:	48 83 ec 38          	sub    $0x38,%rsp
    83cd:	89 7d dc             	mov    %edi,-0x24(%rbp)
    83d0:	48 89 75 d0          	mov    %rsi,-0x30(%rbp)
    83d4:	48 89 55 c8          	mov    %rdx,-0x38(%rbp)
    83d8:	48 8b 45 d0          	mov    -0x30(%rbp),%rax
    83dc:	48 83 c0 08          	add    $0x8,%rax
    83e0:	48 89 45 e8          	mov    %rax,-0x18(%rbp)
    83e4:	8b 45 dc             	mov    -0x24(%rbp),%eax
    83e7:	83 f8 04             	cmp    $0x4,%eax
    83ea:	0f 87 c1 00 00 00    	ja     84b1 <_ZNSt3any17_Manager_internalIPSt5queueIiSt5dequeIiSaIiEEEE9_S_manageENS_3_OpEPKS_PNS_4_ArgE+0xf1>
    83f0:	89 c0                	mov    %eax,%eax
    83f2:	48 8d 14 85 00 00 00 	lea    0x0(,%rax,4),%rdx
    83f9:	00 
    83fa:	48 8d 05 07 1f 00 00 	lea    0x1f07(%rip),%rax        # a308 <_ZL1n+0x5c>
    8401:	8b 04 02             	mov    (%rdx,%rax,1),%eax
    8404:	48 98                	cltq   
    8406:	48 8d 15 fb 1e 00 00 	lea    0x1efb(%rip),%rdx        # a308 <_ZL1n+0x5c>
    840d:	48 01 d0             	add    %rdx,%rax
    8410:	3e ff e0             	notrack jmpq *%rax
    8413:	48 8b 45 c8          	mov    -0x38(%rbp),%rax
    8417:	48 8b 55 e8          	mov    -0x18(%rbp),%rdx
    841b:	48 89 10             	mov    %rdx,(%rax)
    841e:	e9 8e 00 00 00       	jmpq   84b1 <_ZNSt3any17_Manager_internalIPSt5queueIiSt5dequeIiSaIiEEEE9_S_manageENS_3_OpEPKS_PNS_4_ArgE+0xf1>
    8423:	48 8b 45 c8          	mov    -0x38(%rbp),%rax
    8427:	48 8d 15 7a 77 00 00 	lea    0x777a(%rip),%rdx        # fba8 <_ZTVN10__cxxabiv119__pointer_type_infoE@CXXABI_1.3>
    842e:	48 89 10             	mov    %rdx,(%rax)
    8431:	eb 7e                	jmp    84b1 <_ZNSt3any17_Manager_internalIPSt5queueIiSt5dequeIiSaIiEEEE9_S_manageENS_3_OpEPKS_PNS_4_ArgE+0xf1>
    8433:	48 8b 45 c8          	mov    -0x38(%rbp),%rax
    8437:	48 8b 00             	mov    (%rax),%rax
    843a:	48 83 c0 08          	add    $0x8,%rax
    843e:	48 89 c6             	mov    %rax,%rsi
    8441:	bf 08 00 00 00       	mov    $0x8,%edi
    8446:	e8 82 b0 ff ff       	callq  34cd <_ZnwmPv>
    844b:	48 8b 55 e8          	mov    -0x18(%rbp),%rdx
    844f:	48 8b 12             	mov    (%rdx),%rdx
    8452:	48 89 10             	mov    %rdx,(%rax)
    8455:	48 8b 45 c8          	mov    -0x38(%rbp),%rax
    8459:	48 8b 00             	mov    (%rax),%rax
    845c:	48 8b 55 d0          	mov    -0x30(%rbp),%rdx
    8460:	48 8b 12             	mov    (%rdx),%rdx
    8463:	48 89 10             	mov    %rdx,(%rax)
    8466:	eb 49                	jmp    84b1 <_ZNSt3any17_Manager_internalIPSt5queueIiSt5dequeIiSaIiEEEE9_S_manageENS_3_OpEPKS_PNS_4_ArgE+0xf1>
    8468:	48 8b 45 e8          	mov    -0x18(%rbp),%rax
    846c:	48 89 c7             	mov    %rax,%rdi
    846f:	e8 0d 05 00 00       	callq  8981 <_ZSt4moveIRPSt5queueIiSt5dequeIiSaIiEEEEONSt16remove_referenceIT_E4typeEOS8_>
    8474:	48 8b 18             	mov    (%rax),%rbx
    8477:	48 8b 45 c8          	mov    -0x38(%rbp),%rax
    847b:	48 8b 00             	mov    (%rax),%rax
    847e:	48 83 c0 08          	add    $0x8,%rax
    8482:	48 89 c6             	mov    %rax,%rsi
    8485:	bf 08 00 00 00       	mov    $0x8,%edi
    848a:	e8 3e b0 ff ff       	callq  34cd <_ZnwmPv>
    848f:	48 89 18             	mov    %rbx,(%rax)
    8492:	48 8b 45 c8          	mov    -0x38(%rbp),%rax
    8496:	48 8b 00             	mov    (%rax),%rax
    8499:	48 8b 55 d0          	mov    -0x30(%rbp),%rdx
    849d:	48 8b 12             	mov    (%rdx),%rdx
    84a0:	48 89 10             	mov    %rdx,(%rax)
    84a3:	48 8b 45 d0          	mov    -0x30(%rbp),%rax
    84a7:	48 c7 00 00 00 00 00 	movq   $0x0,(%rax)
    84ae:	eb 01                	jmp    84b1 <_ZNSt3any17_Manager_internalIPSt5queueIiSt5dequeIiSaIiEEEE9_S_manageENS_3_OpEPKS_PNS_4_ArgE+0xf1>
    84b0:	90                   	nop
    84b1:	90                   	nop
    84b2:	48 83 c4 38          	add    $0x38,%rsp
    84b6:	5b                   	pop    %rbx
    84b7:	5d                   	pop    %rbp
    84b8:	c3                   	retq   

00000000000084b9 <_ZSt7forwardIPSt5queueIiSt5dequeIiSaIiEEEEOT_RNSt16remove_referenceIS6_E4typeE>:
    84b9:	f3 0f 1e fa          	endbr64 
    84bd:	55                   	push   %rbp
    84be:	48 89 e5             	mov    %rsp,%rbp
    84c1:	48 89 7d f8          	mov    %rdi,-0x8(%rbp)
    84c5:	48 8b 45 f8          	mov    -0x8(%rbp),%rax
    84c9:	5d                   	pop    %rbp
    84ca:	c3                   	retq   

00000000000084cb <_ZNSt3any17_Manager_internalIPSt5queueIiSt5dequeIiSaIiEEEE9_S_createIS6_EEvRNS_8_StorageEOT_>:
    84cb:	f3 0f 1e fa          	endbr64 
    84cf:	55                   	push   %rbp
    84d0:	48 89 e5             	mov    %rsp,%rbp
    84d3:	53                   	push   %rbx
    84d4:	48 83 ec 28          	sub    $0x28,%rsp
    84d8:	48 89 7d d8          	mov    %rdi,-0x28(%rbp)
    84dc:	48 89 75 d0          	mov    %rsi,-0x30(%rbp)
    84e0:	48 8b 45 d8          	mov    -0x28(%rbp),%rax
    84e4:	48 89 45 e8          	mov    %rax,-0x18(%rbp)
    84e8:	48 8b 45 d0          	mov    -0x30(%rbp),%rax
    84ec:	48 89 c7             	mov    %rax,%rdi
    84ef:	e8 c5 ff ff ff       	callq  84b9 <_ZSt7forwardIPSt5queueIiSt5dequeIiSaIiEEEEOT_RNSt16remove_referenceIS6_E4typeE>
    84f4:	48 8b 18             	mov    (%rax),%rbx
    84f7:	48 8b 45 e8          	mov    -0x18(%rbp),%rax
    84fb:	48 89 c6             	mov    %rax,%rsi
    84fe:	bf 08 00 00 00       	mov    $0x8,%edi
    8503:	e8 c5 af ff ff       	callq  34cd <_ZnwmPv>
    8508:	48 89 18             	mov    %rbx,(%rax)
    850b:	90                   	nop
    850c:	48 83 c4 28          	add    $0x28,%rsp
    8510:	5b                   	pop    %rbx
    8511:	5d                   	pop    %rbp
    8512:	c3                   	retq   
    8513:	90                   	nop

0000000000008514 <_ZNSt5dequeIiSaIiEEC1Ev>:
    8514:	f3 0f 1e fa          	endbr64 
    8518:	55                   	push   %rbp
    8519:	48 89 e5             	mov    %rsp,%rbp
    851c:	48 83 ec 10          	sub    $0x10,%rsp
    8520:	48 89 7d f8          	mov    %rdi,-0x8(%rbp)
    8524:	48 8b 45 f8          	mov    -0x8(%rbp),%rax
    8528:	48 89 c7             	mov    %rax,%rdi
    852b:	e8 64 04 00 00       	callq  8994 <_ZNSt11_Deque_baseIiSaIiEEC1Ev>
    8530:	90                   	nop
    8531:	c9                   	leaveq 
    8532:	c3                   	retq   
    8533:	90                   	nop

0000000000008534 <_ZNSt11_Deque_baseIiSaIiEE11_Deque_implD1Ev>:
    8534:	f3 0f 1e fa          	endbr64 
    8538:	55                   	push   %rbp
    8539:	48 89 e5             	mov    %rsp,%rbp
    853c:	48 83 ec 10          	sub    $0x10,%rsp
    8540:	48 89 7d f8          	mov    %rdi,-0x8(%rbp)
    8544:	48 8b 45 f8          	mov    -0x8(%rbp),%rax
    8548:	48 89 c7             	mov    %rax,%rdi
    854b:	e8 9a 04 00 00       	callq  89ea <_ZNSaIiED1Ev>
    8550:	90                   	nop
    8551:	c9                   	leaveq 
    8552:	c3                   	retq   
    8553:	90                   	nop

0000000000008554 <_ZNSt11_Deque_baseIiSaIiEED1Ev>:
    8554:	f3 0f 1e fa          	endbr64 
    8558:	55                   	push   %rbp
    8559:	48 89 e5             	mov    %rsp,%rbp
    855c:	48 83 ec 10          	sub    $0x10,%rsp
    8560:	48 89 7d f8          	mov    %rdi,-0x8(%rbp)
    8564:	48 8b 45 f8          	mov    -0x8(%rbp),%rax
    8568:	48 8b 00             	mov    (%rax),%rax
    856b:	48 85 c0             	test   %rax,%rax
    856e:	74 41                	je     85b1 <_ZNSt11_Deque_baseIiSaIiEED1Ev+0x5d>
    8570:	48 8b 45 f8          	mov    -0x8(%rbp),%rax
    8574:	48 8b 40 48          	mov    0x48(%rax),%rax
    8578:	48 8d 50 08          	lea    0x8(%rax),%rdx
    857c:	48 8b 45 f8          	mov    -0x8(%rbp),%rax
    8580:	48 8b 48 28          	mov    0x28(%rax),%rcx
    8584:	48 8b 45 f8          	mov    -0x8(%rbp),%rax
    8588:	48 89 ce             	mov    %rcx,%rsi
    858b:	48 89 c7             	mov    %rax,%rdi
    858e:	e8 77 04 00 00       	callq  8a0a <_ZNSt11_Deque_baseIiSaIiEE16_M_destroy_nodesEPPiS3_>
    8593:	48 8b 45 f8          	mov    -0x8(%rbp),%rax
    8597:	48 8b 50 08          	mov    0x8(%rax),%rdx
    859b:	48 8b 45 f8          	mov    -0x8(%rbp),%rax
    859f:	48 8b 08             	mov    (%rax),%rcx
    85a2:	48 8b 45 f8          	mov    -0x8(%rbp),%rax
    85a6:	48 89 ce             	mov    %rcx,%rsi
    85a9:	48 89 c7             	mov    %rax,%rdi
    85ac:	e8 a3 04 00 00       	callq  8a54 <_ZNSt11_Deque_baseIiSaIiEE17_M_deallocate_mapEPPim>
    85b1:	48 8b 45 f8          	mov    -0x8(%rbp),%rax
    85b5:	48 89 c7             	mov    %rax,%rdi
    85b8:	e8 77 ff ff ff       	callq  8534 <_ZNSt11_Deque_baseIiSaIiEE11_Deque_implD1Ev>
    85bd:	90                   	nop
    85be:	c9                   	leaveq 
    85bf:	c3                   	retq   

00000000000085c0 <_ZNSt5dequeIiSaIiEE5beginEv>:
    85c0:	f3 0f 1e fa          	endbr64 
    85c4:	55                   	push   %rbp
    85c5:	48 89 e5             	mov    %rsp,%rbp
    85c8:	48 83 ec 10          	sub    $0x10,%rsp
    85cc:	48 89 7d f8          	mov    %rdi,-0x8(%rbp)
    85d0:	48 89 75 f0          	mov    %rsi,-0x10(%rbp)
    85d4:	48 8b 45 f0          	mov    -0x10(%rbp),%rax
    85d8:	48 8d 50 10          	lea    0x10(%rax),%rdx
    85dc:	48 8b 45 f8          	mov    -0x8(%rbp),%rax
    85e0:	48 89 d6             	mov    %rdx,%rsi
    85e3:	48 89 c7             	mov    %rax,%rdi
    85e6:	e8 dd 04 00 00       	callq  8ac8 <_ZNSt15_Deque_iteratorIiRiPiEC1ERKS2_>
    85eb:	48 8b 45 f8          	mov    -0x8(%rbp),%rax
    85ef:	c9                   	leaveq 
    85f0:	c3                   	retq   
    85f1:	90                   	nop

00000000000085f2 <_ZNSt5dequeIiSaIiEE3endEv>:
    85f2:	f3 0f 1e fa          	endbr64 
    85f6:	55                   	push   %rbp
    85f7:	48 89 e5             	mov    %rsp,%rbp
    85fa:	48 83 ec 10          	sub    $0x10,%rsp
    85fe:	48 89 7d f8          	mov    %rdi,-0x8(%rbp)
    8602:	48 89 75 f0          	mov    %rsi,-0x10(%rbp)
    8606:	48 8b 45 f0          	mov    -0x10(%rbp),%rax
    860a:	48 8d 50 30          	lea    0x30(%rax),%rdx
    860e:	48 8b 45 f8          	mov    -0x8(%rbp),%rax
    8612:	48 89 d6             	mov    %rdx,%rsi
    8615:	48 89 c7             	mov    %rax,%rdi
    8618:	e8 ab 04 00 00       	callq  8ac8 <_ZNSt15_Deque_iteratorIiRiPiEC1ERKS2_>
    861d:	48 8b 45 f8          	mov    -0x8(%rbp),%rax
    8621:	c9                   	leaveq 
    8622:	c3                   	retq   
    8623:	90                   	nop

0000000000008624 <_ZNSt11_Deque_baseIiSaIiEE19_M_get_Tp_allocatorEv>:
    8624:	f3 0f 1e fa          	endbr64 
    8628:	55                   	push   %rbp
    8629:	48 89 e5             	mov    %rsp,%rbp
    862c:	48 89 7d f8          	mov    %rdi,-0x8(%rbp)
    8630:	48 8b 45 f8          	mov    -0x8(%rbp),%rax
    8634:	5d                   	pop    %rbp
    8635:	c3                   	retq   

0000000000008636 <_ZNSt5dequeIiSaIiEE15_M_destroy_dataESt15_Deque_iteratorIiRiPiES5_RKS0_>:
    8636:	f3 0f 1e fa          	endbr64 
    863a:	55                   	push   %rbp
    863b:	48 89 e5             	mov    %rsp,%rbp
    863e:	48 83 ec 50          	sub    $0x50,%rsp
    8642:	48 89 7d c8          	mov    %rdi,-0x38(%rbp)
    8646:	48 89 75 c0          	mov    %rsi,-0x40(%rbp)
    864a:	48 89 55 b8          	mov    %rdx,-0x48(%rbp)
    864e:	48 89 4d b0          	mov    %rcx,-0x50(%rbp)
    8652:	64 48 8b 04 25 28 00 	mov    %fs:0x28,%rax
    8659:	00 00 
    865b:	48 89 45 f8          	mov    %rax,-0x8(%rbp)
    865f:	31 c0                	xor    %eax,%eax
    8661:	90                   	nop
    8662:	48 8b 45 f8          	mov    -0x8(%rbp),%rax
    8666:	64 48 33 04 25 28 00 	xor    %fs:0x28,%rax
    866d:	00 00 
    866f:	74 05                	je     8676 <_ZNSt5dequeIiSaIiEE15_M_destroy_dataESt15_Deque_iteratorIiRiPiES5_RKS0_+0x40>
    8671:	e8 7a 9e ff ff       	callq  24f0 <__stack_chk_fail@plt>
    8676:	c9                   	leaveq 
    8677:	c3                   	retq   

0000000000008678 <_ZSt12__any_casterIPSt5queueIiSt5dequeIiSaIiEEEEPvPKSt3any>:
    8678:	f3 0f 1e fa          	endbr64 
    867c:	55                   	push   %rbp
    867d:	48 89 e5             	mov    %rsp,%rbp
    8680:	48 83 ec 20          	sub    $0x20,%rsp
    8684:	48 89 7d e8          	mov    %rdi,-0x18(%rbp)
    8688:	64 48 8b 04 25 28 00 	mov    %fs:0x28,%rax
    868f:	00 00 
    8691:	48 89 45 f8          	mov    %rax,-0x8(%rbp)
    8695:	31 c0                	xor    %eax,%eax
    8697:	48 8b 45 e8          	mov    -0x18(%rbp),%rax
    869b:	48 8b 00             	mov    (%rax),%rax
    869e:	48 8d 15 1b fd ff ff 	lea    -0x2e5(%rip),%rdx        # 83c0 <_ZNSt3any17_Manager_internalIPSt5queueIiSt5dequeIiSaIiEEEE9_S_manageENS_3_OpEPKS_PNS_4_ArgE>
    86a5:	48 39 d0             	cmp    %rdx,%rax
    86a8:	74 1f                	je     86c9 <_ZSt12__any_casterIPSt5queueIiSt5dequeIiSaIiEEEEPvPKSt3any+0x51>
    86aa:	48 8b 45 e8          	mov    -0x18(%rbp),%rax
    86ae:	48 89 c7             	mov    %rax,%rdi
    86b1:	e8 96 f6 ff ff       	callq  7d4c <_ZNKSt3any4typeEv>
    86b6:	48 8d 35 eb 74 00 00 	lea    0x74eb(%rip),%rsi        # fba8 <_ZTVN10__cxxabiv119__pointer_type_infoE@CXXABI_1.3>
    86bd:	48 89 c7             	mov    %rax,%rdi
    86c0:	e8 a3 ad ff ff       	callq  3468 <_ZNKSt9type_infoeqERKS_>
    86c5:	84 c0                	test   %al,%al
    86c7:	74 07                	je     86d0 <_ZSt12__any_casterIPSt5queueIiSt5dequeIiSaIiEEEEPvPKSt3any+0x58>
    86c9:	b8 01 00 00 00       	mov    $0x1,%eax
    86ce:	eb 05                	jmp    86d5 <_ZSt12__any_casterIPSt5queueIiSt5dequeIiSaIiEEEEPvPKSt3any+0x5d>
    86d0:	b8 00 00 00 00       	mov    $0x0,%eax
    86d5:	84 c0                	test   %al,%al
    86d7:	74 1f                	je     86f8 <_ZSt12__any_casterIPSt5queueIiSt5dequeIiSaIiEEEEPvPKSt3any+0x80>
    86d9:	48 8b 45 e8          	mov    -0x18(%rbp),%rax
    86dd:	48 8b 08             	mov    (%rax),%rcx
    86e0:	48 8d 55 f0          	lea    -0x10(%rbp),%rdx
    86e4:	48 8b 45 e8          	mov    -0x18(%rbp),%rax
    86e8:	48 89 c6             	mov    %rax,%rsi
    86eb:	bf 00 00 00 00       	mov    $0x0,%edi
    86f0:	ff d1                	callq  *%rcx
    86f2:	48 8b 45 f0          	mov    -0x10(%rbp),%rax
    86f6:	eb 05                	jmp    86fd <_ZSt12__any_casterIPSt5queueIiSt5dequeIiSaIiEEEEPvPKSt3any+0x85>
    86f8:	b8 00 00 00 00       	mov    $0x0,%eax
    86fd:	48 8b 4d f8          	mov    -0x8(%rbp),%rcx
    8701:	64 48 33 0c 25 28 00 	xor    %fs:0x28,%rcx
    8708:	00 00 
    870a:	74 05                	je     8711 <_ZSt12__any_casterIPSt5queueIiSt5dequeIiSaIiEEEEPvPKSt3any+0x99>
    870c:	e8 df 9d ff ff       	callq  24f0 <__stack_chk_fail@plt>
    8711:	c9                   	leaveq 
    8712:	c3                   	retq   
    8713:	90                   	nop

0000000000008714 <_ZNSt5dequeIiSaIiEE12emplace_backIJiEEERiDpOT_>:
    8714:	f3 0f 1e fa          	endbr64 
    8718:	55                   	push   %rbp
    8719:	48 89 e5             	mov    %rsp,%rbp
    871c:	48 83 ec 10          	sub    $0x10,%rsp
    8720:	48 89 7d f8          	mov    %rdi,-0x8(%rbp)
    8724:	48 89 75 f0          	mov    %rsi,-0x10(%rbp)
    8728:	48 8b 45 f8          	mov    -0x8(%rbp),%rax
    872c:	48 8b 50 30          	mov    0x30(%rax),%rdx
    8730:	48 8b 45 f8          	mov    -0x8(%rbp),%rax
    8734:	48 8b 40 40          	mov    0x40(%rax),%rax
    8738:	48 83 e8 04          	sub    $0x4,%rax
    873c:	48 39 c2             	cmp    %rax,%rdx
    873f:	74 3c                	je     877d <_ZNSt5dequeIiSaIiEE12emplace_backIJiEEERiDpOT_+0x69>
    8741:	48 8b 45 f0          	mov    -0x10(%rbp),%rax
    8745:	48 89 c7             	mov    %rax,%rdi
    8748:	e8 e9 f6 ff ff       	callq  7e36 <_ZSt7forwardIiEOT_RNSt16remove_referenceIS0_E4typeE>
    874d:	48 89 c2             	mov    %rax,%rdx
    8750:	48 8b 45 f8          	mov    -0x8(%rbp),%rax
    8754:	48 8b 48 30          	mov    0x30(%rax),%rcx
    8758:	48 8b 45 f8          	mov    -0x8(%rbp),%rax
    875c:	48 89 ce             	mov    %rcx,%rsi
    875f:	48 89 c7             	mov    %rax,%rdi
    8762:	e8 b2 03 00 00       	callq  8b19 <_ZNSt16allocator_traitsISaIiEE9constructIiJiEEEvRS0_PT_DpOT0_>
    8767:	48 8b 45 f8          	mov    -0x8(%rbp),%rax
    876b:	48 8b 40 30          	mov    0x30(%rax),%rax
    876f:	48 8d 50 04          	lea    0x4(%rax),%rdx
    8773:	48 8b 45 f8          	mov    -0x8(%rbp),%rax
    8777:	48 89 50 30          	mov    %rdx,0x30(%rax)
    877b:	eb 1e                	jmp    879b <_ZNSt5dequeIiSaIiEE12emplace_backIJiEEERiDpOT_+0x87>
    877d:	48 8b 45 f0          	mov    -0x10(%rbp),%rax
    8781:	48 89 c7             	mov    %rax,%rdi
    8784:	e8 ad f6 ff ff       	callq  7e36 <_ZSt7forwardIiEOT_RNSt16remove_referenceIS0_E4typeE>
    8789:	48 89 c2             	mov    %rax,%rdx
    878c:	48 8b 45 f8          	mov    -0x8(%rbp),%rax
    8790:	48 89 d6             	mov    %rdx,%rsi
    8793:	48 89 c7             	mov    %rax,%rdi
    8796:	e8 bb 03 00 00       	callq  8b56 <_ZNSt5dequeIiSaIiEE16_M_push_back_auxIJiEEEvDpOT_>
    879b:	48 8b 45 f8          	mov    -0x8(%rbp),%rax
    879f:	48 89 c7             	mov    %rax,%rdi
    87a2:	e8 7f 04 00 00       	callq  8c26 <_ZNSt5dequeIiSaIiEE4backEv>
    87a7:	c9                   	leaveq 
    87a8:	c3                   	retq   
    87a9:	90                   	nop

00000000000087aa <_ZNKSt15_Deque_iteratorIiRiPiEdeEv>:
    87aa:	f3 0f 1e fa          	endbr64 
    87ae:	55                   	push   %rbp
    87af:	48 89 e5             	mov    %rsp,%rbp
    87b2:	48 89 7d f8          	mov    %rdi,-0x8(%rbp)
    87b6:	48 8b 45 f8          	mov    -0x8(%rbp),%rax
    87ba:	48 8b 00             	mov    (%rax),%rax
    87bd:	5d                   	pop    %rbp
    87be:	c3                   	retq   

00000000000087bf <_ZNSt16allocator_traitsISaIiEE7destroyIiEEvRS0_PT_>:
    87bf:	f3 0f 1e fa          	endbr64 
    87c3:	55                   	push   %rbp
    87c4:	48 89 e5             	mov    %rsp,%rbp
    87c7:	48 83 ec 10          	sub    $0x10,%rsp
    87cb:	48 89 7d f8          	mov    %rdi,-0x8(%rbp)
    87cf:	48 89 75 f0          	mov    %rsi,-0x10(%rbp)
    87d3:	48 8b 55 f0          	mov    -0x10(%rbp),%rdx
    87d7:	48 8b 45 f8          	mov    -0x8(%rbp),%rax
    87db:	48 89 d6             	mov    %rdx,%rsi
    87de:	48 89 c7             	mov    %rax,%rdi
    87e1:	e8 a0 04 00 00       	callq  8c86 <_ZN9__gnu_cxx13new_allocatorIiE7destroyIiEEvPT_>
    87e6:	90                   	nop
    87e7:	c9                   	leaveq 
    87e8:	c3                   	retq   
    87e9:	90                   	nop

00000000000087ea <_ZNSt5dequeIiSaIiEE16_M_pop_front_auxEv>:
    87ea:	f3 0f 1e fa          	endbr64 
    87ee:	55                   	push   %rbp
    87ef:	48 89 e5             	mov    %rsp,%rbp
    87f2:	53                   	push   %rbx
    87f3:	48 83 ec 18          	sub    $0x18,%rsp
    87f7:	48 89 7d e8          	mov    %rdi,-0x18(%rbp)
    87fb:	48 8b 45 e8          	mov    -0x18(%rbp),%rax
    87ff:	48 8b 58 10          	mov    0x10(%rax),%rbx
    8803:	48 8b 45 e8          	mov    -0x18(%rbp),%rax
    8807:	48 89 c7             	mov    %rax,%rdi
    880a:	e8 15 fe ff ff       	callq  8624 <_ZNSt11_Deque_baseIiSaIiEE19_M_get_Tp_allocatorEv>
    880f:	48 89 de             	mov    %rbx,%rsi
    8812:	48 89 c7             	mov    %rax,%rdi
    8815:	e8 a5 ff ff ff       	callq  87bf <_ZNSt16allocator_traitsISaIiEE7destroyIiEEvRS0_PT_>
    881a:	48 8b 45 e8          	mov    -0x18(%rbp),%rax
    881e:	48 8b 55 e8          	mov    -0x18(%rbp),%rdx
    8822:	48 8b 52 18          	mov    0x18(%rdx),%rdx
    8826:	48 89 d6             	mov    %rdx,%rsi
    8829:	48 89 c7             	mov    %rax,%rdi
    882c:	e8 69 04 00 00       	callq  8c9a <_ZNSt11_Deque_baseIiSaIiEE18_M_deallocate_nodeEPi>
    8831:	48 8b 45 e8          	mov    -0x18(%rbp),%rax
    8835:	48 83 c0 10          	add    $0x10,%rax
    8839:	48 8b 55 e8          	mov    -0x18(%rbp),%rdx
    883d:	48 8b 52 28          	mov    0x28(%rdx),%rdx
    8841:	48 83 c2 08          	add    $0x8,%rdx
    8845:	48 89 d6             	mov    %rdx,%rsi
    8848:	48 89 c7             	mov    %rax,%rdi
    884b:	e8 82 04 00 00       	callq  8cd2 <_ZNSt15_Deque_iteratorIiRiPiE11_M_set_nodeEPS1_>
    8850:	48 8b 45 e8          	mov    -0x18(%rbp),%rax
    8854:	48 8b 50 18          	mov    0x18(%rax),%rdx
    8858:	48 8b 45 e8          	mov    -0x18(%rbp),%rax
    885c:	48 89 50 10          	mov    %rdx,0x10(%rax)
    8860:	90                   	nop
    8861:	48 83 c4 18          	add    $0x18,%rsp
    8865:	5b                   	pop    %rbx
    8866:	5d                   	pop    %rbp
    8867:	c3                   	retq   

0000000000008868 <_ZNSt14_Function_base13_Base_managerIPFvPN15coroutine_mimic9SchedulerESt3anyEE15_M_init_functorERSt9_Any_dataOS6_St17integral_constantIbLb1EE>:
    8868:	f3 0f 1e fa          	endbr64 
    886c:	55                   	push   %rbp
    886d:	48 89 e5             	mov    %rsp,%rbp
    8870:	53                   	push   %rbx
    8871:	48 83 ec 18          	sub    $0x18,%rsp
    8875:	48 89 7d e8          	mov    %rdi,-0x18(%rbp)
    8879:	48 89 75 e0          	mov    %rsi,-0x20(%rbp)
    887d:	48 8b 45 e0          	mov    -0x20(%rbp),%rax
    8881:	48 89 c7             	mov    %rax,%rdi
    8884:	e8 52 f9 ff ff       	callq  81db <_ZSt4moveIRPFvPN15coroutine_mimic9SchedulerESt3anyEEONSt16remove_referenceIT_E4typeEOS8_>
    8889:	48 8b 18             	mov    (%rax),%rbx
    888c:	48 8b 45 e8          	mov    -0x18(%rbp),%rax
    8890:	48 89 c7             	mov    %rax,%rdi
    8893:	e8 82 f3 ff ff       	callq  7c1a <_ZNSt9_Any_data9_M_accessEv>
    8898:	48 89 c6             	mov    %rax,%rsi
    889b:	bf 08 00 00 00       	mov    $0x8,%edi
    88a0:	e8 28 ac ff ff       	callq  34cd <_ZnwmPv>
    88a5:	48 89 18             	mov    %rbx,(%rax)
    88a8:	90                   	nop
    88a9:	48 83 c4 18          	add    $0x18,%rsp
    88ad:	5b                   	pop    %rbx
    88ae:	5d                   	pop    %rbp
    88af:	c3                   	retq   

00000000000088b0 <_ZNSt14_Function_base13_Base_managerIPFvPN15coroutine_mimic9SchedulerESt3anyEE14_M_get_pointerERKSt9_Any_data>:
    88b0:	f3 0f 1e fa          	endbr64 
    88b4:	55                   	push   %rbp
    88b5:	48 89 e5             	mov    %rsp,%rbp
    88b8:	48 83 ec 20          	sub    $0x20,%rsp
    88bc:	48 89 7d e8          	mov    %rdi,-0x18(%rbp)
    88c0:	48 8b 45 e8          	mov    -0x18(%rbp),%rax
    88c4:	48 89 c7             	mov    %rax,%rdi
    88c7:	e8 5c 04 00 00       	callq  8d28 <_ZNKSt9_Any_data9_M_accessIPFvPN15coroutine_mimic9SchedulerESt3anyEEERKT_v>
    88cc:	48 89 45 f8          	mov    %rax,-0x8(%rbp)
    88d0:	48 8b 45 f8          	mov    -0x8(%rbp),%rax
    88d4:	48 89 c7             	mov    %rax,%rdi
    88d7:	e8 6a 04 00 00       	callq  8d46 <_ZSt11__addressofIKPFvPN15coroutine_mimic9SchedulerESt3anyEEPT_RS7_>
    88dc:	c9                   	leaveq 
    88dd:	c3                   	retq   

00000000000088de <_ZNSt9_Any_data9_M_accessIPKSt9type_infoEERT_v>:
    88de:	f3 0f 1e fa          	endbr64 
    88e2:	55                   	push   %rbp
    88e3:	48 89 e5             	mov    %rsp,%rbp
    88e6:	48 83 ec 10          	sub    $0x10,%rsp
    88ea:	48 89 7d f8          	mov    %rdi,-0x8(%rbp)
    88ee:	48 8b 45 f8          	mov    -0x8(%rbp),%rax
    88f2:	48 89 c7             	mov    %rax,%rdi
    88f5:	e8 20 f3 ff ff       	callq  7c1a <_ZNSt9_Any_data9_M_accessEv>
    88fa:	c9                   	leaveq 
    88fb:	c3                   	retq   

00000000000088fc <_ZNSt9_Any_data9_M_accessIPPFvPN15coroutine_mimic9SchedulerESt3anyEEERT_v>:
    88fc:	f3 0f 1e fa          	endbr64 
    8900:	55                   	push   %rbp
    8901:	48 89 e5             	mov    %rsp,%rbp
    8904:	48 83 ec 10          	sub    $0x10,%rsp
    8908:	48 89 7d f8          	mov    %rdi,-0x8(%rbp)
    890c:	48 8b 45 f8          	mov    -0x8(%rbp),%rax
    8910:	48 89 c7             	mov    %rax,%rdi
    8913:	e8 02 f3 ff ff       	callq  7c1a <_ZNSt9_Any_data9_M_accessEv>
    8918:	c9                   	leaveq 
    8919:	c3                   	retq   

000000000000891a <_ZNSt14_Function_base13_Base_managerIPFvPN15coroutine_mimic9SchedulerESt3anyEE8_M_cloneERSt9_Any_dataRKS8_St17integral_constantIbLb1EE>:
    891a:	f3 0f 1e fa          	endbr64 
    891e:	55                   	push   %rbp
    891f:	48 89 e5             	mov    %rsp,%rbp
    8922:	53                   	push   %rbx
    8923:	48 83 ec 18          	sub    $0x18,%rsp
    8927:	48 89 7d e8          	mov    %rdi,-0x18(%rbp)
    892b:	48 89 75 e0          	mov    %rsi,-0x20(%rbp)
    892f:	48 8b 45 e0          	mov    -0x20(%rbp),%rax
    8933:	48 89 c7             	mov    %rax,%rdi
    8936:	e8 ed 03 00 00       	callq  8d28 <_ZNKSt9_Any_data9_M_accessIPFvPN15coroutine_mimic9SchedulerESt3anyEEERKT_v>
    893b:	48 8b 18             	mov    (%rax),%rbx
    893e:	48 8b 45 e8          	mov    -0x18(%rbp),%rax
    8942:	48 89 c7             	mov    %rax,%rdi
    8945:	e8 d0 f2 ff ff       	callq  7c1a <_ZNSt9_Any_data9_M_accessEv>
    894a:	48 89 c6             	mov    %rax,%rsi
    894d:	bf 08 00 00 00       	mov    $0x8,%edi
    8952:	e8 76 ab ff ff       	callq  34cd <_ZnwmPv>
    8957:	48 89 18             	mov    %rbx,(%rax)
    895a:	90                   	nop
    895b:	48 83 c4 18          	add    $0x18,%rsp
    895f:	5b                   	pop    %rbx
    8960:	5d                   	pop    %rbp
    8961:	c3                   	retq   

0000000000008962 <_ZNSt14_Function_base13_Base_managerIPFvPN15coroutine_mimic9SchedulerESt3anyEE10_M_destroyERSt9_Any_dataSt17integral_constantIbLb1EE>:
    8962:	f3 0f 1e fa          	endbr64 
    8966:	55                   	push   %rbp
    8967:	48 89 e5             	mov    %rsp,%rbp
    896a:	48 83 ec 10          	sub    $0x10,%rsp
    896e:	48 89 7d f8          	mov    %rdi,-0x8(%rbp)
    8972:	48 8b 45 f8          	mov    -0x8(%rbp),%rax
    8976:	48 89 c7             	mov    %rax,%rdi
    8979:	e8 da 03 00 00       	callq  8d58 <_ZNSt9_Any_data9_M_accessIPFvPN15coroutine_mimic9SchedulerESt3anyEEERT_v>
    897e:	90                   	nop
    897f:	c9                   	leaveq 
    8980:	c3                   	retq   

0000000000008981 <_ZSt4moveIRPSt5queueIiSt5dequeIiSaIiEEEEONSt16remove_referenceIT_E4typeEOS8_>:
    8981:	f3 0f 1e fa          	endbr64 
    8985:	55                   	push   %rbp
    8986:	48 89 e5             	mov    %rsp,%rbp
    8989:	48 89 7d f8          	mov    %rdi,-0x8(%rbp)
    898d:	48 8b 45 f8          	mov    -0x8(%rbp),%rax
    8991:	5d                   	pop    %rbp
    8992:	c3                   	retq   
    8993:	90                   	nop

0000000000008994 <_ZNSt11_Deque_baseIiSaIiEEC1Ev>:
    8994:	f3 0f 1e fa          	endbr64 
    8998:	55                   	push   %rbp
    8999:	48 89 e5             	mov    %rsp,%rbp
    899c:	53                   	push   %rbx
    899d:	48 83 ec 18          	sub    $0x18,%rsp
    89a1:	48 89 7d e8          	mov    %rdi,-0x18(%rbp)
    89a5:	48 8b 45 e8          	mov    -0x18(%rbp),%rax
    89a9:	48 89 c7             	mov    %rax,%rdi
    89ac:	e8 c5 03 00 00       	callq  8d76 <_ZNSt11_Deque_baseIiSaIiEE11_Deque_implC1Ev>
    89b1:	48 8b 45 e8          	mov    -0x18(%rbp),%rax
    89b5:	be 00 00 00 00       	mov    $0x0,%esi
    89ba:	48 89 c7             	mov    %rax,%rdi
    89bd:	e8 0a 04 00 00       	callq  8dcc <_ZNSt11_Deque_baseIiSaIiEE17_M_initialize_mapEm>
    89c2:	eb 1e                	jmp    89e2 <_ZNSt11_Deque_baseIiSaIiEEC1Ev+0x4e>
    89c4:	f3 0f 1e fa          	endbr64 
    89c8:	48 89 c3             	mov    %rax,%rbx
    89cb:	48 8b 45 e8          	mov    -0x18(%rbp),%rax
    89cf:	48 89 c7             	mov    %rax,%rdi
    89d2:	e8 5d fb ff ff       	callq  8534 <_ZNSt11_Deque_baseIiSaIiEE11_Deque_implD1Ev>
    89d7:	48 89 d8             	mov    %rbx,%rax
    89da:	48 89 c7             	mov    %rax,%rdi
    89dd:	e8 be 9b ff ff       	callq  25a0 <_Unwind_Resume@plt>
    89e2:	48 83 c4 18          	add    $0x18,%rsp
    89e6:	5b                   	pop    %rbx
    89e7:	5d                   	pop    %rbp
    89e8:	c3                   	retq   
    89e9:	90                   	nop

00000000000089ea <_ZNSaIiED1Ev>:
    89ea:	f3 0f 1e fa          	endbr64 
    89ee:	55                   	push   %rbp
    89ef:	48 89 e5             	mov    %rsp,%rbp
    89f2:	48 83 ec 10          	sub    $0x10,%rsp
    89f6:	48 89 7d f8          	mov    %rdi,-0x8(%rbp)
    89fa:	48 8b 45 f8          	mov    -0x8(%rbp),%rax
    89fe:	48 89 c7             	mov    %rax,%rdi
    8a01:	e8 9e 05 00 00       	callq  8fa4 <_ZN9__gnu_cxx13new_allocatorIiED1Ev>
    8a06:	90                   	nop
    8a07:	c9                   	leaveq 
    8a08:	c3                   	retq   
    8a09:	90                   	nop

0000000000008a0a <_ZNSt11_Deque_baseIiSaIiEE16_M_destroy_nodesEPPiS3_>:
    8a0a:	f3 0f 1e fa          	endbr64 
    8a0e:	55                   	push   %rbp
    8a0f:	48 89 e5             	mov    %rsp,%rbp
    8a12:	48 83 ec 30          	sub    $0x30,%rsp
    8a16:	48 89 7d e8          	mov    %rdi,-0x18(%rbp)
    8a1a:	48 89 75 e0          	mov    %rsi,-0x20(%rbp)
    8a1e:	48 89 55 d8          	mov    %rdx,-0x28(%rbp)
    8a22:	48 8b 45 e0          	mov    -0x20(%rbp),%rax
    8a26:	48 89 45 f8          	mov    %rax,-0x8(%rbp)
    8a2a:	48 8b 45 f8          	mov    -0x8(%rbp),%rax
    8a2e:	48 3b 45 d8          	cmp    -0x28(%rbp),%rax
    8a32:	73 1d                	jae    8a51 <_ZNSt11_Deque_baseIiSaIiEE16_M_destroy_nodesEPPiS3_+0x47>
    8a34:	48 8b 45 f8          	mov    -0x8(%rbp),%rax
    8a38:	48 8b 10             	mov    (%rax),%rdx
    8a3b:	48 8b 45 e8          	mov    -0x18(%rbp),%rax
    8a3f:	48 89 d6             	mov    %rdx,%rsi
    8a42:	48 89 c7             	mov    %rax,%rdi
    8a45:	e8 50 02 00 00       	callq  8c9a <_ZNSt11_Deque_baseIiSaIiEE18_M_deallocate_nodeEPi>
    8a4a:	48 83 45 f8 08       	addq   $0x8,-0x8(%rbp)
    8a4f:	eb d9                	jmp    8a2a <_ZNSt11_Deque_baseIiSaIiEE16_M_destroy_nodesEPPiS3_+0x20>
    8a51:	90                   	nop
    8a52:	c9                   	leaveq 
    8a53:	c3                   	retq   

0000000000008a54 <_ZNSt11_Deque_baseIiSaIiEE17_M_deallocate_mapEPPim>:
    8a54:	f3 0f 1e fa          	endbr64 
    8a58:	55                   	push   %rbp
    8a59:	48 89 e5             	mov    %rsp,%rbp
    8a5c:	48 83 ec 30          	sub    $0x30,%rsp
    8a60:	48 89 7d e8          	mov    %rdi,-0x18(%rbp)
    8a64:	48 89 75 e0          	mov    %rsi,-0x20(%rbp)
    8a68:	48 89 55 d8          	mov    %rdx,-0x28(%rbp)
    8a6c:	64 48 8b 04 25 28 00 	mov    %fs:0x28,%rax
    8a73:	00 00 
    8a75:	48 89 45 f8          	mov    %rax,-0x8(%rbp)
    8a79:	31 c0                	xor    %eax,%eax
    8a7b:	48 8d 45 f7          	lea    -0x9(%rbp),%rax
    8a7f:	48 8b 55 e8          	mov    -0x18(%rbp),%rdx
    8a83:	48 89 d6             	mov    %rdx,%rsi
    8a86:	48 89 c7             	mov    %rax,%rdi
    8a89:	e8 26 05 00 00       	callq  8fb4 <_ZNKSt11_Deque_baseIiSaIiEE20_M_get_map_allocatorEv>
    8a8e:	48 8b 55 d8          	mov    -0x28(%rbp),%rdx
    8a92:	48 8b 4d e0          	mov    -0x20(%rbp),%rcx
    8a96:	48 8d 45 f7          	lea    -0x9(%rbp),%rax
    8a9a:	48 89 ce             	mov    %rcx,%rsi
    8a9d:	48 89 c7             	mov    %rax,%rdi
    8aa0:	e8 66 05 00 00       	callq  900b <_ZNSt16allocator_traitsISaIPiEE10deallocateERS1_PS0_m>
    8aa5:	48 8d 45 f7          	lea    -0x9(%rbp),%rax
    8aa9:	48 89 c7             	mov    %rax,%rdi
    8aac:	e8 3b 05 00 00       	callq  8fec <_ZNSaIPiED1Ev>
    8ab1:	90                   	nop
    8ab2:	48 8b 45 f8          	mov    -0x8(%rbp),%rax
    8ab6:	64 48 33 04 25 28 00 	xor    %fs:0x28,%rax
    8abd:	00 00 
    8abf:	74 05                	je     8ac6 <_ZNSt11_Deque_baseIiSaIiEE17_M_deallocate_mapEPPim+0x72>
    8ac1:	e8 2a 9a ff ff       	callq  24f0 <__stack_chk_fail@plt>
    8ac6:	c9                   	leaveq 
    8ac7:	c3                   	retq   

0000000000008ac8 <_ZNSt15_Deque_iteratorIiRiPiEC1ERKS2_>:
    8ac8:	f3 0f 1e fa          	endbr64 
    8acc:	55                   	push   %rbp
    8acd:	48 89 e5             	mov    %rsp,%rbp
    8ad0:	48 89 7d f8          	mov    %rdi,-0x8(%rbp)
    8ad4:	48 89 75 f0          	mov    %rsi,-0x10(%rbp)
    8ad8:	48 8b 45 f0          	mov    -0x10(%rbp),%rax
    8adc:	48 8b 10             	mov    (%rax),%rdx
    8adf:	48 8b 45 f8          	mov    -0x8(%rbp),%rax
    8ae3:	48 89 10             	mov    %rdx,(%rax)
    8ae6:	48 8b 45 f0          	mov    -0x10(%rbp),%rax
    8aea:	48 8b 50 08          	mov    0x8(%rax),%rdx
    8aee:	48 8b 45 f8          	mov    -0x8(%rbp),%rax
    8af2:	48 89 50 08          	mov    %rdx,0x8(%rax)
    8af6:	48 8b 45 f0          	mov    -0x10(%rbp),%rax
    8afa:	48 8b 50 10          	mov    0x10(%rax),%rdx
    8afe:	48 8b 45 f8          	mov    -0x8(%rbp),%rax
    8b02:	48 89 50 10          	mov    %rdx,0x10(%rax)
    8b06:	48 8b 45 f0          	mov    -0x10(%rbp),%rax
    8b0a:	48 8b 50 18          	mov    0x18(%rax),%rdx
    8b0e:	48 8b 45 f8          	mov    -0x8(%rbp),%rax
    8b12:	48 89 50 18          	mov    %rdx,0x18(%rax)
    8b16:	90                   	nop
    8b17:	5d                   	pop    %rbp
    8b18:	c3                   	retq   

0000000000008b19 <_ZNSt16allocator_traitsISaIiEE9constructIiJiEEEvRS0_PT_DpOT0_>:
    8b19:	f3 0f 1e fa          	endbr64 
    8b1d:	55                   	push   %rbp
    8b1e:	48 89 e5             	mov    %rsp,%rbp
    8b21:	48 83 ec 20          	sub    $0x20,%rsp
    8b25:	48 89 7d f8          	mov    %rdi,-0x8(%rbp)
    8b29:	48 89 75 f0          	mov    %rsi,-0x10(%rbp)
    8b2d:	48 89 55 e8          	mov    %rdx,-0x18(%rbp)
    8b31:	48 8b 45 e8          	mov    -0x18(%rbp),%rax
    8b35:	48 89 c7             	mov    %rax,%rdi
    8b38:	e8 f9 f2 ff ff       	callq  7e36 <_ZSt7forwardIiEOT_RNSt16remove_referenceIS0_E4typeE>
    8b3d:	48 89 c2             	mov    %rax,%rdx
    8b40:	48 8b 4d f0          	mov    -0x10(%rbp),%rcx
    8b44:	48 8b 45 f8          	mov    -0x8(%rbp),%rax
    8b48:	48 89 ce             	mov    %rcx,%rsi
    8b4b:	48 89 c7             	mov    %rax,%rdi
    8b4e:	e8 eb 04 00 00       	callq  903e <_ZN9__gnu_cxx13new_allocatorIiE9constructIiJiEEEvPT_DpOT0_>
    8b53:	90                   	nop
    8b54:	c9                   	leaveq 
    8b55:	c3                   	retq   

0000000000008b56 <_ZNSt5dequeIiSaIiEE16_M_push_back_auxIJiEEEvDpOT_>:
    8b56:	f3 0f 1e fa          	endbr64 
    8b5a:	55                   	push   %rbp
    8b5b:	48 89 e5             	mov    %rsp,%rbp
    8b5e:	53                   	push   %rbx
    8b5f:	48 83 ec 18          	sub    $0x18,%rsp
    8b63:	48 89 7d e8          	mov    %rdi,-0x18(%rbp)
    8b67:	48 89 75 e0          	mov    %rsi,-0x20(%rbp)
    8b6b:	48 8b 45 e8          	mov    -0x18(%rbp),%rax
    8b6f:	48 89 c7             	mov    %rax,%rdi
    8b72:	e8 09 05 00 00       	callq  9080 <_ZNKSt5dequeIiSaIiEE4sizeEv>
    8b77:	48 89 c3             	mov    %rax,%rbx
    8b7a:	48 8b 45 e8          	mov    -0x18(%rbp),%rax
    8b7e:	48 89 c7             	mov    %rax,%rdi
    8b81:	e8 28 05 00 00       	callq  90ae <_ZNKSt5dequeIiSaIiEE8max_sizeEv>
    8b86:	48 39 c3             	cmp    %rax,%rbx
    8b89:	0f 94 c0             	sete   %al
    8b8c:	84 c0                	test   %al,%al
    8b8e:	74 0c                	je     8b9c <_ZNSt5dequeIiSaIiEE16_M_push_back_auxIJiEEEvDpOT_+0x46>
    8b90:	48 8d 3d 41 17 00 00 	lea    0x1741(%rip),%rdi        # a2d8 <_ZL1n+0x2c>
    8b97:	e8 24 98 ff ff       	callq  23c0 <_ZSt20__throw_length_errorPKc@plt>
    8b9c:	48 8b 45 e8          	mov    -0x18(%rbp),%rax
    8ba0:	be 01 00 00 00       	mov    $0x1,%esi
    8ba5:	48 89 c7             	mov    %rax,%rdi
    8ba8:	e8 27 05 00 00       	callq  90d4 <_ZNSt5dequeIiSaIiEE22_M_reserve_map_at_backEm>
    8bad:	48 8b 45 e8          	mov    -0x18(%rbp),%rax
    8bb1:	48 8b 55 e8          	mov    -0x18(%rbp),%rdx
    8bb5:	48 8b 52 48          	mov    0x48(%rdx),%rdx
    8bb9:	48 8d 5a 08          	lea    0x8(%rdx),%rbx
    8bbd:	48 89 c7             	mov    %rax,%rdi
    8bc0:	e8 73 05 00 00       	callq  9138 <_ZNSt11_Deque_baseIiSaIiEE16_M_allocate_nodeEv>
    8bc5:	48 89 03             	mov    %rax,(%rbx)
    8bc8:	48 8b 45 e0          	mov    -0x20(%rbp),%rax
    8bcc:	48 89 c7             	mov    %rax,%rdi
    8bcf:	e8 62 f2 ff ff       	callq  7e36 <_ZSt7forwardIiEOT_RNSt16remove_referenceIS0_E4typeE>
    8bd4:	48 89 c2             	mov    %rax,%rdx
    8bd7:	48 8b 45 e8          	mov    -0x18(%rbp),%rax
    8bdb:	48 8b 48 30          	mov    0x30(%rax),%rcx
    8bdf:	48 8b 45 e8          	mov    -0x18(%rbp),%rax
    8be3:	48 89 ce             	mov    %rcx,%rsi
    8be6:	48 89 c7             	mov    %rax,%rdi
    8be9:	e8 2b ff ff ff       	callq  8b19 <_ZNSt16allocator_traitsISaIiEE9constructIiJiEEEvRS0_PT_DpOT0_>
    8bee:	48 8b 45 e8          	mov    -0x18(%rbp),%rax
    8bf2:	48 83 c0 30          	add    $0x30,%rax
    8bf6:	48 8b 55 e8          	mov    -0x18(%rbp),%rdx
    8bfa:	48 8b 52 48          	mov    0x48(%rdx),%rdx
    8bfe:	48 83 c2 08          	add    $0x8,%rdx
    8c02:	48 89 d6             	mov    %rdx,%rsi
    8c05:	48 89 c7             	mov    %rax,%rdi
    8c08:	e8 c5 00 00 00       	callq  8cd2 <_ZNSt15_Deque_iteratorIiRiPiE11_M_set_nodeEPS1_>
    8c0d:	48 8b 45 e8          	mov    -0x18(%rbp),%rax
    8c11:	48 8b 50 38          	mov    0x38(%rax),%rdx
    8c15:	48 8b 45 e8          	mov    -0x18(%rbp),%rax
    8c19:	48 89 50 30          	mov    %rdx,0x30(%rax)
    8c1d:	90                   	nop
    8c1e:	48 83 c4 18          	add    $0x18,%rsp
    8c22:	5b                   	pop    %rbx
    8c23:	5d                   	pop    %rbp
    8c24:	c3                   	retq   
    8c25:	90                   	nop

0000000000008c26 <_ZNSt5dequeIiSaIiEE4backEv>:
    8c26:	f3 0f 1e fa          	endbr64 
    8c2a:	55                   	push   %rbp
    8c2b:	48 89 e5             	mov    %rsp,%rbp
    8c2e:	48 83 ec 40          	sub    $0x40,%rsp
    8c32:	48 89 7d c8          	mov    %rdi,-0x38(%rbp)
    8c36:	64 48 8b 04 25 28 00 	mov    %fs:0x28,%rax
    8c3d:	00 00 
    8c3f:	48 89 45 f8          	mov    %rax,-0x8(%rbp)
    8c43:	31 c0                	xor    %eax,%eax
    8c45:	48 8d 45 d0          	lea    -0x30(%rbp),%rax
    8c49:	48 8b 55 c8          	mov    -0x38(%rbp),%rdx
    8c4d:	48 89 d6             	mov    %rdx,%rsi
    8c50:	48 89 c7             	mov    %rax,%rdi
    8c53:	e8 9a f9 ff ff       	callq  85f2 <_ZNSt5dequeIiSaIiEE3endEv>
    8c58:	48 8d 45 d0          	lea    -0x30(%rbp),%rax
    8c5c:	48 89 c7             	mov    %rax,%rdi
    8c5f:	e8 02 05 00 00       	callq  9166 <_ZNSt15_Deque_iteratorIiRiPiEmmEv>
    8c64:	48 8d 45 d0          	lea    -0x30(%rbp),%rax
    8c68:	48 89 c7             	mov    %rax,%rdi
    8c6b:	e8 3a fb ff ff       	callq  87aa <_ZNKSt15_Deque_iteratorIiRiPiEdeEv>
    8c70:	48 8b 4d f8          	mov    -0x8(%rbp),%rcx
    8c74:	64 48 33 0c 25 28 00 	xor    %fs:0x28,%rcx
    8c7b:	00 00 
    8c7d:	74 05                	je     8c84 <_ZNSt5dequeIiSaIiEE4backEv+0x5e>
    8c7f:	e8 6c 98 ff ff       	callq  24f0 <__stack_chk_fail@plt>
    8c84:	c9                   	leaveq 
    8c85:	c3                   	retq   

0000000000008c86 <_ZN9__gnu_cxx13new_allocatorIiE7destroyIiEEvPT_>:
    8c86:	f3 0f 1e fa          	endbr64 
    8c8a:	55                   	push   %rbp
    8c8b:	48 89 e5             	mov    %rsp,%rbp
    8c8e:	48 89 7d f8          	mov    %rdi,-0x8(%rbp)
    8c92:	48 89 75 f0          	mov    %rsi,-0x10(%rbp)
    8c96:	90                   	nop
    8c97:	5d                   	pop    %rbp
    8c98:	c3                   	retq   
    8c99:	90                   	nop

0000000000008c9a <_ZNSt11_Deque_baseIiSaIiEE18_M_deallocate_nodeEPi>:
    8c9a:	f3 0f 1e fa          	endbr64 
    8c9e:	55                   	push   %rbp
    8c9f:	48 89 e5             	mov    %rsp,%rbp
    8ca2:	48 83 ec 10          	sub    $0x10,%rsp
    8ca6:	48 89 7d f8          	mov    %rdi,-0x8(%rbp)
    8caa:	48 89 75 f0          	mov    %rsi,-0x10(%rbp)
    8cae:	bf 04 00 00 00       	mov    $0x4,%edi
    8cb3:	e8 02 f1 ff ff       	callq  7dba <_ZSt16__deque_buf_sizem>
    8cb8:	48 89 c2             	mov    %rax,%rdx
    8cbb:	48 8b 45 f8          	mov    -0x8(%rbp),%rax
    8cbf:	48 8b 4d f0          	mov    -0x10(%rbp),%rcx
    8cc3:	48 89 ce             	mov    %rcx,%rsi
    8cc6:	48 89 c7             	mov    %rax,%rdi
    8cc9:	e8 fe 04 00 00       	callq  91cc <_ZNSt16allocator_traitsISaIiEE10deallocateERS0_Pim>
    8cce:	90                   	nop
    8ccf:	c9                   	leaveq 
    8cd0:	c3                   	retq   
    8cd1:	90                   	nop

0000000000008cd2 <_ZNSt15_Deque_iteratorIiRiPiE11_M_set_nodeEPS1_>:
    8cd2:	f3 0f 1e fa          	endbr64 
    8cd6:	55                   	push   %rbp
    8cd7:	48 89 e5             	mov    %rsp,%rbp
    8cda:	53                   	push   %rbx
    8cdb:	48 83 ec 18          	sub    $0x18,%rsp
    8cdf:	48 89 7d e8          	mov    %rdi,-0x18(%rbp)
    8ce3:	48 89 75 e0          	mov    %rsi,-0x20(%rbp)
    8ce7:	48 8b 45 e8          	mov    -0x18(%rbp),%rax
    8ceb:	48 8b 55 e0          	mov    -0x20(%rbp),%rdx
    8cef:	48 89 50 18          	mov    %rdx,0x18(%rax)
    8cf3:	48 8b 45 e0          	mov    -0x20(%rbp),%rax
    8cf7:	48 8b 10             	mov    (%rax),%rdx
    8cfa:	48 8b 45 e8          	mov    -0x18(%rbp),%rax
    8cfe:	48 89 50 08          	mov    %rdx,0x8(%rax)
    8d02:	48 8b 45 e8          	mov    -0x18(%rbp),%rax
    8d06:	48 8b 58 08          	mov    0x8(%rax),%rbx
    8d0a:	e8 ef 04 00 00       	callq  91fe <_ZNSt15_Deque_iteratorIiRiPiE14_S_buffer_sizeEv>
    8d0f:	48 c1 e0 02          	shl    $0x2,%rax
    8d13:	48 8d 14 03          	lea    (%rbx,%rax,1),%rdx
    8d17:	48 8b 45 e8          	mov    -0x18(%rbp),%rax
    8d1b:	48 89 50 10          	mov    %rdx,0x10(%rax)
    8d1f:	90                   	nop
    8d20:	48 83 c4 18          	add    $0x18,%rsp
    8d24:	5b                   	pop    %rbx
    8d25:	5d                   	pop    %rbp
    8d26:	c3                   	retq   
    8d27:	90                   	nop

0000000000008d28 <_ZNKSt9_Any_data9_M_accessIPFvPN15coroutine_mimic9SchedulerESt3anyEEERKT_v>:
    8d28:	f3 0f 1e fa          	endbr64 
    8d2c:	55                   	push   %rbp
    8d2d:	48 89 e5             	mov    %rsp,%rbp
    8d30:	48 83 ec 10          	sub    $0x10,%rsp
    8d34:	48 89 7d f8          	mov    %rdi,-0x8(%rbp)
    8d38:	48 8b 45 f8          	mov    -0x8(%rbp),%rax
    8d3c:	48 89 c7             	mov    %rax,%rdi
    8d3f:	e8 e8 ee ff ff       	callq  7c2c <_ZNKSt9_Any_data9_M_accessEv>
    8d44:	c9                   	leaveq 
    8d45:	c3                   	retq   

0000000000008d46 <_ZSt11__addressofIKPFvPN15coroutine_mimic9SchedulerESt3anyEEPT_RS7_>:
    8d46:	f3 0f 1e fa          	endbr64 
    8d4a:	55                   	push   %rbp
    8d4b:	48 89 e5             	mov    %rsp,%rbp
    8d4e:	48 89 7d f8          	mov    %rdi,-0x8(%rbp)
    8d52:	48 8b 45 f8          	mov    -0x8(%rbp),%rax
    8d56:	5d                   	pop    %rbp
    8d57:	c3                   	retq   

0000000000008d58 <_ZNSt9_Any_data9_M_accessIPFvPN15coroutine_mimic9SchedulerESt3anyEEERT_v>:
    8d58:	f3 0f 1e fa          	endbr64 
    8d5c:	55                   	push   %rbp
    8d5d:	48 89 e5             	mov    %rsp,%rbp
    8d60:	48 83 ec 10          	sub    $0x10,%rsp
    8d64:	48 89 7d f8          	mov    %rdi,-0x8(%rbp)
    8d68:	48 8b 45 f8          	mov    -0x8(%rbp),%rax
    8d6c:	48 89 c7             	mov    %rax,%rdi
    8d6f:	e8 a6 ee ff ff       	callq  7c1a <_ZNSt9_Any_data9_M_accessEv>
    8d74:	c9                   	leaveq 
    8d75:	c3                   	retq   

0000000000008d76 <_ZNSt11_Deque_baseIiSaIiEE11_Deque_implC1Ev>:
    8d76:	f3 0f 1e fa          	endbr64 
    8d7a:	55                   	push   %rbp
    8d7b:	48 89 e5             	mov    %rsp,%rbp
    8d7e:	48 83 ec 10          	sub    $0x10,%rsp
    8d82:	48 89 7d f8          	mov    %rdi,-0x8(%rbp)
    8d86:	48 8b 45 f8          	mov    -0x8(%rbp),%rax
    8d8a:	48 89 c7             	mov    %rax,%rdi
    8d8d:	e8 80 04 00 00       	callq  9212 <_ZNSaIiEC1Ev>
    8d92:	48 8b 45 f8          	mov    -0x8(%rbp),%rax
    8d96:	48 c7 00 00 00 00 00 	movq   $0x0,(%rax)
    8d9d:	48 8b 45 f8          	mov    -0x8(%rbp),%rax
    8da1:	48 c7 40 08 00 00 00 	movq   $0x0,0x8(%rax)
    8da8:	00 
    8da9:	48 8b 45 f8          	mov    -0x8(%rbp),%rax
    8dad:	48 83 c0 10          	add    $0x10,%rax
    8db1:	48 89 c7             	mov    %rax,%rdi
    8db4:	e8 79 04 00 00       	callq  9232 <_ZNSt15_Deque_iteratorIiRiPiEC1Ev>
    8db9:	48 8b 45 f8          	mov    -0x8(%rbp),%rax
    8dbd:	48 83 c0 30          	add    $0x30,%rax
    8dc1:	48 89 c7             	mov    %rax,%rdi
    8dc4:	e8 69 04 00 00       	callq  9232 <_ZNSt15_Deque_iteratorIiRiPiEC1Ev>
    8dc9:	90                   	nop
    8dca:	c9                   	leaveq 
    8dcb:	c3                   	retq   

0000000000008dcc <_ZNSt11_Deque_baseIiSaIiEE17_M_initialize_mapEm>:
    8dcc:	f3 0f 1e fa          	endbr64 
    8dd0:	55                   	push   %rbp
    8dd1:	48 89 e5             	mov    %rsp,%rbp
    8dd4:	53                   	push   %rbx
    8dd5:	48 83 ec 48          	sub    $0x48,%rsp
    8dd9:	48 89 7d b8          	mov    %rdi,-0x48(%rbp)
    8ddd:	48 89 75 b0          	mov    %rsi,-0x50(%rbp)
    8de1:	64 48 8b 04 25 28 00 	mov    %fs:0x28,%rax
    8de8:	00 00 
    8dea:	48 89 45 e8          	mov    %rax,-0x18(%rbp)
    8dee:	31 c0                	xor    %eax,%eax
    8df0:	bf 04 00 00 00       	mov    $0x4,%edi
    8df5:	e8 c0 ef ff ff       	callq  7dba <_ZSt16__deque_buf_sizem>
    8dfa:	48 89 c3             	mov    %rax,%rbx
    8dfd:	48 8b 45 b0          	mov    -0x50(%rbp),%rax
    8e01:	ba 00 00 00 00       	mov    $0x0,%edx
    8e06:	48 f7 f3             	div    %rbx
    8e09:	48 83 c0 01          	add    $0x1,%rax
    8e0d:	48 89 45 d0          	mov    %rax,-0x30(%rbp)
    8e11:	48 8b 45 d0          	mov    -0x30(%rbp),%rax
    8e15:	48 83 c0 02          	add    $0x2,%rax
    8e19:	48 89 45 c8          	mov    %rax,-0x38(%rbp)
    8e1d:	48 c7 45 c0 08 00 00 	movq   $0x8,-0x40(%rbp)
    8e24:	00 
    8e25:	48 8d 55 c8          	lea    -0x38(%rbp),%rdx
    8e29:	48 8d 45 c0          	lea    -0x40(%rbp),%rax
    8e2d:	48 89 d6             	mov    %rdx,%rsi
    8e30:	48 89 c7             	mov    %rax,%rdi
    8e33:	e8 cf ef ff ff       	callq  7e07 <_ZSt3maxImERKT_S2_S2_>
    8e38:	48 8b 10             	mov    (%rax),%rdx
    8e3b:	48 8b 45 b8          	mov    -0x48(%rbp),%rax
    8e3f:	48 89 50 08          	mov    %rdx,0x8(%rax)
    8e43:	48 8b 45 b8          	mov    -0x48(%rbp),%rax
    8e47:	48 8b 50 08          	mov    0x8(%rax),%rdx
    8e4b:	48 8b 45 b8          	mov    -0x48(%rbp),%rax
    8e4f:	48 89 d6             	mov    %rdx,%rsi
    8e52:	48 89 c7             	mov    %rax,%rdi
    8e55:	e8 16 04 00 00       	callq  9270 <_ZNSt11_Deque_baseIiSaIiEE15_M_allocate_mapEm>
    8e5a:	48 8b 55 b8          	mov    -0x48(%rbp),%rdx
    8e5e:	48 89 02             	mov    %rax,(%rdx)
    8e61:	48 8b 45 b8          	mov    -0x48(%rbp),%rax
    8e65:	48 8b 10             	mov    (%rax),%rdx
    8e68:	48 8b 45 b8          	mov    -0x48(%rbp),%rax
    8e6c:	48 8b 40 08          	mov    0x8(%rax),%rax
    8e70:	48 2b 45 d0          	sub    -0x30(%rbp),%rax
    8e74:	48 d1 e8             	shr    %rax
    8e77:	48 c1 e0 03          	shl    $0x3,%rax
    8e7b:	48 01 d0             	add    %rdx,%rax
    8e7e:	48 89 45 d8          	mov    %rax,-0x28(%rbp)
    8e82:	48 8b 45 d0          	mov    -0x30(%rbp),%rax
    8e86:	48 8d 14 c5 00 00 00 	lea    0x0(,%rax,8),%rdx
    8e8d:	00 
    8e8e:	48 8b 45 d8          	mov    -0x28(%rbp),%rax
    8e92:	48 01 d0             	add    %rdx,%rax
    8e95:	48 89 45 e0          	mov    %rax,-0x20(%rbp)
    8e99:	48 8b 55 e0          	mov    -0x20(%rbp),%rdx
    8e9d:	48 8b 4d d8          	mov    -0x28(%rbp),%rcx
    8ea1:	48 8b 45 b8          	mov    -0x48(%rbp),%rax
    8ea5:	48 89 ce             	mov    %rcx,%rsi
    8ea8:	48 89 c7             	mov    %rax,%rdi
    8eab:	e8 58 04 00 00       	callq  9308 <_ZNSt11_Deque_baseIiSaIiEE15_M_create_nodesEPPiS3_>
    8eb0:	48 8b 45 b8          	mov    -0x48(%rbp),%rax
    8eb4:	48 8d 50 10          	lea    0x10(%rax),%rdx
    8eb8:	48 8b 45 d8          	mov    -0x28(%rbp),%rax
    8ebc:	48 89 c6             	mov    %rax,%rsi
    8ebf:	48 89 d7             	mov    %rdx,%rdi
    8ec2:	e8 0b fe ff ff       	callq  8cd2 <_ZNSt15_Deque_iteratorIiRiPiE11_M_set_nodeEPS1_>
    8ec7:	48 8b 45 b8          	mov    -0x48(%rbp),%rax
    8ecb:	48 83 c0 30          	add    $0x30,%rax
    8ecf:	48 8b 55 e0          	mov    -0x20(%rbp),%rdx
    8ed3:	48 83 ea 08          	sub    $0x8,%rdx
    8ed7:	48 89 d6             	mov    %rdx,%rsi
    8eda:	48 89 c7             	mov    %rax,%rdi
    8edd:	e8 f0 fd ff ff       	callq  8cd2 <_ZNSt15_Deque_iteratorIiRiPiE11_M_set_nodeEPS1_>
    8ee2:	48 8b 45 b8          	mov    -0x48(%rbp),%rax
    8ee6:	48 8b 50 18          	mov    0x18(%rax),%rdx
    8eea:	48 8b 45 b8          	mov    -0x48(%rbp),%rax
    8eee:	48 89 50 10          	mov    %rdx,0x10(%rax)
    8ef2:	48 8b 45 b8          	mov    -0x48(%rbp),%rax
    8ef6:	48 8b 58 38          	mov    0x38(%rax),%rbx
    8efa:	bf 04 00 00 00       	mov    $0x4,%edi
    8eff:	e8 b6 ee ff ff       	callq  7dba <_ZSt16__deque_buf_sizem>
    8f04:	48 89 c1             	mov    %rax,%rcx
    8f07:	48 8b 45 b0          	mov    -0x50(%rbp),%rax
    8f0b:	ba 00 00 00 00       	mov    $0x0,%edx
    8f10:	48 f7 f1             	div    %rcx
    8f13:	48 89 d1             	mov    %rdx,%rcx
    8f16:	48 89 c8             	mov    %rcx,%rax
    8f19:	48 c1 e0 02          	shl    $0x2,%rax
    8f1d:	48 8d 14 03          	lea    (%rbx,%rax,1),%rdx
    8f21:	48 8b 45 b8          	mov    -0x48(%rbp),%rax
    8f25:	48 89 50 30          	mov    %rdx,0x30(%rax)
    8f29:	90                   	nop
    8f2a:	48 8b 45 e8          	mov    -0x18(%rbp),%rax
    8f2e:	64 48 33 04 25 28 00 	xor    %fs:0x28,%rax
    8f35:	00 00 
    8f37:	74 64                	je     8f9d <_ZNSt11_Deque_baseIiSaIiEE17_M_initialize_mapEm+0x1d1>
    8f39:	eb 5d                	jmp    8f98 <_ZNSt11_Deque_baseIiSaIiEE17_M_initialize_mapEm+0x1cc>
    8f3b:	f3 0f 1e fa          	endbr64 
    8f3f:	48 89 c7             	mov    %rax,%rdi
    8f42:	e8 49 94 ff ff       	callq  2390 <__cxa_begin_catch@plt>
    8f47:	48 8b 45 b8          	mov    -0x48(%rbp),%rax
    8f4b:	48 8b 50 08          	mov    0x8(%rax),%rdx
    8f4f:	48 8b 45 b8          	mov    -0x48(%rbp),%rax
    8f53:	48 8b 08             	mov    (%rax),%rcx
    8f56:	48 8b 45 b8          	mov    -0x48(%rbp),%rax
    8f5a:	48 89 ce             	mov    %rcx,%rsi
    8f5d:	48 89 c7             	mov    %rax,%rdi
    8f60:	e8 ef fa ff ff       	callq  8a54 <_ZNSt11_Deque_baseIiSaIiEE17_M_deallocate_mapEPPim>
    8f65:	48 8b 45 b8          	mov    -0x48(%rbp),%rax
    8f69:	48 c7 00 00 00 00 00 	movq   $0x0,(%rax)
    8f70:	48 8b 45 b8          	mov    -0x48(%rbp),%rax
    8f74:	48 c7 40 08 00 00 00 	movq   $0x0,0x8(%rax)
    8f7b:	00 
    8f7c:	e8 af 95 ff ff       	callq  2530 <__cxa_rethrow@plt>
    8f81:	f3 0f 1e fa          	endbr64 
    8f85:	48 89 c3             	mov    %rax,%rbx
    8f88:	e8 f3 95 ff ff       	callq  2580 <__cxa_end_catch@plt>
    8f8d:	48 89 d8             	mov    %rbx,%rax
    8f90:	48 89 c7             	mov    %rax,%rdi
    8f93:	e8 08 96 ff ff       	callq  25a0 <_Unwind_Resume@plt>
    8f98:	e8 53 95 ff ff       	callq  24f0 <__stack_chk_fail@plt>
    8f9d:	48 83 c4 48          	add    $0x48,%rsp
    8fa1:	5b                   	pop    %rbx
    8fa2:	5d                   	pop    %rbp
    8fa3:	c3                   	retq   

0000000000008fa4 <_ZN9__gnu_cxx13new_allocatorIiED1Ev>:
    8fa4:	f3 0f 1e fa          	endbr64 
    8fa8:	55                   	push   %rbp
    8fa9:	48 89 e5             	mov    %rsp,%rbp
    8fac:	48 89 7d f8          	mov    %rdi,-0x8(%rbp)
    8fb0:	90                   	nop
    8fb1:	5d                   	pop    %rbp
    8fb2:	c3                   	retq   
    8fb3:	90                   	nop

0000000000008fb4 <_ZNKSt11_Deque_baseIiSaIiEE20_M_get_map_allocatorEv>:
    8fb4:	f3 0f 1e fa          	endbr64 
    8fb8:	55                   	push   %rbp
    8fb9:	48 89 e5             	mov    %rsp,%rbp
    8fbc:	48 83 ec 10          	sub    $0x10,%rsp
    8fc0:	48 89 7d f8          	mov    %rdi,-0x8(%rbp)
    8fc4:	48 89 75 f0          	mov    %rsi,-0x10(%rbp)
    8fc8:	48 8b 45 f0          	mov    -0x10(%rbp),%rax
    8fcc:	48 89 c7             	mov    %rax,%rdi
    8fcf:	e8 c0 03 00 00       	callq  9394 <_ZNKSt11_Deque_baseIiSaIiEE19_M_get_Tp_allocatorEv>
    8fd4:	48 89 c2             	mov    %rax,%rdx
    8fd7:	48 8b 45 f8          	mov    -0x8(%rbp),%rax
    8fdb:	48 89 d6             	mov    %rdx,%rsi
    8fde:	48 89 c7             	mov    %rax,%rdi
    8fe1:	e8 c0 03 00 00       	callq  93a6 <_ZNSaIPiEC1IiEERKSaIT_E>
    8fe6:	48 8b 45 f8          	mov    -0x8(%rbp),%rax
    8fea:	c9                   	leaveq 
    8feb:	c3                   	retq   

0000000000008fec <_ZNSaIPiED1Ev>:
    8fec:	f3 0f 1e fa          	endbr64 
    8ff0:	55                   	push   %rbp
    8ff1:	48 89 e5             	mov    %rsp,%rbp
    8ff4:	48 83 ec 10          	sub    $0x10,%rsp
    8ff8:	48 89 7d f8          	mov    %rdi,-0x8(%rbp)
    8ffc:	48 8b 45 f8          	mov    -0x8(%rbp),%rax
    9000:	48 89 c7             	mov    %rax,%rdi
    9003:	e8 c2 03 00 00       	callq  93ca <_ZN9__gnu_cxx13new_allocatorIPiED1Ev>
    9008:	90                   	nop
    9009:	c9                   	leaveq 
    900a:	c3                   	retq   

000000000000900b <_ZNSt16allocator_traitsISaIPiEE10deallocateERS1_PS0_m>:
    900b:	f3 0f 1e fa          	endbr64 
    900f:	55                   	push   %rbp
    9010:	48 89 e5             	mov    %rsp,%rbp
    9013:	48 83 ec 20          	sub    $0x20,%rsp
    9017:	48 89 7d f8          	mov    %rdi,-0x8(%rbp)
    901b:	48 89 75 f0          	mov    %rsi,-0x10(%rbp)
    901f:	48 89 55 e8          	mov    %rdx,-0x18(%rbp)
    9023:	48 8b 55 e8          	mov    -0x18(%rbp),%rdx
    9027:	48 8b 4d f0          	mov    -0x10(%rbp),%rcx
    902b:	48 8b 45 f8          	mov    -0x8(%rbp),%rax
    902f:	48 89 ce             	mov    %rcx,%rsi
    9032:	48 89 c7             	mov    %rax,%rdi
    9035:	e8 a0 03 00 00       	callq  93da <_ZN9__gnu_cxx13new_allocatorIPiE10deallocateEPS1_m>
    903a:	90                   	nop
    903b:	c9                   	leaveq 
    903c:	c3                   	retq   
    903d:	90                   	nop

000000000000903e <_ZN9__gnu_cxx13new_allocatorIiE9constructIiJiEEEvPT_DpOT0_>:
    903e:	f3 0f 1e fa          	endbr64 
    9042:	55                   	push   %rbp
    9043:	48 89 e5             	mov    %rsp,%rbp
    9046:	53                   	push   %rbx
    9047:	48 83 ec 28          	sub    $0x28,%rsp
    904b:	48 89 7d e8          	mov    %rdi,-0x18(%rbp)
    904f:	48 89 75 e0          	mov    %rsi,-0x20(%rbp)
    9053:	48 89 55 d8          	mov    %rdx,-0x28(%rbp)
    9057:	48 8b 45 d8          	mov    -0x28(%rbp),%rax
    905b:	48 89 c7             	mov    %rax,%rdi
    905e:	e8 d3 ed ff ff       	callq  7e36 <_ZSt7forwardIiEOT_RNSt16remove_referenceIS0_E4typeE>
    9063:	8b 18                	mov    (%rax),%ebx
    9065:	48 8b 45 e0          	mov    -0x20(%rbp),%rax
    9069:	48 89 c6             	mov    %rax,%rsi
    906c:	bf 04 00 00 00       	mov    $0x4,%edi
    9071:	e8 57 a4 ff ff       	callq  34cd <_ZnwmPv>
    9076:	89 18                	mov    %ebx,(%rax)
    9078:	90                   	nop
    9079:	48 83 c4 28          	add    $0x28,%rsp
    907d:	5b                   	pop    %rbx
    907e:	5d                   	pop    %rbp
    907f:	c3                   	retq   

0000000000009080 <_ZNKSt5dequeIiSaIiEE4sizeEv>:
    9080:	f3 0f 1e fa          	endbr64 
    9084:	55                   	push   %rbp
    9085:	48 89 e5             	mov    %rsp,%rbp
    9088:	48 83 ec 10          	sub    $0x10,%rsp
    908c:	48 89 7d f8          	mov    %rdi,-0x8(%rbp)
    9090:	48 8b 45 f8          	mov    -0x8(%rbp),%rax
    9094:	48 8d 50 10          	lea    0x10(%rax),%rdx
    9098:	48 8b 45 f8          	mov    -0x8(%rbp),%rax
    909c:	48 83 c0 30          	add    $0x30,%rax
    90a0:	48 89 d6             	mov    %rdx,%rsi
    90a3:	48 89 c7             	mov    %rax,%rdi
    90a6:	e8 55 03 00 00       	callq  9400 <_ZStmiIiRiPiENSt15_Deque_iteratorIT_T0_T1_E15difference_typeERKS6_S9_>
    90ab:	c9                   	leaveq 
    90ac:	c3                   	retq   
    90ad:	90                   	nop

00000000000090ae <_ZNKSt5dequeIiSaIiEE8max_sizeEv>:
    90ae:	f3 0f 1e fa          	endbr64 
    90b2:	55                   	push   %rbp
    90b3:	48 89 e5             	mov    %rsp,%rbp
    90b6:	48 83 ec 10          	sub    $0x10,%rsp
    90ba:	48 89 7d f8          	mov    %rdi,-0x8(%rbp)
    90be:	48 8b 45 f8          	mov    -0x8(%rbp),%rax
    90c2:	48 89 c7             	mov    %rax,%rdi
    90c5:	e8 ca 02 00 00       	callq  9394 <_ZNKSt11_Deque_baseIiSaIiEE19_M_get_Tp_allocatorEv>
    90ca:	48 89 c7             	mov    %rax,%rdi
    90cd:	e8 aa 03 00 00       	callq  947c <_ZNSt5dequeIiSaIiEE11_S_max_sizeERKS0_>
    90d2:	c9                   	leaveq 
    90d3:	c3                   	retq   

00000000000090d4 <_ZNSt5dequeIiSaIiEE22_M_reserve_map_at_backEm>:
    90d4:	f3 0f 1e fa          	endbr64 
    90d8:	55                   	push   %rbp
    90d9:	48 89 e5             	mov    %rsp,%rbp
    90dc:	48 83 ec 10          	sub    $0x10,%rsp
    90e0:	48 89 7d f8          	mov    %rdi,-0x8(%rbp)
    90e4:	48 89 75 f0          	mov    %rsi,-0x10(%rbp)
    90e8:	48 8b 45 f0          	mov    -0x10(%rbp),%rax
    90ec:	48 8d 70 01          	lea    0x1(%rax),%rsi
    90f0:	48 8b 45 f8          	mov    -0x8(%rbp),%rax
    90f4:	48 8b 50 08          	mov    0x8(%rax),%rdx
    90f8:	48 8b 45 f8          	mov    -0x8(%rbp),%rax
    90fc:	48 8b 48 48          	mov    0x48(%rax),%rcx
    9100:	48 8b 45 f8          	mov    -0x8(%rbp),%rax
    9104:	48 8b 00             	mov    (%rax),%rax
    9107:	48 29 c1             	sub    %rax,%rcx
    910a:	48 89 c8             	mov    %rcx,%rax
    910d:	48 c1 f8 03          	sar    $0x3,%rax
    9111:	48 29 c2             	sub    %rax,%rdx
    9114:	48 89 d0             	mov    %rdx,%rax
    9117:	48 39 c6             	cmp    %rax,%rsi
    911a:	76 18                	jbe    9134 <_ZNSt5dequeIiSaIiEE22_M_reserve_map_at_backEm+0x60>
    911c:	48 8b 4d f0          	mov    -0x10(%rbp),%rcx
    9120:	48 8b 45 f8          	mov    -0x8(%rbp),%rax
    9124:	ba 00 00 00 00       	mov    $0x0,%edx
    9129:	48 89 ce             	mov    %rcx,%rsi
    912c:	48 89 c7             	mov    %rax,%rdi
    912f:	e8 b2 03 00 00       	callq  94e6 <_ZNSt5dequeIiSaIiEE17_M_reallocate_mapEmb>
    9134:	90                   	nop
    9135:	c9                   	leaveq 
    9136:	c3                   	retq   
    9137:	90                   	nop

0000000000009138 <_ZNSt11_Deque_baseIiSaIiEE16_M_allocate_nodeEv>:
    9138:	f3 0f 1e fa          	endbr64 
    913c:	55                   	push   %rbp
    913d:	48 89 e5             	mov    %rsp,%rbp
    9140:	48 83 ec 10          	sub    $0x10,%rsp
    9144:	48 89 7d f8          	mov    %rdi,-0x8(%rbp)
    9148:	bf 04 00 00 00       	mov    $0x4,%edi
    914d:	e8 68 ec ff ff       	callq  7dba <_ZSt16__deque_buf_sizem>
    9152:	48 89 c2             	mov    %rax,%rdx
    9155:	48 8b 45 f8          	mov    -0x8(%rbp),%rax
    9159:	48 89 d6             	mov    %rdx,%rsi
    915c:	48 89 c7             	mov    %rax,%rdi
    915f:	e8 a6 05 00 00       	callq  970a <_ZNSt16allocator_traitsISaIiEE8allocateERS0_m>
    9164:	c9                   	leaveq 
    9165:	c3                   	retq   

0000000000009166 <_ZNSt15_Deque_iteratorIiRiPiEmmEv>:
    9166:	f3 0f 1e fa          	endbr64 
    916a:	55                   	push   %rbp
    916b:	48 89 e5             	mov    %rsp,%rbp
    916e:	48 83 ec 10          	sub    $0x10,%rsp
    9172:	48 89 7d f8          	mov    %rdi,-0x8(%rbp)
    9176:	48 8b 45 f8          	mov    -0x8(%rbp),%rax
    917a:	48 8b 10             	mov    (%rax),%rdx
    917d:	48 8b 45 f8          	mov    -0x8(%rbp),%rax
    9181:	48 8b 40 08          	mov    0x8(%rax),%rax
    9185:	48 39 c2             	cmp    %rax,%rdx
    9188:	75 2a                	jne    91b4 <_ZNSt15_Deque_iteratorIiRiPiEmmEv+0x4e>
    918a:	48 8b 45 f8          	mov    -0x8(%rbp),%rax
    918e:	48 8b 40 18          	mov    0x18(%rax),%rax
    9192:	48 8d 50 f8          	lea    -0x8(%rax),%rdx
    9196:	48 8b 45 f8          	mov    -0x8(%rbp),%rax
    919a:	48 89 d6             	mov    %rdx,%rsi
    919d:	48 89 c7             	mov    %rax,%rdi
    91a0:	e8 2d fb ff ff       	callq  8cd2 <_ZNSt15_Deque_iteratorIiRiPiE11_M_set_nodeEPS1_>
    91a5:	48 8b 45 f8          	mov    -0x8(%rbp),%rax
    91a9:	48 8b 50 10          	mov    0x10(%rax),%rdx
    91ad:	48 8b 45 f8          	mov    -0x8(%rbp),%rax
    91b1:	48 89 10             	mov    %rdx,(%rax)
    91b4:	48 8b 45 f8          	mov    -0x8(%rbp),%rax
    91b8:	48 8b 00             	mov    (%rax),%rax
    91bb:	48 8d 50 fc          	lea    -0x4(%rax),%rdx
    91bf:	48 8b 45 f8          	mov    -0x8(%rbp),%rax
    91c3:	48 89 10             	mov    %rdx,(%rax)
    91c6:	48 8b 45 f8          	mov    -0x8(%rbp),%rax
    91ca:	c9                   	leaveq 
    91cb:	c3                   	retq   

00000000000091cc <_ZNSt16allocator_traitsISaIiEE10deallocateERS0_Pim>:
    91cc:	f3 0f 1e fa          	endbr64 
    91d0:	55                   	push   %rbp
    91d1:	48 89 e5             	mov    %rsp,%rbp
    91d4:	48 83 ec 20          	sub    $0x20,%rsp
    91d8:	48 89 7d f8          	mov    %rdi,-0x8(%rbp)
    91dc:	48 89 75 f0          	mov    %rsi,-0x10(%rbp)
    91e0:	48 89 55 e8          	mov    %rdx,-0x18(%rbp)
    91e4:	48 8b 55 e8          	mov    -0x18(%rbp),%rdx
    91e8:	48 8b 4d f0          	mov    -0x10(%rbp),%rcx
    91ec:	48 8b 45 f8          	mov    -0x8(%rbp),%rax
    91f0:	48 89 ce             	mov    %rcx,%rsi
    91f3:	48 89 c7             	mov    %rax,%rdi
    91f6:	e8 3d 05 00 00       	callq  9738 <_ZN9__gnu_cxx13new_allocatorIiE10deallocateEPim>
    91fb:	90                   	nop
    91fc:	c9                   	leaveq 
    91fd:	c3                   	retq   

00000000000091fe <_ZNSt15_Deque_iteratorIiRiPiE14_S_buffer_sizeEv>:
    91fe:	f3 0f 1e fa          	endbr64 
    9202:	55                   	push   %rbp
    9203:	48 89 e5             	mov    %rsp,%rbp
    9206:	bf 04 00 00 00       	mov    $0x4,%edi
    920b:	e8 aa eb ff ff       	callq  7dba <_ZSt16__deque_buf_sizem>
    9210:	5d                   	pop    %rbp
    9211:	c3                   	retq   

0000000000009212 <_ZNSaIiEC1Ev>:
    9212:	f3 0f 1e fa          	endbr64 
    9216:	55                   	push   %rbp
    9217:	48 89 e5             	mov    %rsp,%rbp
    921a:	48 83 ec 10          	sub    $0x10,%rsp
    921e:	48 89 7d f8          	mov    %rdi,-0x8(%rbp)
    9222:	48 8b 45 f8          	mov    -0x8(%rbp),%rax
    9226:	48 89 c7             	mov    %rax,%rdi
    9229:	e8 30 05 00 00       	callq  975e <_ZN9__gnu_cxx13new_allocatorIiEC1Ev>
    922e:	90                   	nop
    922f:	c9                   	leaveq 
    9230:	c3                   	retq   
    9231:	90                   	nop

0000000000009232 <_ZNSt15_Deque_iteratorIiRiPiEC1Ev>:
    9232:	f3 0f 1e fa          	endbr64 
    9236:	55                   	push   %rbp
    9237:	48 89 e5             	mov    %rsp,%rbp
    923a:	48 89 7d f8          	mov    %rdi,-0x8(%rbp)
    923e:	48 8b 45 f8          	mov    -0x8(%rbp),%rax
    9242:	48 c7 00 00 00 00 00 	movq   $0x0,(%rax)
    9249:	48 8b 45 f8          	mov    -0x8(%rbp),%rax
    924d:	48 c7 40 08 00 00 00 	movq   $0x0,0x8(%rax)
    9254:	00 
    9255:	48 8b 45 f8          	mov    -0x8(%rbp),%rax
    9259:	48 c7 40 10 00 00 00 	movq   $0x0,0x10(%rax)
    9260:	00 
    9261:	48 8b 45 f8          	mov    -0x8(%rbp),%rax
    9265:	48 c7 40 18 00 00 00 	movq   $0x0,0x18(%rax)
    926c:	00 
    926d:	90                   	nop
    926e:	5d                   	pop    %rbp
    926f:	c3                   	retq   

0000000000009270 <_ZNSt11_Deque_baseIiSaIiEE15_M_allocate_mapEm>:
    9270:	f3 0f 1e fa          	endbr64 
    9274:	55                   	push   %rbp
    9275:	48 89 e5             	mov    %rsp,%rbp
    9278:	53                   	push   %rbx
    9279:	48 83 ec 28          	sub    $0x28,%rsp
    927d:	48 89 7d d8          	mov    %rdi,-0x28(%rbp)
    9281:	48 89 75 d0          	mov    %rsi,-0x30(%rbp)
    9285:	64 48 8b 04 25 28 00 	mov    %fs:0x28,%rax
    928c:	00 00 
    928e:	48 89 45 e8          	mov    %rax,-0x18(%rbp)
    9292:	31 c0                	xor    %eax,%eax
    9294:	48 8d 45 e7          	lea    -0x19(%rbp),%rax
    9298:	48 8b 55 d8          	mov    -0x28(%rbp),%rdx
    929c:	48 89 d6             	mov    %rdx,%rsi
    929f:	48 89 c7             	mov    %rax,%rdi
    92a2:	e8 0d fd ff ff       	callq  8fb4 <_ZNKSt11_Deque_baseIiSaIiEE20_M_get_map_allocatorEv>
    92a7:	48 8b 55 d0          	mov    -0x30(%rbp),%rdx
    92ab:	48 8d 45 e7          	lea    -0x19(%rbp),%rax
    92af:	48 89 d6             	mov    %rdx,%rsi
    92b2:	48 89 c7             	mov    %rax,%rdi
    92b5:	e8 b3 04 00 00       	callq  976d <_ZNSt16allocator_traitsISaIPiEE8allocateERS1_m>
    92ba:	48 89 c3             	mov    %rax,%rbx
    92bd:	90                   	nop
    92be:	48 8d 45 e7          	lea    -0x19(%rbp),%rax
    92c2:	48 89 c7             	mov    %rax,%rdi
    92c5:	e8 22 fd ff ff       	callq  8fec <_ZNSaIPiED1Ev>
    92ca:	48 89 d8             	mov    %rbx,%rax
    92cd:	48 8b 4d e8          	mov    -0x18(%rbp),%rcx
    92d1:	64 48 33 0c 25 28 00 	xor    %fs:0x28,%rcx
    92d8:	00 00 
    92da:	74 25                	je     9301 <_ZNSt11_Deque_baseIiSaIiEE15_M_allocate_mapEm+0x91>
    92dc:	eb 1e                	jmp    92fc <_ZNSt11_Deque_baseIiSaIiEE15_M_allocate_mapEm+0x8c>
    92de:	f3 0f 1e fa          	endbr64 
    92e2:	48 89 c3             	mov    %rax,%rbx
    92e5:	48 8d 45 e7          	lea    -0x19(%rbp),%rax
    92e9:	48 89 c7             	mov    %rax,%rdi
    92ec:	e8 fb fc ff ff       	callq  8fec <_ZNSaIPiED1Ev>
    92f1:	48 89 d8             	mov    %rbx,%rax
    92f4:	48 89 c7             	mov    %rax,%rdi
    92f7:	e8 a4 92 ff ff       	callq  25a0 <_Unwind_Resume@plt>
    92fc:	e8 ef 91 ff ff       	callq  24f0 <__stack_chk_fail@plt>
    9301:	48 83 c4 28          	add    $0x28,%rsp
    9305:	5b                   	pop    %rbx
    9306:	5d                   	pop    %rbp
    9307:	c3                   	retq   

0000000000009308 <_ZNSt11_Deque_baseIiSaIiEE15_M_create_nodesEPPiS3_>:
    9308:	f3 0f 1e fa          	endbr64 
    930c:	55                   	push   %rbp
    930d:	48 89 e5             	mov    %rsp,%rbp
    9310:	53                   	push   %rbx
    9311:	48 83 ec 38          	sub    $0x38,%rsp
    9315:	48 89 7d d8          	mov    %rdi,-0x28(%rbp)
    9319:	48 89 75 d0          	mov    %rsi,-0x30(%rbp)
    931d:	48 89 55 c8          	mov    %rdx,-0x38(%rbp)
    9321:	48 8b 45 d0          	mov    -0x30(%rbp),%rax
    9325:	48 89 45 e8          	mov    %rax,-0x18(%rbp)
    9329:	48 8b 45 e8          	mov    -0x18(%rbp),%rax
    932d:	48 3b 45 c8          	cmp    -0x38(%rbp),%rax
    9331:	73 59                	jae    938c <_ZNSt11_Deque_baseIiSaIiEE15_M_create_nodesEPPiS3_+0x84>
    9333:	48 8b 45 d8          	mov    -0x28(%rbp),%rax
    9337:	48 89 c7             	mov    %rax,%rdi
    933a:	e8 f9 fd ff ff       	callq  9138 <_ZNSt11_Deque_baseIiSaIiEE16_M_allocate_nodeEv>
    933f:	48 8b 55 e8          	mov    -0x18(%rbp),%rdx
    9343:	48 89 02             	mov    %rax,(%rdx)
    9346:	48 83 45 e8 08       	addq   $0x8,-0x18(%rbp)
    934b:	eb dc                	jmp    9329 <_ZNSt11_Deque_baseIiSaIiEE15_M_create_nodesEPPiS3_+0x21>
    934d:	f3 0f 1e fa          	endbr64 
    9351:	48 89 c7             	mov    %rax,%rdi
    9354:	e8 37 90 ff ff       	callq  2390 <__cxa_begin_catch@plt>
    9359:	48 8b 55 e8          	mov    -0x18(%rbp),%rdx
    935d:	48 8b 4d d0          	mov    -0x30(%rbp),%rcx
    9361:	48 8b 45 d8          	mov    -0x28(%rbp),%rax
    9365:	48 89 ce             	mov    %rcx,%rsi
    9368:	48 89 c7             	mov    %rax,%rdi
    936b:	e8 9a f6 ff ff       	callq  8a0a <_ZNSt11_Deque_baseIiSaIiEE16_M_destroy_nodesEPPiS3_>
    9370:	e8 bb 91 ff ff       	callq  2530 <__cxa_rethrow@plt>
    9375:	f3 0f 1e fa          	endbr64 
    9379:	48 89 c3             	mov    %rax,%rbx
    937c:	e8 ff 91 ff ff       	callq  2580 <__cxa_end_catch@plt>
    9381:	48 89 d8             	mov    %rbx,%rax
    9384:	48 89 c7             	mov    %rax,%rdi
    9387:	e8 14 92 ff ff       	callq  25a0 <_Unwind_Resume@plt>
    938c:	90                   	nop
    938d:	48 83 c4 38          	add    $0x38,%rsp
    9391:	5b                   	pop    %rbx
    9392:	5d                   	pop    %rbp
    9393:	c3                   	retq   

0000000000009394 <_ZNKSt11_Deque_baseIiSaIiEE19_M_get_Tp_allocatorEv>:
    9394:	f3 0f 1e fa          	endbr64 
    9398:	55                   	push   %rbp
    9399:	48 89 e5             	mov    %rsp,%rbp
    939c:	48 89 7d f8          	mov    %rdi,-0x8(%rbp)
    93a0:	48 8b 45 f8          	mov    -0x8(%rbp),%rax
    93a4:	5d                   	pop    %rbp
    93a5:	c3                   	retq   

00000000000093a6 <_ZNSaIPiEC1IiEERKSaIT_E>:
    93a6:	f3 0f 1e fa          	endbr64 
    93aa:	55                   	push   %rbp
    93ab:	48 89 e5             	mov    %rsp,%rbp
    93ae:	48 83 ec 10          	sub    $0x10,%rsp
    93b2:	48 89 7d f8          	mov    %rdi,-0x8(%rbp)
    93b6:	48 89 75 f0          	mov    %rsi,-0x10(%rbp)
    93ba:	48 8b 45 f8          	mov    -0x8(%rbp),%rax
    93be:	48 89 c7             	mov    %rax,%rdi
    93c1:	e8 d6 03 00 00       	callq  979c <_ZN9__gnu_cxx13new_allocatorIPiEC1Ev>
    93c6:	90                   	nop
    93c7:	c9                   	leaveq 
    93c8:	c3                   	retq   
    93c9:	90                   	nop

00000000000093ca <_ZN9__gnu_cxx13new_allocatorIPiED1Ev>:
    93ca:	f3 0f 1e fa          	endbr64 
    93ce:	55                   	push   %rbp
    93cf:	48 89 e5             	mov    %rsp,%rbp
    93d2:	48 89 7d f8          	mov    %rdi,-0x8(%rbp)
    93d6:	90                   	nop
    93d7:	5d                   	pop    %rbp
    93d8:	c3                   	retq   
    93d9:	90                   	nop

00000000000093da <_ZN9__gnu_cxx13new_allocatorIPiE10deallocateEPS1_m>:
    93da:	f3 0f 1e fa          	endbr64 
    93de:	55                   	push   %rbp
    93df:	48 89 e5             	mov    %rsp,%rbp
    93e2:	48 83 ec 20          	sub    $0x20,%rsp
    93e6:	48 89 7d f8          	mov    %rdi,-0x8(%rbp)
    93ea:	48 89 75 f0          	mov    %rsi,-0x10(%rbp)
    93ee:	48 89 55 e8          	mov    %rdx,-0x18(%rbp)
    93f2:	48 8b 45 f0          	mov    -0x10(%rbp),%rax
    93f6:	48 89 c7             	mov    %rax,%rdi
    93f9:	e8 72 90 ff ff       	callq  2470 <_ZdlPv@plt>
    93fe:	c9                   	leaveq 
    93ff:	c3                   	retq   

0000000000009400 <_ZStmiIiRiPiENSt15_Deque_iteratorIT_T0_T1_E15difference_typeERKS6_S9_>:
    9400:	f3 0f 1e fa          	endbr64 
    9404:	55                   	push   %rbp
    9405:	48 89 e5             	mov    %rsp,%rbp
    9408:	48 83 ec 10          	sub    $0x10,%rsp
    940c:	48 89 7d f8          	mov    %rdi,-0x8(%rbp)
    9410:	48 89 75 f0          	mov    %rsi,-0x10(%rbp)
    9414:	e8 e5 fd ff ff       	callq  91fe <_ZNSt15_Deque_iteratorIiRiPiE14_S_buffer_sizeEv>
    9419:	48 89 c1             	mov    %rax,%rcx
    941c:	48 8b 45 f8          	mov    -0x8(%rbp),%rax
    9420:	48 8b 50 18          	mov    0x18(%rax),%rdx
    9424:	48 8b 45 f0          	mov    -0x10(%rbp),%rax
    9428:	48 8b 40 18          	mov    0x18(%rax),%rax
    942c:	48 29 c2             	sub    %rax,%rdx
    942f:	48 89 d0             	mov    %rdx,%rax
    9432:	48 c1 f8 03          	sar    $0x3,%rax
    9436:	48 83 e8 01          	sub    $0x1,%rax
    943a:	48 0f af c8          	imul   %rax,%rcx
    943e:	48 89 ca             	mov    %rcx,%rdx
    9441:	48 8b 45 f8          	mov    -0x8(%rbp),%rax
    9445:	48 8b 08             	mov    (%rax),%rcx
    9448:	48 8b 45 f8          	mov    -0x8(%rbp),%rax
    944c:	48 8b 40 08          	mov    0x8(%rax),%rax
    9450:	48 29 c1             	sub    %rax,%rcx
    9453:	48 89 c8             	mov    %rcx,%rax
    9456:	48 c1 f8 02          	sar    $0x2,%rax
    945a:	48 8d 0c 02          	lea    (%rdx,%rax,1),%rcx
    945e:	48 8b 45 f0          	mov    -0x10(%rbp),%rax
    9462:	48 8b 50 10          	mov    0x10(%rax),%rdx
    9466:	48 8b 45 f0          	mov    -0x10(%rbp),%rax
    946a:	48 8b 00             	mov    (%rax),%rax
    946d:	48 29 c2             	sub    %rax,%rdx
    9470:	48 89 d0             	mov    %rdx,%rax
    9473:	48 c1 f8 02          	sar    $0x2,%rax
    9477:	48 01 c8             	add    %rcx,%rax
    947a:	c9                   	leaveq 
    947b:	c3                   	retq   

000000000000947c <_ZNSt5dequeIiSaIiEE11_S_max_sizeERKS0_>:
    947c:	f3 0f 1e fa          	endbr64 
    9480:	55                   	push   %rbp
    9481:	48 89 e5             	mov    %rsp,%rbp
    9484:	48 83 ec 30          	sub    $0x30,%rsp
    9488:	48 89 7d d8          	mov    %rdi,-0x28(%rbp)
    948c:	64 48 8b 04 25 28 00 	mov    %fs:0x28,%rax
    9493:	00 00 
    9495:	48 89 45 f8          	mov    %rax,-0x8(%rbp)
    9499:	31 c0                	xor    %eax,%eax
    949b:	48 b8 ff ff ff ff ff 	movabs $0x7fffffffffffffff,%rax
    94a2:	ff ff 7f 
    94a5:	48 89 45 e8          	mov    %rax,-0x18(%rbp)
    94a9:	48 8b 45 d8          	mov    -0x28(%rbp),%rax
    94ad:	48 89 c7             	mov    %rax,%rdi
    94b0:	e8 f6 02 00 00       	callq  97ab <_ZNSt16allocator_traitsISaIiEE8max_sizeERKS0_>
    94b5:	48 89 45 f0          	mov    %rax,-0x10(%rbp)
    94b9:	48 8d 55 f0          	lea    -0x10(%rbp),%rdx
    94bd:	48 8d 45 e8          	lea    -0x18(%rbp),%rax
    94c1:	48 89 d6             	mov    %rdx,%rsi
    94c4:	48 89 c7             	mov    %rax,%rdi
    94c7:	e8 1f e7 ff ff       	callq  7beb <_ZSt3minImERKT_S2_S2_>
    94cc:	48 8b 00             	mov    (%rax),%rax
    94cf:	48 8b 4d f8          	mov    -0x8(%rbp),%rcx
    94d3:	64 48 33 0c 25 28 00 	xor    %fs:0x28,%rcx
    94da:	00 00 
    94dc:	74 05                	je     94e3 <_ZNSt5dequeIiSaIiEE11_S_max_sizeERKS0_+0x67>
    94de:	e8 0d 90 ff ff       	callq  24f0 <__stack_chk_fail@plt>
    94e3:	c9                   	leaveq 
    94e4:	c3                   	retq   
    94e5:	90                   	nop

00000000000094e6 <_ZNSt5dequeIiSaIiEE17_M_reallocate_mapEmb>:
    94e6:	f3 0f 1e fa          	endbr64 
    94ea:	55                   	push   %rbp
    94eb:	48 89 e5             	mov    %rsp,%rbp
    94ee:	53                   	push   %rbx
    94ef:	48 83 ec 58          	sub    $0x58,%rsp
    94f3:	48 89 7d b8          	mov    %rdi,-0x48(%rbp)
    94f7:	48 89 75 b0          	mov    %rsi,-0x50(%rbp)
    94fb:	89 d0                	mov    %edx,%eax
    94fd:	88 45 ac             	mov    %al,-0x54(%rbp)
    9500:	48 8b 45 b8          	mov    -0x48(%rbp),%rax
    9504:	48 8b 50 48          	mov    0x48(%rax),%rdx
    9508:	48 8b 45 b8          	mov    -0x48(%rbp),%rax
    950c:	48 8b 40 28          	mov    0x28(%rax),%rax
    9510:	48 29 c2             	sub    %rax,%rdx
    9513:	48 89 d0             	mov    %rdx,%rax
    9516:	48 c1 f8 03          	sar    $0x3,%rax
    951a:	48 83 c0 01          	add    $0x1,%rax
    951e:	48 89 45 d0          	mov    %rax,-0x30(%rbp)
    9522:	48 8b 55 b0          	mov    -0x50(%rbp),%rdx
    9526:	48 8b 45 d0          	mov    -0x30(%rbp),%rax
    952a:	48 01 d0             	add    %rdx,%rax
    952d:	48 89 45 d8          	mov    %rax,-0x28(%rbp)
    9531:	48 8b 45 b8          	mov    -0x48(%rbp),%rax
    9535:	48 8b 40 08          	mov    0x8(%rax),%rax
    9539:	48 8b 55 d8          	mov    -0x28(%rbp),%rdx
    953d:	48 01 d2             	add    %rdx,%rdx
    9540:	48 39 d0             	cmp    %rdx,%rax
    9543:	0f 86 aa 00 00 00    	jbe    95f3 <_ZNSt5dequeIiSaIiEE17_M_reallocate_mapEmb+0x10d>
    9549:	48 8b 45 b8          	mov    -0x48(%rbp),%rax
    954d:	48 8b 10             	mov    (%rax),%rdx
    9550:	48 8b 45 b8          	mov    -0x48(%rbp),%rax
    9554:	48 8b 40 08          	mov    0x8(%rax),%rax
    9558:	48 2b 45 d8          	sub    -0x28(%rbp),%rax
    955c:	48 d1 e8             	shr    %rax
    955f:	48 8d 0c c5 00 00 00 	lea    0x0(,%rax,8),%rcx
    9566:	00 
    9567:	80 7d ac 00          	cmpb   $0x0,-0x54(%rbp)
    956b:	74 0a                	je     9577 <_ZNSt5dequeIiSaIiEE17_M_reallocate_mapEmb+0x91>
    956d:	48 8b 45 b0          	mov    -0x50(%rbp),%rax
    9571:	48 c1 e0 03          	shl    $0x3,%rax
    9575:	eb 05                	jmp    957c <_ZNSt5dequeIiSaIiEE17_M_reallocate_mapEmb+0x96>
    9577:	b8 00 00 00 00       	mov    $0x0,%eax
    957c:	48 01 c8             	add    %rcx,%rax
    957f:	48 01 d0             	add    %rdx,%rax
    9582:	48 89 45 c8          	mov    %rax,-0x38(%rbp)
    9586:	48 8b 45 b8          	mov    -0x48(%rbp),%rax
    958a:	48 8b 40 28          	mov    0x28(%rax),%rax
    958e:	48 39 45 c8          	cmp    %rax,-0x38(%rbp)
    9592:	73 28                	jae    95bc <_ZNSt5dequeIiSaIiEE17_M_reallocate_mapEmb+0xd6>
    9594:	48 8b 45 b8          	mov    -0x48(%rbp),%rax
    9598:	48 8b 40 48          	mov    0x48(%rax),%rax
    959c:	48 8d 48 08          	lea    0x8(%rax),%rcx
    95a0:	48 8b 45 b8          	mov    -0x48(%rbp),%rax
    95a4:	48 8b 40 28          	mov    0x28(%rax),%rax
    95a8:	48 8b 55 c8          	mov    -0x38(%rbp),%rdx
    95ac:	48 89 ce             	mov    %rcx,%rsi
    95af:	48 89 c7             	mov    %rax,%rdi
    95b2:	e8 12 02 00 00       	callq  97c9 <_ZSt4copyIPPiS1_ET0_T_S3_S2_>
    95b7:	e9 09 01 00 00       	jmpq   96c5 <_ZNSt5dequeIiSaIiEE17_M_reallocate_mapEmb+0x1df>
    95bc:	48 8b 45 d0          	mov    -0x30(%rbp),%rax
    95c0:	48 8d 14 c5 00 00 00 	lea    0x0(,%rax,8),%rdx
    95c7:	00 
    95c8:	48 8b 45 c8          	mov    -0x38(%rbp),%rax
    95cc:	48 01 c2             	add    %rax,%rdx
    95cf:	48 8b 45 b8          	mov    -0x48(%rbp),%rax
    95d3:	48 8b 40 48          	mov    0x48(%rax),%rax
    95d7:	48 8d 48 08          	lea    0x8(%rax),%rcx
    95db:	48 8b 45 b8          	mov    -0x48(%rbp),%rax
    95df:	48 8b 40 28          	mov    0x28(%rax),%rax
    95e3:	48 89 ce             	mov    %rcx,%rsi
    95e6:	48 89 c7             	mov    %rax,%rdi
    95e9:	e8 2b 02 00 00       	callq  9819 <_ZSt13copy_backwardIPPiS1_ET0_T_S3_S2_>
    95ee:	e9 d2 00 00 00       	jmpq   96c5 <_ZNSt5dequeIiSaIiEE17_M_reallocate_mapEmb+0x1df>
    95f3:	48 8b 45 b8          	mov    -0x48(%rbp),%rax
    95f7:	48 8b 58 08          	mov    0x8(%rax),%rbx
    95fb:	48 8b 45 b8          	mov    -0x48(%rbp),%rax
    95ff:	48 8d 50 08          	lea    0x8(%rax),%rdx
    9603:	48 8d 45 b0          	lea    -0x50(%rbp),%rax
    9607:	48 89 c6             	mov    %rax,%rsi
    960a:	48 89 d7             	mov    %rdx,%rdi
    960d:	e8 f5 e7 ff ff       	callq  7e07 <_ZSt3maxImERKT_S2_S2_>
    9612:	48 8b 00             	mov    (%rax),%rax
    9615:	48 01 d8             	add    %rbx,%rax
    9618:	48 83 c0 02          	add    $0x2,%rax
    961c:	48 89 45 e0          	mov    %rax,-0x20(%rbp)
    9620:	48 8b 45 b8          	mov    -0x48(%rbp),%rax
    9624:	48 8b 55 e0          	mov    -0x20(%rbp),%rdx
    9628:	48 89 d6             	mov    %rdx,%rsi
    962b:	48 89 c7             	mov    %rax,%rdi
    962e:	e8 3d fc ff ff       	callq  9270 <_ZNSt11_Deque_baseIiSaIiEE15_M_allocate_mapEm>
    9633:	48 89 45 e8          	mov    %rax,-0x18(%rbp)
    9637:	48 8b 45 e0          	mov    -0x20(%rbp),%rax
    963b:	48 2b 45 d8          	sub    -0x28(%rbp),%rax
    963f:	48 d1 e8             	shr    %rax
    9642:	48 8d 14 c5 00 00 00 	lea    0x0(,%rax,8),%rdx
    9649:	00 
    964a:	80 7d ac 00          	cmpb   $0x0,-0x54(%rbp)
    964e:	74 0a                	je     965a <_ZNSt5dequeIiSaIiEE17_M_reallocate_mapEmb+0x174>
    9650:	48 8b 45 b0          	mov    -0x50(%rbp),%rax
    9654:	48 c1 e0 03          	shl    $0x3,%rax
    9658:	eb 05                	jmp    965f <_ZNSt5dequeIiSaIiEE17_M_reallocate_mapEmb+0x179>
    965a:	b8 00 00 00 00       	mov    $0x0,%eax
    965f:	48 01 c2             	add    %rax,%rdx
    9662:	48 8b 45 e8          	mov    -0x18(%rbp),%rax
    9666:	48 01 d0             	add    %rdx,%rax
    9669:	48 89 45 c8          	mov    %rax,-0x38(%rbp)
    966d:	48 8b 45 b8          	mov    -0x48(%rbp),%rax
    9671:	48 8b 40 48          	mov    0x48(%rax),%rax
    9675:	48 8d 48 08          	lea    0x8(%rax),%rcx
    9679:	48 8b 45 b8          	mov    -0x48(%rbp),%rax
    967d:	48 8b 40 28          	mov    0x28(%rax),%rax
    9681:	48 8b 55 c8          	mov    -0x38(%rbp),%rdx
    9685:	48 89 ce             	mov    %rcx,%rsi
    9688:	48 89 c7             	mov    %rax,%rdi
    968b:	e8 39 01 00 00       	callq  97c9 <_ZSt4copyIPPiS1_ET0_T_S3_S2_>
    9690:	48 8b 45 b8          	mov    -0x48(%rbp),%rax
    9694:	48 8b 55 b8          	mov    -0x48(%rbp),%rdx
    9698:	48 8b 52 08          	mov    0x8(%rdx),%rdx
    969c:	48 8b 4d b8          	mov    -0x48(%rbp),%rcx
    96a0:	48 8b 09             	mov    (%rcx),%rcx
    96a3:	48 89 ce             	mov    %rcx,%rsi
    96a6:	48 89 c7             	mov    %rax,%rdi
    96a9:	e8 a6 f3 ff ff       	callq  8a54 <_ZNSt11_Deque_baseIiSaIiEE17_M_deallocate_mapEPPim>
    96ae:	48 8b 45 b8          	mov    -0x48(%rbp),%rax
    96b2:	48 8b 55 e8          	mov    -0x18(%rbp),%rdx
    96b6:	48 89 10             	mov    %rdx,(%rax)
    96b9:	48 8b 45 b8          	mov    -0x48(%rbp),%rax
    96bd:	48 8b 55 e0          	mov    -0x20(%rbp),%rdx
    96c1:	48 89 50 08          	mov    %rdx,0x8(%rax)
    96c5:	48 8b 45 b8          	mov    -0x48(%rbp),%rax
    96c9:	48 8d 50 10          	lea    0x10(%rax),%rdx
    96cd:	48 8b 45 c8          	mov    -0x38(%rbp),%rax
    96d1:	48 89 c6             	mov    %rax,%rsi
    96d4:	48 89 d7             	mov    %rdx,%rdi
    96d7:	e8 f6 f5 ff ff       	callq  8cd2 <_ZNSt15_Deque_iteratorIiRiPiE11_M_set_nodeEPS1_>
    96dc:	48 8b 45 b8          	mov    -0x48(%rbp),%rax
    96e0:	48 83 c0 30          	add    $0x30,%rax
    96e4:	48 8b 55 d0          	mov    -0x30(%rbp),%rdx
    96e8:	48 c1 e2 03          	shl    $0x3,%rdx
    96ec:	48 8d 4a f8          	lea    -0x8(%rdx),%rcx
    96f0:	48 8b 55 c8          	mov    -0x38(%rbp),%rdx
    96f4:	48 01 ca             	add    %rcx,%rdx
    96f7:	48 89 d6             	mov    %rdx,%rsi
    96fa:	48 89 c7             	mov    %rax,%rdi
    96fd:	e8 d0 f5 ff ff       	callq  8cd2 <_ZNSt15_Deque_iteratorIiRiPiE11_M_set_nodeEPS1_>
    9702:	90                   	nop
    9703:	48 83 c4 58          	add    $0x58,%rsp
    9707:	5b                   	pop    %rbx
    9708:	5d                   	pop    %rbp
    9709:	c3                   	retq   

000000000000970a <_ZNSt16allocator_traitsISaIiEE8allocateERS0_m>:
    970a:	f3 0f 1e fa          	endbr64 
    970e:	55                   	push   %rbp
    970f:	48 89 e5             	mov    %rsp,%rbp
    9712:	48 83 ec 10          	sub    $0x10,%rsp
    9716:	48 89 7d f8          	mov    %rdi,-0x8(%rbp)
    971a:	48 89 75 f0          	mov    %rsi,-0x10(%rbp)
    971e:	48 8b 4d f0          	mov    -0x10(%rbp),%rcx
    9722:	48 8b 45 f8          	mov    -0x8(%rbp),%rax
    9726:	ba 00 00 00 00       	mov    $0x0,%edx
    972b:	48 89 ce             	mov    %rcx,%rsi
    972e:	48 89 c7             	mov    %rax,%rdi
    9731:	e8 34 01 00 00       	callq  986a <_ZN9__gnu_cxx13new_allocatorIiE8allocateEmPKv>
    9736:	c9                   	leaveq 
    9737:	c3                   	retq   

0000000000009738 <_ZN9__gnu_cxx13new_allocatorIiE10deallocateEPim>:
    9738:	f3 0f 1e fa          	endbr64 
    973c:	55                   	push   %rbp
    973d:	48 89 e5             	mov    %rsp,%rbp
    9740:	48 83 ec 20          	sub    $0x20,%rsp
    9744:	48 89 7d f8          	mov    %rdi,-0x8(%rbp)
    9748:	48 89 75 f0          	mov    %rsi,-0x10(%rbp)
    974c:	48 89 55 e8          	mov    %rdx,-0x18(%rbp)
    9750:	48 8b 45 f0          	mov    -0x10(%rbp),%rax
    9754:	48 89 c7             	mov    %rax,%rdi
    9757:	e8 14 8d ff ff       	callq  2470 <_ZdlPv@plt>
    975c:	c9                   	leaveq 
    975d:	c3                   	retq   

000000000000975e <_ZN9__gnu_cxx13new_allocatorIiEC1Ev>:
    975e:	f3 0f 1e fa          	endbr64 
    9762:	55                   	push   %rbp
    9763:	48 89 e5             	mov    %rsp,%rbp
    9766:	48 89 7d f8          	mov    %rdi,-0x8(%rbp)
    976a:	90                   	nop
    976b:	5d                   	pop    %rbp
    976c:	c3                   	retq   

000000000000976d <_ZNSt16allocator_traitsISaIPiEE8allocateERS1_m>:
    976d:	f3 0f 1e fa          	endbr64 
    9771:	55                   	push   %rbp
    9772:	48 89 e5             	mov    %rsp,%rbp
    9775:	48 83 ec 10          	sub    $0x10,%rsp
    9779:	48 89 7d f8          	mov    %rdi,-0x8(%rbp)
    977d:	48 89 75 f0          	mov    %rsi,-0x10(%rbp)
    9781:	48 8b 4d f0          	mov    -0x10(%rbp),%rcx
    9785:	48 8b 45 f8          	mov    -0x8(%rbp),%rax
    9789:	ba 00 00 00 00       	mov    $0x0,%edx
    978e:	48 89 ce             	mov    %rcx,%rsi
    9791:	48 89 c7             	mov    %rax,%rdi
    9794:	e8 19 01 00 00       	callq  98b2 <_ZN9__gnu_cxx13new_allocatorIPiE8allocateEmPKv>
    9799:	c9                   	leaveq 
    979a:	c3                   	retq   
    979b:	90                   	nop

000000000000979c <_ZN9__gnu_cxx13new_allocatorIPiEC1Ev>:
    979c:	f3 0f 1e fa          	endbr64 
    97a0:	55                   	push   %rbp
    97a1:	48 89 e5             	mov    %rsp,%rbp
    97a4:	48 89 7d f8          	mov    %rdi,-0x8(%rbp)
    97a8:	90                   	nop
    97a9:	5d                   	pop    %rbp
    97aa:	c3                   	retq   

00000000000097ab <_ZNSt16allocator_traitsISaIiEE8max_sizeERKS0_>:
    97ab:	f3 0f 1e fa          	endbr64 
    97af:	55                   	push   %rbp
    97b0:	48 89 e5             	mov    %rsp,%rbp
    97b3:	48 83 ec 10          	sub    $0x10,%rsp
    97b7:	48 89 7d f8          	mov    %rdi,-0x8(%rbp)
    97bb:	48 8b 45 f8          	mov    -0x8(%rbp),%rax
    97bf:	48 89 c7             	mov    %rax,%rdi
    97c2:	e8 33 01 00 00       	callq  98fa <_ZNK9__gnu_cxx13new_allocatorIiE8max_sizeEv>
    97c7:	c9                   	leaveq 
    97c8:	c3                   	retq   

00000000000097c9 <_ZSt4copyIPPiS1_ET0_T_S3_S2_>:
    97c9:	f3 0f 1e fa          	endbr64 
    97cd:	55                   	push   %rbp
    97ce:	48 89 e5             	mov    %rsp,%rbp
    97d1:	53                   	push   %rbx
    97d2:	48 83 ec 28          	sub    $0x28,%rsp
    97d6:	48 89 7d e8          	mov    %rdi,-0x18(%rbp)
    97da:	48 89 75 e0          	mov    %rsi,-0x20(%rbp)
    97de:	48 89 55 d8          	mov    %rdx,-0x28(%rbp)
    97e2:	48 8b 45 e0          	mov    -0x20(%rbp),%rax
    97e6:	48 89 c7             	mov    %rax,%rdi
    97e9:	e8 24 01 00 00       	callq  9912 <_ZSt12__miter_baseIPPiET_S2_>
    97ee:	48 89 c3             	mov    %rax,%rbx
    97f1:	48 8b 45 e8          	mov    -0x18(%rbp),%rax
    97f5:	48 89 c7             	mov    %rax,%rdi
    97f8:	e8 15 01 00 00       	callq  9912 <_ZSt12__miter_baseIPPiET_S2_>
    97fd:	48 89 c1             	mov    %rax,%rcx
    9800:	48 8b 45 d8          	mov    -0x28(%rbp),%rax
    9804:	48 89 c2             	mov    %rax,%rdx
    9807:	48 89 de             	mov    %rbx,%rsi
    980a:	48 89 cf             	mov    %rcx,%rdi
    980d:	e8 12 01 00 00       	callq  9924 <_ZSt14__copy_move_a2ILb0EPPiS1_ET1_T0_S3_S2_>
    9812:	48 83 c4 28          	add    $0x28,%rsp
    9816:	5b                   	pop    %rbx
    9817:	5d                   	pop    %rbp
    9818:	c3                   	retq   

0000000000009819 <_ZSt13copy_backwardIPPiS1_ET0_T_S3_S2_>:
    9819:	f3 0f 1e fa          	endbr64 
    981d:	55                   	push   %rbp
    981e:	48 89 e5             	mov    %rsp,%rbp
    9821:	53                   	push   %rbx
    9822:	48 83 ec 28          	sub    $0x28,%rsp
    9826:	48 89 7d e8          	mov    %rdi,-0x18(%rbp)
    982a:	48 89 75 e0          	mov    %rsi,-0x20(%rbp)
    982e:	48 89 55 d8          	mov    %rdx,-0x28(%rbp)
    9832:	48 8b 45 e0          	mov    -0x20(%rbp),%rax
    9836:	48 89 c7             	mov    %rax,%rdi
    9839:	e8 d4 00 00 00       	callq  9912 <_ZSt12__miter_baseIPPiET_S2_>
    983e:	48 89 c3             	mov    %rax,%rbx
    9841:	48 8b 45 e8          	mov    -0x18(%rbp),%rax
    9845:	48 89 c7             	mov    %rax,%rdi
    9848:	e8 c5 00 00 00       	callq  9912 <_ZSt12__miter_baseIPPiET_S2_>
    984d:	48 89 c1             	mov    %rax,%rcx
    9850:	48 8b 45 d8          	mov    -0x28(%rbp),%rax
    9854:	48 89 c2             	mov    %rax,%rdx
    9857:	48 89 de             	mov    %rbx,%rsi
    985a:	48 89 cf             	mov    %rcx,%rdi
    985d:	e8 30 01 00 00       	callq  9992 <_ZSt23__copy_move_backward_a2ILb0EPPiS1_ET1_T0_S3_S2_>
    9862:	48 83 c4 28          	add    $0x28,%rsp
    9866:	5b                   	pop    %rbx
    9867:	5d                   	pop    %rbp
    9868:	c3                   	retq   
    9869:	90                   	nop

000000000000986a <_ZN9__gnu_cxx13new_allocatorIiE8allocateEmPKv>:
    986a:	f3 0f 1e fa          	endbr64 
    986e:	55                   	push   %rbp
    986f:	48 89 e5             	mov    %rsp,%rbp
    9872:	48 83 ec 20          	sub    $0x20,%rsp
    9876:	48 89 7d f8          	mov    %rdi,-0x8(%rbp)
    987a:	48 89 75 f0          	mov    %rsi,-0x10(%rbp)
    987e:	48 89 55 e8          	mov    %rdx,-0x18(%rbp)
    9882:	48 8b 45 f8          	mov    -0x8(%rbp),%rax
    9886:	48 89 c7             	mov    %rax,%rdi
    9889:	e8 6c 00 00 00       	callq  98fa <_ZNK9__gnu_cxx13new_allocatorIiE8max_sizeEv>
    988e:	48 39 45 f0          	cmp    %rax,-0x10(%rbp)
    9892:	0f 97 c0             	seta   %al
    9895:	84 c0                	test   %al,%al
    9897:	74 05                	je     989e <_ZN9__gnu_cxx13new_allocatorIiE8allocateEmPKv+0x34>
    9899:	e8 d2 8a ff ff       	callq  2370 <_ZSt17__throw_bad_allocv@plt>
    989e:	48 8b 45 f0          	mov    -0x10(%rbp),%rax
    98a2:	48 c1 e0 02          	shl    $0x2,%rax
    98a6:	48 89 c7             	mov    %rax,%rdi
    98a9:	e8 e2 8b ff ff       	callq  2490 <_Znwm@plt>
    98ae:	90                   	nop
    98af:	c9                   	leaveq 
    98b0:	c3                   	retq   
    98b1:	90                   	nop

00000000000098b2 <_ZN9__gnu_cxx13new_allocatorIPiE8allocateEmPKv>:
    98b2:	f3 0f 1e fa          	endbr64 
    98b6:	55                   	push   %rbp
    98b7:	48 89 e5             	mov    %rsp,%rbp
    98ba:	48 83 ec 20          	sub    $0x20,%rsp
    98be:	48 89 7d f8          	mov    %rdi,-0x8(%rbp)
    98c2:	48 89 75 f0          	mov    %rsi,-0x10(%rbp)
    98c6:	48 89 55 e8          	mov    %rdx,-0x18(%rbp)
    98ca:	48 8b 45 f8          	mov    -0x8(%rbp),%rax
    98ce:	48 89 c7             	mov    %rax,%rdi
    98d1:	e8 2a 01 00 00       	callq  9a00 <_ZNK9__gnu_cxx13new_allocatorIPiE8max_sizeEv>
    98d6:	48 39 45 f0          	cmp    %rax,-0x10(%rbp)
    98da:	0f 97 c0             	seta   %al
    98dd:	84 c0                	test   %al,%al
    98df:	74 05                	je     98e6 <_ZN9__gnu_cxx13new_allocatorIPiE8allocateEmPKv+0x34>
    98e1:	e8 8a 8a ff ff       	callq  2370 <_ZSt17__throw_bad_allocv@plt>
    98e6:	48 8b 45 f0          	mov    -0x10(%rbp),%rax
    98ea:	48 c1 e0 03          	shl    $0x3,%rax
    98ee:	48 89 c7             	mov    %rax,%rdi
    98f1:	e8 9a 8b ff ff       	callq  2490 <_Znwm@plt>
    98f6:	90                   	nop
    98f7:	c9                   	leaveq 
    98f8:	c3                   	retq   
    98f9:	90                   	nop

00000000000098fa <_ZNK9__gnu_cxx13new_allocatorIiE8max_sizeEv>:
    98fa:	f3 0f 1e fa          	endbr64 
    98fe:	55                   	push   %rbp
    98ff:	48 89 e5             	mov    %rsp,%rbp
    9902:	48 89 7d f8          	mov    %rdi,-0x8(%rbp)
    9906:	48 b8 ff ff ff ff ff 	movabs $0x1fffffffffffffff,%rax
    990d:	ff ff 1f 
    9910:	5d                   	pop    %rbp
    9911:	c3                   	retq   

0000000000009912 <_ZSt12__miter_baseIPPiET_S2_>:
    9912:	f3 0f 1e fa          	endbr64 
    9916:	55                   	push   %rbp
    9917:	48 89 e5             	mov    %rsp,%rbp
    991a:	48 89 7d f8          	mov    %rdi,-0x8(%rbp)
    991e:	48 8b 45 f8          	mov    -0x8(%rbp),%rax
    9922:	5d                   	pop    %rbp
    9923:	c3                   	retq   

0000000000009924 <_ZSt14__copy_move_a2ILb0EPPiS1_ET1_T0_S3_S2_>:
    9924:	f3 0f 1e fa          	endbr64 
    9928:	55                   	push   %rbp
    9929:	48 89 e5             	mov    %rsp,%rbp
    992c:	41 54                	push   %r12
    992e:	53                   	push   %rbx
    992f:	48 83 ec 20          	sub    $0x20,%rsp
    9933:	48 89 7d e8          	mov    %rdi,-0x18(%rbp)
    9937:	48 89 75 e0          	mov    %rsi,-0x20(%rbp)
    993b:	48 89 55 d8          	mov    %rdx,-0x28(%rbp)
    993f:	48 8b 45 d8          	mov    -0x28(%rbp),%rax
    9943:	48 89 c7             	mov    %rax,%rdi
    9946:	e8 cd 00 00 00       	callq  9a18 <_ZSt12__niter_baseIPPiET_S2_>
    994b:	49 89 c4             	mov    %rax,%r12
    994e:	48 8b 45 e0          	mov    -0x20(%rbp),%rax
    9952:	48 89 c7             	mov    %rax,%rdi
    9955:	e8 be 00 00 00       	callq  9a18 <_ZSt12__niter_baseIPPiET_S2_>
    995a:	48 89 c3             	mov    %rax,%rbx
    995d:	48 8b 45 e8          	mov    -0x18(%rbp),%rax
    9961:	48 89 c7             	mov    %rax,%rdi
    9964:	e8 af 00 00 00       	callq  9a18 <_ZSt12__niter_baseIPPiET_S2_>
    9969:	4c 89 e2             	mov    %r12,%rdx
    996c:	48 89 de             	mov    %rbx,%rsi
    996f:	48 89 c7             	mov    %rax,%rdi
    9972:	e8 b3 00 00 00       	callq  9a2a <_ZSt13__copy_move_aILb0EPPiS1_ET1_T0_S3_S2_>
    9977:	48 89 c2             	mov    %rax,%rdx
    997a:	48 8d 45 d8          	lea    -0x28(%rbp),%rax
    997e:	48 89 d6             	mov    %rdx,%rsi
    9981:	48 89 c7             	mov    %rax,%rdi
    9984:	e8 d6 00 00 00       	callq  9a5f <_ZSt12__niter_wrapIPPiET_RKS2_S2_>
    9989:	48 83 c4 20          	add    $0x20,%rsp
    998d:	5b                   	pop    %rbx
    998e:	41 5c                	pop    %r12
    9990:	5d                   	pop    %rbp
    9991:	c3                   	retq   

0000000000009992 <_ZSt23__copy_move_backward_a2ILb0EPPiS1_ET1_T0_S3_S2_>:
    9992:	f3 0f 1e fa          	endbr64 
    9996:	55                   	push   %rbp
    9997:	48 89 e5             	mov    %rsp,%rbp
    999a:	41 54                	push   %r12
    999c:	53                   	push   %rbx
    999d:	48 83 ec 20          	sub    $0x20,%rsp
    99a1:	48 89 7d e8          	mov    %rdi,-0x18(%rbp)
    99a5:	48 89 75 e0          	mov    %rsi,-0x20(%rbp)
    99a9:	48 89 55 d8          	mov    %rdx,-0x28(%rbp)
    99ad:	48 8b 45 d8          	mov    -0x28(%rbp),%rax
    99b1:	48 89 c7             	mov    %rax,%rdi
    99b4:	e8 5f 00 00 00       	callq  9a18 <_ZSt12__niter_baseIPPiET_S2_>
    99b9:	49 89 c4             	mov    %rax,%r12
    99bc:	48 8b 45 e0          	mov    -0x20(%rbp),%rax
    99c0:	48 89 c7             	mov    %rax,%rdi
    99c3:	e8 50 00 00 00       	callq  9a18 <_ZSt12__niter_baseIPPiET_S2_>
    99c8:	48 89 c3             	mov    %rax,%rbx
    99cb:	48 8b 45 e8          	mov    -0x18(%rbp),%rax
    99cf:	48 89 c7             	mov    %rax,%rdi
    99d2:	e8 41 00 00 00       	callq  9a18 <_ZSt12__niter_baseIPPiET_S2_>
    99d7:	4c 89 e2             	mov    %r12,%rdx
    99da:	48 89 de             	mov    %rbx,%rsi
    99dd:	48 89 c7             	mov    %rax,%rdi
    99e0:	e8 90 00 00 00       	callq  9a75 <_ZSt22__copy_move_backward_aILb0EPPiS1_ET1_T0_S3_S2_>
    99e5:	48 89 c2             	mov    %rax,%rdx
    99e8:	48 8d 45 d8          	lea    -0x28(%rbp),%rax
    99ec:	48 89 d6             	mov    %rdx,%rsi
    99ef:	48 89 c7             	mov    %rax,%rdi
    99f2:	e8 68 00 00 00       	callq  9a5f <_ZSt12__niter_wrapIPPiET_RKS2_S2_>
    99f7:	48 83 c4 20          	add    $0x20,%rsp
    99fb:	5b                   	pop    %rbx
    99fc:	41 5c                	pop    %r12
    99fe:	5d                   	pop    %rbp
    99ff:	c3                   	retq   

0000000000009a00 <_ZNK9__gnu_cxx13new_allocatorIPiE8max_sizeEv>:
    9a00:	f3 0f 1e fa          	endbr64 
    9a04:	55                   	push   %rbp
    9a05:	48 89 e5             	mov    %rsp,%rbp
    9a08:	48 89 7d f8          	mov    %rdi,-0x8(%rbp)
    9a0c:	48 b8 ff ff ff ff ff 	movabs $0xfffffffffffffff,%rax
    9a13:	ff ff 0f 
    9a16:	5d                   	pop    %rbp
    9a17:	c3                   	retq   

0000000000009a18 <_ZSt12__niter_baseIPPiET_S2_>:
    9a18:	f3 0f 1e fa          	endbr64 
    9a1c:	55                   	push   %rbp
    9a1d:	48 89 e5             	mov    %rsp,%rbp
    9a20:	48 89 7d f8          	mov    %rdi,-0x8(%rbp)
    9a24:	48 8b 45 f8          	mov    -0x8(%rbp),%rax
    9a28:	5d                   	pop    %rbp
    9a29:	c3                   	retq   

0000000000009a2a <_ZSt13__copy_move_aILb0EPPiS1_ET1_T0_S3_S2_>:
    9a2a:	f3 0f 1e fa          	endbr64 
    9a2e:	55                   	push   %rbp
    9a2f:	48 89 e5             	mov    %rsp,%rbp
    9a32:	48 83 ec 30          	sub    $0x30,%rsp
    9a36:	48 89 7d e8          	mov    %rdi,-0x18(%rbp)
    9a3a:	48 89 75 e0          	mov    %rsi,-0x20(%rbp)
    9a3e:	48 89 55 d8          	mov    %rdx,-0x28(%rbp)
    9a42:	c6 45 ff 01          	movb   $0x1,-0x1(%rbp)
    9a46:	48 8b 55 d8          	mov    -0x28(%rbp),%rdx
    9a4a:	48 8b 4d e0          	mov    -0x20(%rbp),%rcx
    9a4e:	48 8b 45 e8          	mov    -0x18(%rbp),%rax
    9a52:	48 89 ce             	mov    %rcx,%rsi
    9a55:	48 89 c7             	mov    %rax,%rdi
    9a58:	e8 4d 00 00 00       	callq  9aaa <_ZNSt11__copy_moveILb0ELb1ESt26random_access_iterator_tagE8__copy_mIPiEEPT_PKS4_S7_S5_>
    9a5d:	c9                   	leaveq 
    9a5e:	c3                   	retq   

0000000000009a5f <_ZSt12__niter_wrapIPPiET_RKS2_S2_>:
    9a5f:	f3 0f 1e fa          	endbr64 
    9a63:	55                   	push   %rbp
    9a64:	48 89 e5             	mov    %rsp,%rbp
    9a67:	48 89 7d f8          	mov    %rdi,-0x8(%rbp)
    9a6b:	48 89 75 f0          	mov    %rsi,-0x10(%rbp)
    9a6f:	48 8b 45 f0          	mov    -0x10(%rbp),%rax
    9a73:	5d                   	pop    %rbp
    9a74:	c3                   	retq   

0000000000009a75 <_ZSt22__copy_move_backward_aILb0EPPiS1_ET1_T0_S3_S2_>:
    9a75:	f3 0f 1e fa          	endbr64 
    9a79:	55                   	push   %rbp
    9a7a:	48 89 e5             	mov    %rsp,%rbp
    9a7d:	48 83 ec 30          	sub    $0x30,%rsp
    9a81:	48 89 7d e8          	mov    %rdi,-0x18(%rbp)
    9a85:	48 89 75 e0          	mov    %rsi,-0x20(%rbp)
    9a89:	48 89 55 d8          	mov    %rdx,-0x28(%rbp)
    9a8d:	c6 45 ff 01          	movb   $0x1,-0x1(%rbp)
    9a91:	48 8b 55 d8          	mov    -0x28(%rbp),%rdx
    9a95:	48 8b 4d e0          	mov    -0x20(%rbp),%rcx
    9a99:	48 8b 45 e8          	mov    -0x18(%rbp),%rax
    9a9d:	48 89 ce             	mov    %rcx,%rsi
    9aa0:	48 89 c7             	mov    %rax,%rdi
    9aa3:	e8 65 00 00 00       	callq  9b0d <_ZNSt20__copy_move_backwardILb0ELb1ESt26random_access_iterator_tagE13__copy_move_bIPiEEPT_PKS4_S7_S5_>
    9aa8:	c9                   	leaveq 
    9aa9:	c3                   	retq   

0000000000009aaa <_ZNSt11__copy_moveILb0ELb1ESt26random_access_iterator_tagE8__copy_mIPiEEPT_PKS4_S7_S5_>:
    9aaa:	f3 0f 1e fa          	endbr64 
    9aae:	55                   	push   %rbp
    9aaf:	48 89 e5             	mov    %rsp,%rbp
    9ab2:	48 83 ec 30          	sub    $0x30,%rsp
    9ab6:	48 89 7d e8          	mov    %rdi,-0x18(%rbp)
    9aba:	48 89 75 e0          	mov    %rsi,-0x20(%rbp)
    9abe:	48 89 55 d8          	mov    %rdx,-0x28(%rbp)
    9ac2:	48 8b 45 e0          	mov    -0x20(%rbp),%rax
    9ac6:	48 2b 45 e8          	sub    -0x18(%rbp),%rax
    9aca:	48 c1 f8 03          	sar    $0x3,%rax
    9ace:	48 89 45 f8          	mov    %rax,-0x8(%rbp)
    9ad2:	48 83 7d f8 00       	cmpq   $0x0,-0x8(%rbp)
    9ad7:	74 1f                	je     9af8 <_ZNSt11__copy_moveILb0ELb1ESt26random_access_iterator_tagE8__copy_mIPiEEPT_PKS4_S7_S5_+0x4e>
    9ad9:	48 8b 45 f8          	mov    -0x8(%rbp),%rax
    9add:	48 8d 14 c5 00 00 00 	lea    0x0(,%rax,8),%rdx
    9ae4:	00 
    9ae5:	48 8b 4d e8          	mov    -0x18(%rbp),%rcx
    9ae9:	48 8b 45 d8          	mov    -0x28(%rbp),%rax
    9aed:	48 89 ce             	mov    %rcx,%rsi
    9af0:	48 89 c7             	mov    %rax,%rdi
    9af3:	e8 78 8a ff ff       	callq  2570 <memmove@plt>
    9af8:	48 8b 45 f8          	mov    -0x8(%rbp),%rax
    9afc:	48 8d 14 c5 00 00 00 	lea    0x0(,%rax,8),%rdx
    9b03:	00 
    9b04:	48 8b 45 d8          	mov    -0x28(%rbp),%rax
    9b08:	48 01 d0             	add    %rdx,%rax
    9b0b:	c9                   	leaveq 
    9b0c:	c3                   	retq   

0000000000009b0d <_ZNSt20__copy_move_backwardILb0ELb1ESt26random_access_iterator_tagE13__copy_move_bIPiEEPT_PKS4_S7_S5_>:
    9b0d:	f3 0f 1e fa          	endbr64 
    9b11:	55                   	push   %rbp
    9b12:	48 89 e5             	mov    %rsp,%rbp
    9b15:	48 83 ec 30          	sub    $0x30,%rsp
    9b19:	48 89 7d e8          	mov    %rdi,-0x18(%rbp)
    9b1d:	48 89 75 e0          	mov    %rsi,-0x20(%rbp)
    9b21:	48 89 55 d8          	mov    %rdx,-0x28(%rbp)
    9b25:	48 8b 45 e0          	mov    -0x20(%rbp),%rax
    9b29:	48 2b 45 e8          	sub    -0x18(%rbp),%rax
    9b2d:	48 c1 f8 03          	sar    $0x3,%rax
    9b31:	48 89 45 f8          	mov    %rax,-0x8(%rbp)
    9b35:	48 83 7d f8 00       	cmpq   $0x0,-0x8(%rbp)
    9b3a:	74 30                	je     9b6c <_ZNSt20__copy_move_backwardILb0ELb1ESt26random_access_iterator_tagE13__copy_move_bIPiEEPT_PKS4_S7_S5_+0x5f>
    9b3c:	48 8b 45 f8          	mov    -0x8(%rbp),%rax
    9b40:	48 8d 14 c5 00 00 00 	lea    0x0(,%rax,8),%rdx
    9b47:	00 
    9b48:	48 8b 45 f8          	mov    -0x8(%rbp),%rax
    9b4c:	48 c1 e0 03          	shl    $0x3,%rax
    9b50:	48 f7 d8             	neg    %rax
    9b53:	48 89 c1             	mov    %rax,%rcx
    9b56:	48 8b 45 d8          	mov    -0x28(%rbp),%rax
    9b5a:	48 01 c1             	add    %rax,%rcx
    9b5d:	48 8b 45 e8          	mov    -0x18(%rbp),%rax
    9b61:	48 89 c6             	mov    %rax,%rsi
    9b64:	48 89 cf             	mov    %rcx,%rdi
    9b67:	e8 04 8a ff ff       	callq  2570 <memmove@plt>
    9b6c:	48 8b 45 f8          	mov    -0x8(%rbp),%rax
    9b70:	48 c1 e0 03          	shl    $0x3,%rax
    9b74:	48 f7 d8             	neg    %rax
    9b77:	48 89 c2             	mov    %rax,%rdx
    9b7a:	48 8b 45 d8          	mov    -0x28(%rbp),%rax
    9b7e:	48 01 d0             	add    %rdx,%rax
    9b81:	c9                   	leaveq 
    9b82:	c3                   	retq   
    9b83:	90                   	nop

0000000000009b84 <_ZNSt12bad_any_castD1Ev>:
    9b84:	f3 0f 1e fa          	endbr64 
    9b88:	55                   	push   %rbp
    9b89:	48 89 e5             	mov    %rsp,%rbp
    9b8c:	48 83 ec 10          	sub    $0x10,%rsp
    9b90:	48 89 7d f8          	mov    %rdi,-0x8(%rbp)
    9b94:	48 8d 15 fd 5e 00 00 	lea    0x5efd(%rip),%rdx        # fa98 <_ZTVSt12bad_any_cast+0x10>
    9b9b:	48 8b 45 f8          	mov    -0x8(%rbp),%rax
    9b9f:	48 89 10             	mov    %rdx,(%rax)
    9ba2:	48 8b 45 f8          	mov    -0x8(%rbp),%rax
    9ba6:	48 89 c7             	mov    %rax,%rdi
    9ba9:	e8 b2 89 ff ff       	callq  2560 <_ZNSt8bad_castD2Ev@plt>
    9bae:	90                   	nop
    9baf:	c9                   	leaveq 
    9bb0:	c3                   	retq   
    9bb1:	90                   	nop

0000000000009bb2 <_ZNSt12bad_any_castD0Ev>:
    9bb2:	f3 0f 1e fa          	endbr64 
    9bb6:	55                   	push   %rbp
    9bb7:	48 89 e5             	mov    %rsp,%rbp
    9bba:	48 83 ec 10          	sub    $0x10,%rsp
    9bbe:	48 89 7d f8          	mov    %rdi,-0x8(%rbp)
    9bc2:	48 8b 45 f8          	mov    -0x8(%rbp),%rax
    9bc6:	48 89 c7             	mov    %rax,%rdi
    9bc9:	e8 b6 ff ff ff       	callq  9b84 <_ZNSt12bad_any_castD1Ev>
    9bce:	48 8b 45 f8          	mov    -0x8(%rbp),%rax
    9bd2:	be 08 00 00 00       	mov    $0x8,%esi
    9bd7:	48 89 c7             	mov    %rax,%rdi
    9bda:	e8 c1 88 ff ff       	callq  24a0 <_ZdlPvm@plt>
    9bdf:	c9                   	leaveq 
    9be0:	c3                   	retq   
    9be1:	66 2e 0f 1f 84 00 00 	nopw   %cs:0x0(%rax,%rax,1)
    9be8:	00 00 00 
    9beb:	0f 1f 44 00 00       	nopl   0x0(%rax,%rax,1)

0000000000009bf0 <__libc_csu_init>:
    9bf0:	f3 0f 1e fa          	endbr64 
    9bf4:	41 57                	push   %r15
    9bf6:	4c 8d 3d 33 5e 00 00 	lea    0x5e33(%rip),%r15        # fa30 <__frame_dummy_init_array_entry>
    9bfd:	41 56                	push   %r14
    9bff:	49 89 d6             	mov    %rdx,%r14
    9c02:	41 55                	push   %r13
    9c04:	49 89 f5             	mov    %rsi,%r13
    9c07:	41 54                	push   %r12
    9c09:	41 89 fc             	mov    %edi,%r12d
    9c0c:	55                   	push   %rbp
    9c0d:	48 8d 2d 34 5e 00 00 	lea    0x5e34(%rip),%rbp        # fa48 <__do_global_dtors_aux_fini_array_entry>
    9c14:	53                   	push   %rbx
    9c15:	4c 29 fd             	sub    %r15,%rbp
    9c18:	48 83 ec 08          	sub    $0x8,%rsp
    9c1c:	e8 df 83 ff ff       	callq  2000 <_init>
    9c21:	48 c1 fd 03          	sar    $0x3,%rbp
    9c25:	74 1f                	je     9c46 <__libc_csu_init+0x56>
    9c27:	31 db                	xor    %ebx,%ebx
    9c29:	0f 1f 80 00 00 00 00 	nopl   0x0(%rax)
    9c30:	4c 89 f2             	mov    %r14,%rdx
    9c33:	4c 89 ee             	mov    %r13,%rsi
    9c36:	44 89 e7             	mov    %r12d,%edi
    9c39:	41 ff 14 df          	callq  *(%r15,%rbx,8)
    9c3d:	48 83 c3 01          	add    $0x1,%rbx
    9c41:	48 39 dd             	cmp    %rbx,%rbp
    9c44:	75 ea                	jne    9c30 <__libc_csu_init+0x40>
    9c46:	48 83 c4 08          	add    $0x8,%rsp
    9c4a:	5b                   	pop    %rbx
    9c4b:	5d                   	pop    %rbp
    9c4c:	41 5c                	pop    %r12
    9c4e:	41 5d                	pop    %r13
    9c50:	41 5e                	pop    %r14
    9c52:	41 5f                	pop    %r15
    9c54:	c3                   	retq   
    9c55:	66 66 2e 0f 1f 84 00 	data16 nopw %cs:0x0(%rax,%rax,1)
    9c5c:	00 00 00 00 

0000000000009c60 <__libc_csu_fini>:
    9c60:	f3 0f 1e fa          	endbr64 
    9c64:	c3                   	retq   

Disassembly of section .fini:

0000000000009c68 <_fini>:
    9c68:	f3 0f 1e fa          	endbr64 
    9c6c:	48 83 ec 08          	sub    $0x8,%rsp
    9c70:	48 83 c4 08          	add    $0x8,%rsp
    9c74:	c3                   	retq   
